	.arch armv7-a
	.fpu softvfp
	.eabi_attribute 20, 1
	.eabi_attribute 21, 1
	.eabi_attribute 23, 3
	.eabi_attribute 24, 1
	.eabi_attribute 25, 1
	.eabi_attribute 26, 2
	.eabi_attribute 30, 2
	.eabi_attribute 18, 4
	.file	"hevc.c"
@ GNU C (Hisilicon_v200(gcc4.4-290+glibc-2.11+eabi+nptl)) version 4.4.1 (arm-hisiv200-linux-gnueabi)
@	compiled by GNU C version 4.1.1 20061011 (Red Hat 4.1.1-30), GMP version 4.3.1, MPFR version 2.4.2.
@ GGC heuristics: --param ggc-min-expand=100 --param ggc-min-heapsize=131072
@ options passed:  -nostdinc
@ -I/home/tangxiaodi/HiSTBAndroidV5/images_and_tools/release/hi3798mv100/verify/maintain_spc062/HiSTBAndroidV5_release/HiSTBAndroidV600R001C00SPC064/device/hisilicon/bigfish/sdk/source/kernel/linux-3.10.y/arch/arm/include
@ -Iarch/arm/include/generated
@ -I/home/tangxiaodi/HiSTBAndroidV5/images_and_tools/release/hi3798mv100/verify/maintain_spc062/HiSTBAndroidV5_release/HiSTBAndroidV600R001C00SPC064/device/hisilicon/bigfish/sdk/source/kernel/linux-3.10.y/include
@ -Iinclude
@ -I/home/tangxiaodi/HiSTBAndroidV5/images_and_tools/release/hi3798mv100/verify/maintain_spc062/HiSTBAndroidV5_release/HiSTBAndroidV600R001C00SPC064/device/hisilicon/bigfish/sdk/source/kernel/linux-3.10.y/arch/arm/include/uapi
@ -Iarch/arm/include/generated/uapi
@ -I/home/tangxiaodi/HiSTBAndroidV5/images_and_tools/release/hi3798mv100/verify/maintain_spc062/HiSTBAndroidV5_release/HiSTBAndroidV600R001C00SPC064/device/hisilicon/bigfish/sdk/source/kernel/linux-3.10.y/include/uapi
@ -Iinclude/generated/uapi
@ -I/home/tangxiaodi/HiSTBAndroidV5/images_and_tools/release/hi3798mv100/verify/maintain_spc062/HiSTBAndroidV5_release/HiSTBAndroidV600R001C00SPC064/device/hisilicon/bigfish/sdk/source/kernel/linux-3.10.y/drivers/msp/vfmw/vfmw_v4.0
@ -Idrivers/msp/vfmw/vfmw_v4.0
@ -I/home/tangxiaodi/HiSTBAndroidV5/images_and_tools/release/hi3798mv100/verify/maintain_spc062/HiSTBAndroidV5_release/HiSTBAndroidV600R001C00SPC064/device/hisilicon/bigfish/sdk/source/kernel/linux-3.10.y/arch/arm/mach-hi3798mx/include
@ -I/home/tangxiaodi/HiSTBAndroidV5/images_and_tools/release/hi3798mv100/verify/maintain_spc062/HiSTBAndroidV5_release/HiSTBAndroidV600R001C00SPC064/device/hisilicon/bigfish/sdk/source/kernel/linux-3.10.y/../../../source/common/include
@ -I/home/tangxiaodi/HiSTBAndroidV5/images_and_tools/release/hi3798mv100/verify/maintain_spc062/HiSTBAndroidV5_release/HiSTBAndroidV600R001C00SPC064/device/hisilicon/bigfish/sdk/source/kernel/linux-3.10.y/../../../source/common/drv/include
@ -I/home/tangxiaodi/HiSTBAndroidV5/images_and_tools/release/hi3798mv100/verify/maintain_spc062/HiSTBAndroidV5_release/HiSTBAndroidV600R001C00SPC064/device/hisilicon/bigfish/sdk/source/kernel/linux-3.10.y/../../../source/msp/drv/vfmw/vfmw_v4.0
@ -I/home/tangxiaodi/HiSTBAndroidV5/images_and_tools/release/hi3798mv100/verify/maintain_spc062/HiSTBAndroidV5_release/HiSTBAndroidV600R001C00SPC064/device/hisilicon/bigfish/sdk/source/kernel/linux-3.10.y/../../../source/msp/drv/vfmw/vfmw_v4.0/scene/stb
@ -I/home/tangxiaodi/HiSTBAndroidV5/images_and_tools/release/hi3798mv100/verify/maintain_spc062/HiSTBAndroidV5_release/HiSTBAndroidV600R001C00SPC064/device/hisilicon/bigfish/sdk/source/kernel/linux-3.10.y/../../../source/msp/drv/vfmw/vfmw_v4.0/firmware/common
@ -I/home/tangxiaodi/HiSTBAndroidV5/images_and_tools/release/hi3798mv100/verify/maintain_spc062/HiSTBAndroidV5_release/HiSTBAndroidV600R001C00SPC064/device/hisilicon/bigfish/sdk/source/kernel/linux-3.10.y/../../../source/msp/drv/vfmw/vfmw_v4.0/firmware/osal/linux_kernel
@ -I/home/tangxiaodi/HiSTBAndroidV5/images_and_tools/release/hi3798mv100/verify/maintain_spc062/HiSTBAndroidV5_release/HiSTBAndroidV600R001C00SPC064/device/hisilicon/bigfish/sdk/source/kernel/linux-3.10.y/../../../source/msp/drv/vfmw/vfmw_v4.0/firmware/common/softlib
@ -I/home/tangxiaodi/HiSTBAndroidV5/images_and_tools/release/hi3798mv100/verify/maintain_spc062/HiSTBAndroidV5_release/HiSTBAndroidV600R001C00SPC064/device/hisilicon/bigfish/sdk/source/kernel/linux-3.10.y/../../../source/msp/drv/vfmw/vfmw_v4.0/firmware/common/syntax
@ -I/home/tangxiaodi/HiSTBAndroidV5/images_and_tools/release/hi3798mv100/verify/maintain_spc062/HiSTBAndroidV5_release/HiSTBAndroidV600R001C00SPC064/device/hisilicon/bigfish/sdk/source/kernel/linux-3.10.y/../../../source/msp/drv/vfmw/vfmw_v4.0/firmware/driver/HiSCDV200
@ -I/home/tangxiaodi/HiSTBAndroidV5/images_and_tools/release/hi3798mv100/verify/maintain_spc062/HiSTBAndroidV5_release/HiSTBAndroidV600R001C00SPC064/device/hisilicon/bigfish/sdk/source/kernel/linux-3.10.y/../../../source/msp/drv/vfmw/vfmw_v4.0/firmware/driver/HiVDHV300R001
@ -I/home/tangxiaodi/HiSTBAndroidV5/images_and_tools/release/hi3798mv100/verify/maintain_spc062/HiSTBAndroidV5_release/HiSTBAndroidV600R001C00SPC064/device/hisilicon/bigfish/sdk/source/kernel/linux-3.10.y/../../../source/msp/drv/vfmw/vfmw_v4.0/firmware/product/Hi3798MV100
@ -I/home/tangxiaodi/HiSTBAndroidV5/images_and_tools/release/hi3798mv100/verify/maintain_spc062/HiSTBAndroidV5_release/HiSTBAndroidV600R001C00SPC064/device/hisilicon/bigfish/sdk/source/kernel/linux-3.10.y/../../../source/msp/drv/vfmw/vfmw_v4.0/firmware/common_test/vdecko
@ -imultilib armv7a_soft -iprefix
@ /opt/hisi-linux/x86-arm/arm-hisiv200-linux/bin/../lib/gcc/arm-hisiv200-linux-gnueabi/4.4.1/
@ -isysroot /opt/hisi-linux/x86-arm/arm-hisiv200-linux/bin/../target
@ -D__KERNEL__ -D__LINUX_ARM_ARCH__=7 -Uarm -DCHIP_TYPE_hi3796mv100
@ -DSDK_VERSION=HiSTBAndroidV600R001C00SPC064_v2016061301 -DHI_MCE_SUPPORT
@ -DHI_GPIOI2C_SUPPORT -DHI_LOG_SUPPORT=1 -DHI_LOG_LEVEL=4
@ -DHI_PROC_SUPPORT=1 -DHI_HDMI_SUPPORT_1_4 -DHI_KEYLED_SUPPORT
@ -DHI_HDCP_SUPPORT -DHI_SCI_SUPPORT -DHI_PVR_SUPPORT -DHI_VI_SUPPORT
@ -DHI_VENC_SUPPORT -DHI_AENC_SUPPORT -DHI_PQ_V3_0 -DENV_ARMLINUX_KERNEL
@ -DDNR_DISABLE -DSCD_MP4_SLICE_ENABLE -DSUPPORT_JPEG_444
@ -DVFMW_EXTRA_TYPE_DEFINE -DPRODUCT_STB -D__VFMW_REGISTER_ISR__
@ -DQ_MATRIX_FIXED -DVFMW_VDH_V300R001_SUPPORT -DCFG_SCD_TIME_OUT=2000
@ -DCFG_VDH_TIME_OUT=500 -DVFMW_H264_SUPPORT -DVFMW_HEVC_SUPPORT
@ -DVFMW_MVC_SUPPORT -DVFMW_MPEG2_SUPPORT -DVFMW_MPEG4_SUPPORT
@ -DVFMW_AVS_SUPPORT -DVFMW_VC1_SUPPORT -DVFMW_BPD_H_SUPPORT
@ -DVFMW_REAL8_SUPPORT -DVFMW_REAL9_SUPPORT -DVFMW_VP6_SUPPORT
@ -DVFMW_VP8_SUPPORT -DVFMW_DIVX3_SUPPORT -DVFMW_H263_SUPPORT
@ -DVFMW_JPEG_SUPPORT -DVFMW_RAW_SUPPORT -DVFMW_USER_SUPPORT
@ -DCFG_MAX_CHAN_NUM=16 -DVFMW_DPRINT_SUPPORT -DVFMW_SCD_LOWDLY_SUPPORT
@ -DVFMW_AVSPLUS_SUPPORT -DVFMW_MODULE_LOWDLY_SUPPORT
@ -DVFMW_SYSTEM_REG_DISABLE -DHI_VDEC_SVDEC_BUILTIN -DKBUILD_STR(s)=#s
@ -DKBUILD_BASENAME=KBUILD_STR(hevc) -DKBUILD_MODNAME=KBUILD_STR(hi_vfmw)
@ -isystem
@ /opt/hisi-linux/x86-arm/arm-hisiv200-linux/bin/../lib/gcc/arm-hisiv200-linux-gnueabi/4.4.1/include
@ -include
@ /home/tangxiaodi/HiSTBAndroidV5/images_and_tools/release/hi3798mv100/verify/maintain_spc062/HiSTBAndroidV5_release/HiSTBAndroidV600R001C00SPC064/device/hisilicon/bigfish/sdk/source/kernel/linux-3.10.y/include/linux/kconfig.h
@ -MD drivers/msp/vfmw/vfmw_v4.0/firmware/common/syntax/.hevc.o.d
@ /home/tangxiaodi/HiSTBAndroidV5/images_and_tools/release/hi3798mv100/verify/maintain_spc062/HiSTBAndroidV5_release/HiSTBAndroidV600R001C00SPC064/device/hisilicon/bigfish/sdk/source/kernel/linux-3.10.y/drivers/msp/vfmw/vfmw_v4.0/firmware/common/syntax/hevc.c
@ -mlittle-endian -mapcs -mno-sched-prolog -mabi=aapcs-linux
@ -mno-thumb-interwork -marm -march=armv7-a -msoft-float -auxbase-strip
@ drivers/msp/vfmw/vfmw_v4.0/firmware/common/syntax/hevc.o -O2 -Wall
@ -Wundef -Wstrict-prototypes -Wno-trigraphs
@ -Werror-implicit-function-declaration -Wno-format-security
@ -Wframe-larger-than=1024 -Wdeclaration-after-statement -Wno-pointer-sign
@ -p -fno-strict-aliasing -fno-common -fno-delete-null-pointer-checks
@ -fno-dwarf2-cfi-asm -funwind-tables -fno-stack-protector
@ -fno-omit-frame-pointer -fno-optimize-sibling-calls -fno-strict-overflow
@ -fconserve-stack -fno-pic -fverbose-asm
@ options enabled:  -falign-loops -fargument-alias -fauto-inc-dec
@ -fbranch-count-reg -fcaller-saves -fcprop-registers -fcrossjumping
@ -fcse-follow-jumps -fdefer-pop -fearly-inlining
@ -feliminate-unused-debug-types -fexpensive-optimizations
@ -fforward-propagate -ffunction-cse -fgcse -fgcse-lm
@ -fguess-branch-probability -fident -fif-conversion -fif-conversion2
@ -findirect-inlining -finline -finline-functions-called-once
@ -finline-small-functions -fipa-cp -fipa-pure-const -fipa-reference
@ -fira-share-save-slots -fira-share-spill-slots -fivopts
@ -fkeep-static-consts -fleading-underscore -fmath-errno -fmerge-constants
@ -fmerge-debug-strings -fmove-loop-invariants -foptimize-register-move
@ -fpeephole -fpeephole2 -fprofile -fpromote-loop-indices
@ -freg-struct-return -fregmove -frename-registers -freorder-blocks
@ -freorder-functions -frerun-cse-after-loop -fsched-interblock
@ -fsched-spec -fsched-stalled-insns-dep -fschedule-insns -fschedule-insns2
@ -fsection-anchors -fsigned-zeros -fsplit-ivs-in-unroller
@ -fsplit-wide-types -fthread-jumps -ftoplevel-reorder -ftrapping-math
@ -ftree-builtin-call-dce -ftree-ccp -ftree-ch -ftree-copy-prop
@ -ftree-copyrename -ftree-cselim -ftree-dce -ftree-dominator-opts
@ -ftree-dse -ftree-fre -ftree-loop-im -ftree-loop-ivcanon
@ -ftree-loop-optimize -ftree-parallelize-loops= -ftree-pre -ftree-reassoc
@ -ftree-scev-cprop -ftree-sink -ftree-sra -ftree-switch-conversion
@ -ftree-ter -ftree-vect-loop-version -ftree-vrp -funit-at-a-time
@ -funroll-loops -funwind-tables -fverbose-asm -fweb
@ -fzero-initialized-in-bss -mapcs-frame -mglibc -mlittle-endian

@ Compiler executable checksum: fa59e0bd179ef45b3a3c3e6f3383fdac

	.global	__aeabi_uidiv
	.text
	.align	2
	.global	HEVC_InitSigLastScan
	.type	HEVC_InitSigLastScan, %function
HEVC_InitSigLastScan:
	.fnstart
.LFB1529:
	@ args = 16, pretend = 0, frame = 120
	@ frame_needed = 1, uses_anonymous_args = 0
	.movsp ip
	mov	ip, sp	@,
	stmfd	sp!, {r4, r5, r6, r7, r8, r9, sl, fp, ip, lr, pc}	@,
	.pad #4
	.save {r4, r5, r6, r7, r8, r9, sl, fp, ip, lr}
	.setfp fp, ip, #-4
	sub	fp, ip, #4	@,,
	.pad #124
	sub	sp, sp, #124	@,,
	push	{lr}
	bl	__gnu_mcount_nc
	ldr	r4, [fp, #8]	@ iWidth, iWidth
	mov	sl, r0	@ pHevcCtx, pHevcCtx
	str	r2, [fp, #-64]	@ pBuffH, %sfp
	cmp	r4, #15	@ iWidth,
	str	r3, [fp, #-156]	@ pBuffV, %sfp
	ldr	r9, [fp, #4]	@ pBuffD, pBuffD
	ldr	r6, [fp, #12]	@ iHeight, iHeight
	bgt	.L2	@,
	cmp	r4, #8	@ iWidth,
	addeq	r0, r0, #300	@, pHevcCtx,
	streq	r0, [fp, #-60]	@, %sfp
	moveq	r8, #64	@ uiNumScanPos,
	beq	.L4	@,
	mul	r8, r4, r4	@ uiNumScanPos, iWidth, iWidth
	cmp	r8, #0	@ uiNumScanPos,
	beq	.L5	@,
	str	r9, [fp, #-60]	@ pBuffD, %sfp
.L4:
	mov	r7, #0	@ uiScanLine,
	rsb	r5, r4, #1	@ D.48670, iWidth,
	mov	r0, r7	@ uiNextScanPos.1138, uiScanLine
	mov	r3, r7	@ iPrimDim.1134, uiScanLine
.L6:
	cmp	r4, r7	@ iWidth, uiScanLine
	movgt	r2, #0	@ iScndDim.1135,
	bgt	.L11	@,
	rsb	r1, r4, r3	@ tmp401, iWidth, iPrimDim.1134
	sub	r3, r3, #1	@ iPrimDim.1134, iPrimDim.1134,
	cmp	r4, r3	@ iWidth, iPrimDim.1134
	and	r1, r1, #1	@ tmp402, tmp401,
	mov	r2, #1	@ iScndDim.1135,
	bgt	.L11	@,
	cmp	r1, #0	@ tmp402,
	beq	.L7	@,
	sub	r3, r3, #1	@ iPrimDim.1134, iPrimDim.1134,
	mov	r2, #2	@ iScndDim.1135,
	cmp	r4, r3	@ iWidth, iPrimDim.1134
	bgt	.L11	@,
.L7:
	sub	r3, r3, #2	@ iPrimDim.1134, iPrimDim.1134,
	add	r2, r2, #2	@ iScndDim.1135, iScndDim.1135,
	cmp	r4, r3	@ iWidth, iPrimDim.1134
	ble	.L7	@,
.L11:
	cmp	r3, #0	@ iPrimDim.1134,
	cmpge	r4, r2	@, iWidth, iScndDim.1135
	ble	.L8	@,
	mla	ip, r4, r3, r2	@, iWidth, iPrimDim.1134, iScndDim.1135
	ldr	r1, [fp, #-60]	@, %sfp
	str	ip, [fp, #-48]	@, %sfp
	add	ip, r1, r0, asl #2	@, ivtmp.1113,, uiNextScanPos.1138,
	ldr	r1, [fp, #-48]	@ ivtmp.1111, %sfp
.L9:
	add	r2, r2, #1	@ iScndDim.1135, iScndDim.1135,
	sub	r3, r3, #1	@ iPrimDim.1134, iPrimDim.1134,
	cmp	r3, #0	@ iPrimDim.1134,
	cmpge	r4, r2	@, iWidth, iScndDim.1135
	str	r1, [ip], #4	@ ivtmp.1111,
	add	r0, r0, #1	@ uiNextScanPos.1138, uiNextScanPos.1138,
	add	r1, r1, r5	@ ivtmp.1111, ivtmp.1111, D.48670
	bgt	.L9	@,
.L8:
	cmp	r8, r0	@ uiNumScanPos, uiNextScanPos.1138
	bls	.L5	@,
	add	r7, r7, #1	@ uiScanLine, uiScanLine,
	mov	r3, r7	@ iPrimDim.1134, uiScanLine
	b	.L6	@
.L2:
	mov	r0, r4, asr #2	@, iWidth,
	str	r0, [fp, #-60]	@, %sfp
	ldr	r5, [fp, #-60]	@, %sfp
	add	r2, r0, sl	@ tmp280,, pHevcCtx
	ldrsb	r2, [r2, #8]	@ tmp282, <variable>.aucConvertToBit
	mul	r3, r5, r5	@ uiNumBlks,,
	cmp	r3, #0	@ uiNumBlks,
	beq	.L13	@,
	add	r7, sl, r2, asl #16	@, tmp287, pHevcCtx, tmp282,
	movw	r5, #:lower16:1443980	@,
	movt	r5, #:upper16:1443980	@,
	mov	r3, r3, asl #4	@, uiNumBlks,
	add	r6, r7, r5	@, tmp287,
	rsb	r5, r4, #1	@ D.48605, iWidth,
	str	r6, [fp, #-48]	@, %sfp
	mov	r6, #0	@ ivtmp.1082,
	str	r3, [fp, #-56]	@, %sfp
	str	sl, [fp, #-52]	@ pHevcCtx, %sfp
.L20:
	cmp	r4, #32	@ iWidth,
	ldr	lr, [fp, #-48]	@, %sfp
	ldr	r1, [fp, #-60]	@, %sfp
	ldreq	ip, [fp, #-52]	@, %sfp
	ldr	r8, [lr, #0]	@ initBlkPos, <variable>.auiSigLastScan
	ldreq	r8, [ip, #300]	@ initBlkPos, <variable>.sigLastScanCG32x32
	mov	r0, r8	@, initBlkPos
	bl	__aeabi_uidiv	@
	ldr	sl, [fp, #-60]	@, %sfp
	mla	r1, r4, r0, r8	@ tmp292, iWidth, tmp290, initBlkPos
	mov	r8, #0	@ uiScanLine.1127,
	mov	ip, r8	@ uiNextScanPos, uiScanLine.1127
	mov	r2, r8	@ iScndDim, uiScanLine.1127
	mov	r3, r8	@ iPrimDim, uiScanLine.1127
	mls	r0, sl, r0, r1	@ tmp294,, tmp290, tmp292
	mov	sl, r0, asl #2	@ offsetD, tmp294,
.L69:
	cmp	r2, #3	@ iScndDim,
	movgt	r7, #0	@, tmp303
	movle	r7, #1	@, tmp303
	cmp	r3, #0	@ iPrimDim,
	movlt	r7, #0	@, tmp303,
	cmp	r7, #0	@ tmp303,
	beq	.L16	@,
	mla	r1, r4, r3, r2	@ tmp305, iWidth, iPrimDim, iScndDim
	add	r0, ip, r6	@ tmp306, uiNextScanPos, ivtmp.1082
	add	r0, r9, r0, asl #2	@, ivtmp.1070, pBuffD, tmp306,
	add	r1, r1, sl	@ ivtmp.1068, tmp305, offsetD
.L17:
	add	r2, r2, #1	@ iScndDim, iScndDim,
	sub	r3, r3, #1	@ iPrimDim, iPrimDim,
	cmp	r2, #3	@ iScndDim,
	movgt	lr, #0	@, tmp316
	movle	lr, #1	@, tmp316
	cmp	r3, #0	@ iPrimDim,
	str	r1, [r0], #4	@ ivtmp.1068,
	add	ip, ip, #1	@ uiNextScanPos, uiNextScanPos,
	movlt	lr, #0	@, tmp316,
	cmp	lr, #0	@ tmp316,
	add	r1, r1, r5	@ ivtmp.1068, ivtmp.1068, D.48605
	bne	.L17	@,
.L16:
	cmp	ip, #15	@ uiNextScanPos,
	bhi	.L18	@,
	add	r8, r8, #1	@ uiScanLine.1127, uiScanLine.1127,
	cmp	r8, #3	@ uiScanLine.1127,
	movle	r3, r8	@ iPrimDim, uiScanLine.1127
	movle	r2, #0	@ iScndDim,
	subgt	r2, r8, #3	@ iScndDim, uiScanLine.1127,
	movgt	r3, #3	@ iPrimDim,
	b	.L69	@
.L18:
	ldr	r3, [fp, #-56]	@, %sfp
	add	r6, r6, #16	@ ivtmp.1082, ivtmp.1082,
	ldr	r1, [fp, #-48]	@, %sfp
	ldr	r2, [fp, #-52]	@, %sfp
	cmp	r6, r3	@ ivtmp.1082,
	add	r7, r1, #4	@,,
	str	r7, [fp, #-48]	@, %sfp
	add	r7, r2, #4	@,,
	str	r7, [fp, #-52]	@, %sfp
	bne	.L20	@,
.L13:
	ldr	ip, [fp, #-60]	@, %sfp
	cmp	ip, #0	@,
	ble	.L35	@,
	mov	r7, #3	@ tmp319,
	mov	sl, ip, asl #6	@,,
	mul	r3, r7, r4	@, tmp319, iWidth
	ldr	r7, [fp, #-64]	@ ivtmp.1054, %sfp
	add	r0, r4, #1	@ tmp318, iWidth,
	mov	r5, r4, asl #1	@, iWidth,
	mov	r2, #0	@,
	mov	r9, r4, asl #2	@ D.48577, iWidth,
	mov	r8, r0, asl #1	@, tmp318,
	mov	r6, #0	@,
	str	r5, [fp, #-124]	@, %sfp
	str	r3, [fp, #-120]	@, %sfp
	ldr	ip, [fp, #-120]	@, %sfp
	str	r2, [fp, #-84]	@, %sfp
	str	r8, [fp, #-140]	@, %sfp
	str	sl, [fp, #-152]	@, %sfp
	str	r5, [fp, #-132]	@, %sfp
	str	r5, [fp, #-116]	@, %sfp
	str	r6, [fp, #-144]	@, %sfp
	str	ip, [fp, #-92]	@, %sfp
	str	r9, [fp, #-136]	@ D.48577, %sfp
	str	r4, [fp, #-148]	@ iWidth, %sfp
.L25:
	ldr	r1, [fp, #-84]	@, %sfp
	mov	r9, #1	@ blkX,
	ldr	sl, [fp, #-148]	@, %sfp
	ldr	r4, [fp, #-60]	@, %sfp
	add	r6, r1, #2	@ ivtmp.1019,,
	add	r5, r1, sl	@ ivtmp.1023,,
	str	r6, [r7, #8]	@ ivtmp.1019,
	str	r1, [r7, #0]	@,* ivtmp.1054
	add	r8, r1, r9	@ tmp437,,
	str	r5, [r7, #16]	@ ivtmp.1023,
	add	r2, r1, #3	@ tmp439,,
	str	r8, [r7, #4]	@ tmp437,
	sub	r3, r4, #1	@ tmp379,,
	str	r2, [r7, #12]	@ tmp439,
	add	ip, r5, r9	@ tmp440, ivtmp.1023,
	add	r0, r5, #2	@ tmp441, ivtmp.1023,
	str	ip, [r7, #20]	@ tmp440,
	str	r0, [r7, #24]	@ tmp441,
	cmp	r9, r4	@ blkX,
	add	r4, r5, #3	@ tmp442, ivtmp.1023,
	str	r4, [r7, #28]	@ tmp442,
	ldr	r4, [fp, #-116]	@, %sfp
	and	r3, r3, r9	@ tmp381, tmp379,
	add	r6, r4, r9	@ tmp443,,
	add	r8, r4, #3	@ tmp444,,
	str	r6, [r7, #36]	@ tmp443,
	str	r8, [r7, #44]	@ tmp444,
	ldr	r8, [fp, #-92]	@, %sfp
	add	r2, r8, r9	@ tmp445,,
	add	ip, r8, #2	@ tmp446,,
	str	r2, [r7, #52]	@ tmp445,
	add	r0, r8, #3	@ tmp447,,
	str	ip, [r7, #56]	@ tmp446,
	add	r2, r7, #68	@, ivtmp.1054,
	str	r0, [r7, #60]	@ tmp447,
	str	sl, [fp, #-128]	@, %sfp
	str	r4, [r7, #32]	@,
	add	r4, r1, #4	@ ivtmp.1169,,
	ldr	r6, [fp, #-140]	@, %sfp
	str	r8, [r7, #48]	@,
	str	r6, [r7, #40]	@,
	mov	r6, #64	@ ivtmp.1016,
	ldr	ip, [fp, #-84]	@, %sfp
	ldr	r1, [fp, #-140]	@, %sfp
	str	r2, [fp, #-56]	@, %sfp
	add	r0, ip, #6	@,,
	ldr	r8, [fp, #-116]	@, %sfp
	add	sl, r1, #4	@,,
	ldr	r2, [fp, #-92]	@, %sfp
	str	r0, [fp, #-52]	@, %sfp
	add	ip, r8, #4	@ ivtmp.1160,,
	add	r0, r5, #4	@ ivtmp.1023, ivtmp.1023,
	str	sl, [fp, #-48]	@, %sfp
	add	r1, r2, #4	@ ivtmp.1155,,
	beq	.L70	@,
	cmp	r3, #0	@ tmp381,
	beq	.L79	@,
	ldr	r3, [fp, #-60]	@, %sfp
	mov	r9, #2	@ blkX,
	add	r8, r5, #7	@ tmp517, ivtmp.1023,
	cmp	r9, r3	@ blkX,
	mov	r3, r7	@ D.48510, ivtmp.1054
	str	r4, [r3, r6]!	@ ivtmp.1169,
	add	r4, r4, #4	@ ivtmp.1169, ivtmp.1169,
	ldr	sl, [fp, #-56]	@, %sfp
	ldr	r6, [fp, #-84]	@, %sfp
	add	r2, r6, #5	@ tmp512,,
	str	r2, [sl, #0]	@ tmp512,
	ldr	sl, [fp, #-52]	@, %sfp
	add	r2, r6, #7	@ tmp514,,
	str	r8, [r3, #28]	@ tmp517,
	add	r8, r5, #5	@ tmp515, ivtmp.1023,
	str	r2, [r3, #12]	@ tmp514,
	add	r5, r5, #6	@ tmp516, ivtmp.1023,
	str	sl, [r3, #8]	@,
	str	r8, [r3, #20]	@ tmp515,
	ldr	r6, [fp, #-116]	@, %sfp
	str	r5, [r3, #24]	@ tmp516,
	add	sl, r6, #5	@ tmp518,,
	str	sl, [r3, #36]	@ tmp518,
	ldr	sl, [fp, #-92]	@, %sfp
	add	r8, r6, #7	@ tmp519,,
	str	r8, [r3, #44]	@ tmp519,
	add	r8, r7, #132	@, ivtmp.1054,
	add	r2, sl, #5	@ tmp520,,
	add	r5, sl, #6	@ tmp521,,
	str	r2, [r3, #52]	@ tmp520,
	add	r6, sl, #7	@ tmp522,,
	str	r5, [r3, #56]	@ tmp521,
	str	r6, [r3, #60]	@ tmp522,
	mov	r6, #128	@ ivtmp.1016,
	str	r8, [fp, #-56]	@, %sfp
	str	r0, [r3, #16]	@ ivtmp.1023,
	add	r0, r0, #4	@ ivtmp.1023, ivtmp.1023,
	str	ip, [r3, #32]	@ ivtmp.1160,
	add	ip, ip, #4	@ ivtmp.1160, ivtmp.1160,
	ldr	sl, [fp, #-48]	@, %sfp
	add	r2, sl, #4	@,,
	str	sl, [r3, #40]	@,
	str	r2, [fp, #-48]	@, %sfp
	str	r1, [r3, #48]	@ ivtmp.1155,
	add	r1, r1, #4	@ ivtmp.1155, ivtmp.1155,
	ldr	r5, [fp, #-84]	@, %sfp
	add	r8, r5, #10	@,,
	str	r8, [fp, #-52]	@, %sfp
	beq	.L70	@,
.L79:
	str	r7, [fp, #-88]	@ ivtmp.1054, %sfp
.L26:
	ldr	r2, [fp, #-52]	@, %sfp
	add	r9, r9, #2	@ blkX, blkX,
	ldr	r5, [fp, #-48]	@, %sfp
	add	r8, r6, #64	@ tmp384, ivtmp.1016,
	add	sl, r2, #4	@,,
	ldr	r2, [fp, #-88]	@ D.48510, %sfp
	add	r3, r5, #4	@,,
	ldr	r5, [fp, #-56]	@ tmp385, %sfp
	ldr	r7, [fp, #-60]	@, %sfp
	str	sl, [fp, #-64]	@, %sfp
	add	sl, r4, #4	@ tmp383, ivtmp.1169,
	str	r3, [fp, #-76]	@, %sfp
	cmp	r9, r7	@ blkX,
	mov	r3, r2	@ D.48510, D.48510
	add	r7, r0, #4	@, ivtmp.1023,
	str	r7, [fp, #-68]	@, %sfp
	add	r7, ip, #4	@, ivtmp.1160,
	str	r7, [fp, #-72]	@, %sfp
	add	r7, r1, #4	@, ivtmp.1155,
	str	r7, [fp, #-80]	@, %sfp
	add	r7, r4, #7	@, ivtmp.1169,
	str	r4, [r2, r6]!	@ ivtmp.1169,
	add	r6, r0, #7	@, ivtmp.1023,
	str	r7, [fp, #-96]	@, %sfp
	add	r7, ip, #7	@, ivtmp.1160,
	str	r6, [fp, #-104]	@, %sfp
	add	r6, r1, #7	@, ivtmp.1155,
	str	r7, [fp, #-108]	@, %sfp
	add	r7, r4, #1	@ tmp320, ivtmp.1169,
	str	r6, [fp, #-112]	@, %sfp
	add	r6, r8, #64	@ ivtmp.1016, tmp384,
	str	r7, [r5], #64	@ tmp320,
	ldr	r7, [fp, #-52]	@, %sfp
	str	r7, [r2, #8]	@,
	ldr	r7, [fp, #-64]	@, %sfp
	add	r7, r7, #4	@,,
	str	r7, [fp, #-52]	@, %sfp
	str	r0, [r2, #16]	@ ivtmp.1023,
	add	r7, r4, #3	@ tmp321, ivtmp.1169,
	add	r4, r4, #5	@, ivtmp.1169,
	str	r7, [r2, #12]	@ tmp321,
	add	r7, r0, #1	@ tmp322, ivtmp.1023,
	str	r7, [r2, #20]	@ tmp322,
	add	r7, r0, #2	@ tmp323, ivtmp.1023,
	str	r7, [r2, #24]	@ tmp323,
	add	r7, r0, #3	@ tmp324, ivtmp.1023,
	str	r7, [r2, #28]	@ tmp324,
	add	r7, ip, #1	@ tmp325, ivtmp.1160,
	str	r7, [r2, #36]	@ tmp325,
	add	r7, ip, #3	@ tmp326, ivtmp.1160,
	str	r7, [r2, #44]	@ tmp326,
	add	r7, r1, #1	@ tmp327, ivtmp.1155,
	str	r7, [r2, #52]	@ tmp327,
	add	r7, r1, #2	@ tmp328, ivtmp.1155,
	str	r7, [r2, #56]	@ tmp328,
	add	r7, r1, #3	@ tmp329, ivtmp.1155,
	str	r7, [r2, #60]	@ tmp329,
	str	r4, [fp, #-160]	@, %sfp
	add	r4, sl, #4	@ ivtmp.1169, tmp383,
	str	ip, [r2, #32]	@ ivtmp.1160,
	ldr	r7, [fp, #-48]	@, %sfp
	str	r7, [r2, #40]	@,
	ldr	r7, [fp, #-76]	@, %sfp
	add	r7, r7, #4	@,,
	str	r7, [fp, #-48]	@, %sfp
	str	r1, [r2, #48]	@ ivtmp.1155,
	add	r2, r0, #5	@, ivtmp.1023,
	str	r2, [fp, #-100]	@, %sfp
	add	r2, r0, #6	@ tmp421, ivtmp.1023,
	str	sl, [r3, r8]!	@ tmp383,
	ldr	r7, [fp, #-56]	@, %sfp
	ldr	r0, [fp, #-160]	@, %sfp
	str	r0, [r7, #64]	@,
	add	r7, r5, #64	@, tmp385,
	ldr	r8, [fp, #-112]	@, %sfp
	ldr	sl, [fp, #-68]	@, %sfp
	str	r8, [r3, #60]	@,
	add	r0, sl, #4	@ ivtmp.1023,,
	ldr	sl, [fp, #-96]	@, %sfp
	str	r7, [fp, #-56]	@, %sfp
	add	r7, ip, #5	@ tmp423, ivtmp.1160,
	str	sl, [r3, #12]	@,
	ldr	ip, [fp, #-100]	@, %sfp
	str	ip, [r3, #20]	@,
	ldr	r5, [fp, #-72]	@, %sfp
	str	r2, [r3, #24]	@ tmp421,
	ldr	r8, [fp, #-104]	@, %sfp
	add	ip, r5, #4	@ ivtmp.1160,,
	str	r7, [r3, #36]	@ tmp423,
	add	r5, r1, #5	@ tmp425, ivtmp.1155,
	str	r8, [r3, #28]	@,
	add	r8, r1, #6	@ tmp426, ivtmp.1155,
	ldr	sl, [fp, #-108]	@, %sfp
	ldr	r2, [fp, #-80]	@, %sfp
	str	r5, [r3, #52]	@ tmp425,
	str	sl, [r3, #44]	@,
	add	r1, r2, #4	@ ivtmp.1155,,
	str	r8, [r3, #56]	@ tmp426,
	ldr	r7, [fp, #-64]	@, %sfp
	str	r7, [r3, #8]	@,
	ldr	r2, [fp, #-68]	@, %sfp
	str	r2, [r3, #16]	@,
	ldr	r8, [fp, #-72]	@, %sfp
	str	r8, [r3, #32]	@,
	ldr	sl, [fp, #-76]	@, %sfp
	str	sl, [r3, #40]	@,
	ldr	r5, [fp, #-80]	@, %sfp
	str	r5, [r3, #48]	@,
	bne	.L26	@,
	ldr	r7, [fp, #-88]	@ ivtmp.1054, %sfp
.L70:
	ldr	r8, [fp, #-144]	@, %sfp
	ldr	ip, [fp, #-84]	@, %sfp
	add	r2, r8, #1	@,,
	ldr	sl, [fp, #-60]	@, %sfp
	ldr	r8, [fp, #-136]	@, %sfp
	ldr	r3, [fp, #-116]	@, %sfp
	cmp	r2, sl	@,
	add	r1, ip, r8	@,,
	ldr	r4, [fp, #-140]	@, %sfp
	ldr	ip, [fp, #-92]	@, %sfp
	add	r6, r3, r8	@,,
	ldr	r5, [fp, #-152]	@, %sfp
	add	r0, r4, r8	@,,
	str	r1, [fp, #-84]	@, %sfp
	add	r1, ip, r8	@,,
	str	r2, [fp, #-144]	@, %sfp
	add	r7, r7, r5	@ ivtmp.1054, ivtmp.1054,
	str	r6, [fp, #-116]	@, %sfp
	str	r0, [fp, #-140]	@, %sfp
	str	r1, [fp, #-92]	@, %sfp
	bne	.L25	@,
	ldr	ip, [fp, #-148]	@ iWidth, %sfp
	mov	r0, #3	@ tmp330,
	ldr	r1, [fp, #-136]	@ D.48577, %sfp
	mov	r5, #2	@,
	ldr	r6, [fp, #-156]	@ ivtmp.1004, %sfp
	mov	r7, #0	@,
	mul	sl, r0, ip	@, tmp330, iWidth
	str	r5, [fp, #-100]	@, %sfp
	str	r7, [fp, #-96]	@, %sfp
	str	sl, [fp, #-104]	@, %sfp
.L28:
	ldr	r2, [fp, #-96]	@, %sfp
	mov	r5, #1	@,
	ldr	r0, [fp, #-60]	@, %sfp
	str	r5, [fp, #-64]	@, %sfp
	mov	r4, r2, asl #2	@ ivtmp.960,,
	str	r4, [r6, #0]	@ ivtmp.960,* ivtmp.1004
	ldr	r7, [fp, #-128]	@, %sfp
	cmp	r5, r0	@,
	sub	r8, r0, #1	@ tmp374,,
	and	r8, r8, r5	@ tmp376, tmp374,
	add	r5, r4, r1	@ ivtmp.960, ivtmp.960, D.48577
	str	r7, [r6, #4]	@,
	ldr	r3, [fp, #-132]	@, %sfp
	str	r3, [r6, #8]	@,
	add	r3, r7, #2	@,,
	ldr	sl, [fp, #-120]	@, %sfp
	str	r3, [fp, #-80]	@, %sfp
	str	sl, [r6, #12]	@,
	ldr	r0, [fp, #-100]	@, %sfp
	ldr	ip, [fp, #-124]	@, %sfp
	add	r2, ip, #2	@,,
	str	r2, [fp, #-76]	@, %sfp
	str	r0, [r6, #32]	@,
	add	ip, r4, #1	@ tmp477, ivtmp.960,
	ldr	r7, [fp, #-104]	@, %sfp
	add	sl, r7, #2	@,,
	str	sl, [fp, #-72]	@, %sfp
	str	r3, [r6, #36]	@,
	add	r3, r4, #3	@ tmp484, ivtmp.960,
	str	ip, [r6, #16]	@ tmp477,
	ldr	sl, [fp, #-128]	@, %sfp
	add	r2, sl, #1	@ tmp478,,
	str	r2, [r6, #20]	@ tmp478,
	ldr	ip, [fp, #-132]	@, %sfp
	add	r4, sl, #3	@ tmp485,,
	mov	sl, #64	@,
	add	r0, ip, #1	@ tmp479,,
	str	r0, [r6, #24]	@ tmp479,
	ldr	r0, [fp, #-120]	@, %sfp
	add	r2, ip, #3	@ tmp486,,
	str	r3, [r6, #48]	@ tmp484,
	str	r2, [r6, #56]	@ tmp486,
	add	r7, r0, #1	@ tmp480,,
	str	r4, [r6, #52]	@ tmp485,
	str	r7, [r6, #28]	@ tmp480,
	add	r7, r0, #3	@ tmp487,,
	str	r7, [r6, #60]	@ tmp487,
	mov	r7, r1	@ ivtmp.961, D.48577
	ldr	r3, [fp, #-76]	@, %sfp
	str	r3, [r6, #40]	@,
	ldr	r4, [fp, #-72]	@, %sfp
	str	sl, [fp, #-88]	@, %sfp
	str	r4, [r6, #44]	@,
	ldr	ip, [fp, #-128]	@, %sfp
	ldr	r0, [fp, #-132]	@, %sfp
	ldr	r2, [fp, #-120]	@, %sfp
	add	r4, ip, r1	@ ivtmp.1146,, D.48577
	ldr	r3, [fp, #-100]	@, %sfp
	add	ip, r0, r1	@ ivtmp.1148,, D.48577
	add	r0, r2, r1	@ ivtmp.1153,, D.48577
	add	sl, r3, r1	@,, D.48577
	str	sl, [fp, #-56]	@, %sfp
	beq	.L71	@,
	cmp	r8, #0	@ tmp376,
	beq	.L77	@,
	ldr	r7, [fp, #-60]	@, %sfp
	mov	r3, #2	@,
	ldr	sl, [fp, #-88]	@, %sfp
	add	r2, r5, #1	@ tmp501, ivtmp.960,
	str	r3, [fp, #-64]	@, %sfp
	cmp	r3, r7	@,
	mov	r3, r6	@ D.48350, ivtmp.1004
	add	r7, r4, #1	@ tmp502, ivtmp.1146,
	str	r5, [r3, sl]!	@ ivtmp.960,
	add	sl, ip, #1	@ tmp503, ivtmp.1148,
	str	r2, [r3, #16]	@ tmp501,
	add	r2, r5, #3	@ tmp508, ivtmp.960,
	str	r7, [r3, #20]	@ tmp502,
	add	r7, r0, #1	@ tmp504, ivtmp.1153,
	str	sl, [r3, #24]	@ tmp503,
	add	sl, r4, #3	@ tmp509, ivtmp.1146,
	str	r7, [r3, #28]	@ tmp504,
	add	r7, r0, #3	@ tmp511, ivtmp.1153,
	str	r2, [r3, #48]	@ tmp508,
	add	r2, ip, #3	@ tmp510, ivtmp.1148,
	str	sl, [r3, #52]	@ tmp509,
	add	r5, r5, r1	@ ivtmp.960, ivtmp.960, D.48577
	str	r2, [r3, #56]	@ tmp510,
	str	r7, [r3, #60]	@ tmp511,
	ldr	sl, [fp, #-80]	@, %sfp
	add	r2, sl, r1	@ tmp505,, D.48577
	str	r2, [r3, #36]	@ tmp505,
	ldr	r7, [fp, #-76]	@, %sfp
	add	sl, r7, r1	@ tmp506,, D.48577
	str	sl, [r3, #40]	@ tmp506,
	ldr	r2, [fp, #-72]	@, %sfp
	str	r4, [r3, #4]	@ ivtmp.1146,
	add	r4, r4, r1	@ ivtmp.1146, ivtmp.1146, D.48577
	str	ip, [r3, #8]	@ ivtmp.1148,
	add	r7, r2, r1	@ tmp507,, D.48577
	str	r0, [r3, #12]	@ ivtmp.1153,
	add	ip, ip, r1	@ ivtmp.1148, ivtmp.1148, D.48577
	str	r7, [r3, #44]	@ tmp507,
	add	r0, r0, r1	@ ivtmp.1153, ivtmp.1153, D.48577
	ldr	sl, [fp, #-56]	@, %sfp
	mov	r7, r1, asl #1	@ ivtmp.961, D.48577,
	add	r2, sl, r1	@,, D.48577
	str	sl, [r3, #32]	@,
	mov	sl, #128	@,
	str	r2, [fp, #-56]	@, %sfp
	str	sl, [fp, #-88]	@, %sfp
	beq	.L71	@,
.L77:
	str	r6, [fp, #-84]	@ ivtmp.1004, %sfp
.L29:
	ldr	r2, [fp, #-64]	@, %sfp
	add	r3, ip, r1	@, ivtmp.1148, D.48577
	ldr	sl, [fp, #-88]	@, %sfp
	add	r9, r2, #2	@,,
	ldr	r2, [fp, #-56]	@, %sfp
	str	r3, [fp, #-48]	@, %sfp
	add	r8, sl, #64	@,,
	add	r3, r2, r1	@,, D.48577
	add	sl, r0, r1	@, ivtmp.1153, D.48577
	ldr	r2, [fp, #-84]	@ D.48350, %sfp
	str	sl, [fp, #-52]	@, %sfp
	ldr	sl, [fp, #-88]	@, %sfp
	str	r8, [fp, #-92]	@, %sfp
	add	r8, r7, r1	@ ivtmp.961, ivtmp.961, D.48577
	ldr	r6, [fp, #-60]	@, %sfp
	str	r3, [fp, #-68]	@, %sfp
	mov	r3, r2	@ D.48350, D.48350
	str	r9, [fp, #-64]	@, %sfp
	cmp	r9, r6	@,
	str	r5, [r2, sl]!	@ ivtmp.960,
	add	r6, r5, r1	@ ivtmp.960, ivtmp.960, D.48577
	ldr	sl, [fp, #-92]	@, %sfp
	add	r9, r4, r1	@ ivtmp.1146, ivtmp.1146, D.48577
	add	sl, sl, #64	@,,
	str	sl, [fp, #-88]	@, %sfp
	str	r4, [r2, #4]	@ ivtmp.1146,
	add	sl, r5, #1	@ tmp331, ivtmp.960,
	str	ip, [r2, #8]	@ ivtmp.1148,
	add	r5, r5, #3	@ tmp341, ivtmp.960,
	str	sl, [r2, #16]	@ tmp331,
	add	sl, r4, #1	@ tmp332, ivtmp.1146,
	str	sl, [r2, #20]	@ tmp332,
	add	sl, ip, #1	@ tmp333, ivtmp.1148,
	str	sl, [r2, #24]	@ tmp333,
	add	sl, r0, #1	@ tmp334, ivtmp.1153,
	str	sl, [r2, #28]	@ tmp334,
	add	r4, r4, #3	@ tmp342, ivtmp.1146,
	ldr	sl, [fp, #-80]	@, %sfp
	add	ip, ip, #3	@ tmp343, ivtmp.1148,
	add	sl, sl, r7	@,, ivtmp.961
	str	sl, [r2, #36]	@,
	ldr	sl, [fp, #-76]	@, %sfp
	add	sl, sl, r7	@,, ivtmp.961
	str	sl, [r2, #40]	@,
	ldr	sl, [fp, #-72]	@, %sfp
	str	r0, [r2, #12]	@ ivtmp.1153,
	add	r0, r0, #3	@ tmp344, ivtmp.1153,
	str	r5, [r2, #48]	@ tmp341,
	add	r7, sl, r7	@ tmp340,, ivtmp.961
	str	r7, [r2, #44]	@ tmp340,
	add	r5, r6, r1	@ ivtmp.960, ivtmp.960, D.48577
	ldr	sl, [fp, #-56]	@, %sfp
	add	r7, r8, r1	@ ivtmp.961, ivtmp.961, D.48577
	str	sl, [r2, #32]	@,
	ldr	sl, [fp, #-68]	@, %sfp
	add	sl, sl, r1	@,, D.48577
	str	sl, [fp, #-56]	@, %sfp
	str	r4, [r2, #52]	@ tmp342,
	add	r4, r9, r1	@ ivtmp.1146, ivtmp.1146, D.48577
	str	ip, [r2, #56]	@ tmp343,
	ldr	sl, [fp, #-48]	@, %sfp
	str	r0, [r2, #60]	@ tmp344,
	ldr	r2, [fp, #-92]	@, %sfp
	add	ip, sl, r1	@ ivtmp.1148,, D.48577
	ldr	sl, [fp, #-52]	@, %sfp
	str	r6, [r3, r2]!	@ ivtmp.960,
	add	r0, sl, r1	@ ivtmp.1153,, D.48577
	str	r9, [r3, #4]	@ ivtmp.1146,
	add	sl, r6, #1	@ tmp457, ivtmp.960,
	add	r2, r9, #1	@ tmp458, ivtmp.1146,
	str	sl, [r3, #16]	@ tmp457,
	str	r2, [r3, #20]	@ tmp458,
	add	r6, r6, #3	@ tmp464, ivtmp.960,
	ldr	sl, [fp, #-48]	@, %sfp
	add	r9, r9, #3	@ tmp465, ivtmp.1146,
	add	r2, sl, #1	@ tmp459,,
	str	r2, [r3, #24]	@ tmp459,
	ldr	sl, [fp, #-52]	@, %sfp
	add	r2, sl, #1	@ tmp460,,
	str	r2, [r3, #28]	@ tmp460,
	ldr	sl, [fp, #-80]	@, %sfp
	add	r2, sl, r8	@ tmp461,, ivtmp.961
	str	r2, [r3, #36]	@ tmp461,
	ldr	sl, [fp, #-76]	@, %sfp
	add	r2, sl, r8	@ tmp462,, ivtmp.961
	str	r2, [r3, #40]	@ tmp462,
	ldr	r2, [fp, #-72]	@, %sfp
	str	r6, [r3, #48]	@ tmp464,
	str	r9, [r3, #52]	@ tmp465,
	add	r8, r2, r8	@ tmp463,, ivtmp.961
	str	r8, [r3, #44]	@ tmp463,
	ldr	r6, [fp, #-48]	@, %sfp
	add	sl, r6, #3	@ tmp466,,
	str	sl, [r3, #56]	@ tmp466,
	ldr	sl, [fp, #-52]	@, %sfp
	str	r6, [r3, #8]	@,
	add	r2, sl, #3	@ tmp467,,
	str	r2, [r3, #60]	@ tmp467,
	str	sl, [r3, #12]	@,
	ldr	r2, [fp, #-68]	@, %sfp
	str	r2, [r3, #32]	@,
	bne	.L29	@,
	ldr	r6, [fp, #-84]	@ ivtmp.1004, %sfp
.L71:
	ldr	r0, [fp, #-96]	@, %sfp
	ldr	r2, [fp, #-128]	@, %sfp
	add	r3, r0, #1	@,,
	ldr	r5, [fp, #-120]	@, %sfp
	add	r7, r2, #4	@,,
	ldr	r0, [fp, #-100]	@, %sfp
	str	r7, [fp, #-128]	@, %sfp
	add	ip, r5, #4	@,,
	ldr	r7, [fp, #-60]	@, %sfp
	add	r2, r0, #4	@,,
	ldr	r5, [fp, #-124]	@, %sfp
	ldr	sl, [fp, #-132]	@, %sfp
	cmp	r3, r7	@,
	ldr	r0, [fp, #-104]	@, %sfp
	str	r3, [fp, #-96]	@, %sfp
	add	sl, sl, #4	@,,
	ldr	r3, [fp, #-152]	@, %sfp
	str	ip, [fp, #-120]	@, %sfp
	add	ip, r5, #4	@,,
	str	sl, [fp, #-132]	@, %sfp
	add	r5, r0, #4	@,,
	str	r2, [fp, #-100]	@, %sfp
	add	r6, r6, r3	@ ivtmp.1004, ivtmp.1004,
	str	ip, [fp, #-124]	@, %sfp
	str	r5, [fp, #-104]	@, %sfp
	bne	.L28	@,
.L35:
	sub	sp, fp, #40
	ldmfd	sp, {r4, r5, r6, r7, r8, r9, sl, fp, sp, pc}
.L5:
	cmp	r4, #4	@ iWidth,
	bgt	.L2	@,
	cmp	r4, #2	@ iWidth,
	bgt	.L21	@,
	cmp	r6, #0	@ iHeight,
	ble	.L22	@,
	ldr	sl, [fp, #-64]	@ pBuffH, %sfp
	mov	r0, #0	@ ivtmp.1102,
	mov	r8, r0	@ iY.1132, ivtmp.1102
	mov	r7, r0	@ uiCnt, ivtmp.1102
.L23:
	cmp	r4, #0	@ iWidth,
	ble	.L31	@,
	mov	r3, #1	@ iX.1131,
	cmp	r3, r4	@ iX.1131, iWidth
	sub	r1, r4, #1	@ tmp396, iWidth,
	add	r2, sl, r7, asl #2	@, ivtmp.1098, pBuffH, uiCnt,
	and	ip, r1, r3	@ tmp398, tmp396,
	str	r0, [sl, r7, asl #2]	@ ivtmp.1102,* pBuffH
	add	r1, r2, #4	@ ivtmp.1098, ivtmp.1098,
	beq	.L72	@,
	cmp	ip, #0	@ tmp398,
	beq	.L30	@,
	add	ip, r0, r3	@ tmp523, ivtmp.1102, iX.1131
	mov	r3, #2	@ iX.1131,
	cmp	r3, r4	@ iX.1131, iWidth
	str	ip, [r2, #4]	@ tmp523,
	add	r1, r1, #4	@ ivtmp.1098, ivtmp.1098,
	beq	.L72	@,
.L30:
	add	ip, r3, #1	@ tmp399, iX.1131,
	add	r5, r0, r3	@ tmp345, ivtmp.1102, iX.1131
	add	r3, ip, #1	@ iX.1131, tmp399,
	mov	r2, r1	@ tmp400, ivtmp.1098
	cmp	r3, r4	@ iX.1131, iWidth
	str	r5, [r2], #4	@ tmp345,
	add	ip, r0, ip	@ tmp490, ivtmp.1102, tmp399
	str	ip, [r1, #4]	@ tmp490,
	add	r1, r2, #4	@ ivtmp.1098, tmp400,
	bne	.L30	@,
.L72:
	add	r7, r7, r4	@ uiCnt, uiCnt, iWidth
.L31:
	add	r8, r8, #1	@ iY.1132, iY.1132,
	add	r0, r0, r4	@ ivtmp.1102, ivtmp.1102, iWidth
	cmp	r8, r6	@ iY.1132, iHeight
	bne	.L23	@,
.L22:
	cmp	r4, #0	@ iWidth,
	movgt	r5, #0	@ iX,
	ldrgt	r8, [fp, #-156]	@ pBuffV, %sfp
	movgt	r7, r5	@ uiCnt.1137, iX
	ble	.L35	@,
.L32:
	cmp	r6, #0	@ iHeight,
	ble	.L34	@,
	mov	r1, #1	@ iY,
	cmp	r1, r6	@ iY, iHeight
	sub	r0, r6, #1	@ tmp391, iHeight,
	add	r3, r8, r7, asl #2	@, ivtmp.1089, pBuffV, uiCnt.1137,
	and	ip, r0, r1	@ tmp393, tmp391,
	str	r5, [r8, r7, asl #2]	@ iX,* pBuffV
	add	r2, r5, r4	@ ivtmp.1087, iX, iWidth
	add	r0, r3, #4	@ ivtmp.1089, ivtmp.1089,
	beq	.L73	@,
	cmp	ip, #0	@ tmp393,
	beq	.L33	@,
	mov	r1, #2	@ iY,
	cmp	r1, r6	@ iY, iHeight
	str	r2, [r3, #4]	@ ivtmp.1087,
	add	r0, r0, #4	@ ivtmp.1089, ivtmp.1089,
	add	r2, r2, r4	@ ivtmp.1087, ivtmp.1087, iWidth
	beq	.L73	@,
.L33:
	add	r1, r1, #2	@ iY, iY,
	add	ip, r2, r4	@ ivtmp.1087, ivtmp.1087, iWidth
	cmp	r1, r6	@ iY, iHeight
	mov	r3, r0	@ tmp395, ivtmp.1089
	str	r2, [r3], #4	@ ivtmp.1087,
	add	r2, ip, r4	@ ivtmp.1087, ivtmp.1087, iWidth
	str	ip, [r0, #4]	@ ivtmp.1087,
	add	r0, r3, #4	@ ivtmp.1089, tmp395,
	bne	.L33	@,
.L73:
	add	r7, r7, r6	@ uiCnt.1137, uiCnt.1137, iHeight
.L34:
	add	r5, r5, #1	@ iX, iX,
	cmp	r5, r4	@ iX, iWidth
	bne	.L32	@,
	b	.L35	@
.L21:
	mov	sl, r4, asr #2	@, iWidth,
	str	sl, [fp, #-60]	@, %sfp
	b	.L13	@
	.fnend
	.size	HEVC_InitSigLastScan, .-HEVC_InitSigLastScan
	.align	2
	.global	HEVC_InitScalingOrderTable
	.type	HEVC_InitScalingOrderTable, %function
HEVC_InitScalingOrderTable:
	.fnstart
.LFB1528:
	@ args = 0, pretend = 0, frame = 0
	@ frame_needed = 1, uses_anonymous_args = 0
	.movsp ip
	mov	ip, sp	@,
	stmfd	sp!, {r4, r5, r6, r7, r8, sl, fp, ip, lr, pc}	@,
	.pad #4
	.save {r4, r5, r6, r7, r8, sl, fp, ip, lr}
	.setfp fp, ip, #-4
	sub	fp, ip, #4	@,,
	.pad #16
	sub	sp, sp, #16	@,,
	push	{lr}
	bl	__gnu_mcount_nc
	mov	r1, #0	@ i,
	mov	r5, r0	@ pHevcCtx, pHevcCtx
	mov	r3, r0	@ ivtmp.1214, pHevcCtx
	mvn	r2, #0	@ tmp225,
.L84:
	add	r1, r1, #3	@ i, i,
	add	r0, r3, #1	@ tmp227, ivtmp.1214,
	cmp	r1, #129	@ i,
	strb	r2, [r3, #8]	@ tmp225, <variable>.aucConvertToBit
	strb	r2, [r0, #9]	@ tmp225, <variable>.aucConvertToBit
	add	r3, r3, #3	@ ivtmp.1214, ivtmp.1214,
	strb	r2, [r0, #8]	@ tmp225, <variable>.aucConvertToBit
	bne	.L84	@,
	add	r1, r5, #2176	@ D.38555, pHevcCtx,
	mov	r6, #2	@ tmp170,
	add	r4, r1, #12	@ D.38555, D.38555,
	strb	r6, [r5, #24]	@ tmp170, <variable>.aucConvertToBit
	mov	r7, #4	@ tmp174,
	mov	ip, #0	@ tmp166,
	strb	r7, [r5, #72]	@ tmp174, <variable>.aucConvertToBit
	mov	r8, #1	@ tmp168,
	strb	ip, [r5, #12]	@ tmp166, <variable>.aucConvertToBit
	mov	sl, #3	@ tmp172,
	strb	r8, [r5, #16]	@ tmp168, <variable>.aucConvertToBit
	mov	r0, r5	@, pHevcCtx
	strb	sl, [r5, #40]	@ tmp172, <variable>.aucConvertToBit
	mov	r1, r4	@, D.38555
	add	r2, r4, #458752	@, D.38555,
	add	r3, r4, #917504	@, D.38555,
	add	lr, r4, #1376256	@ tmp179, D.38555,
	str	ip, [sp, #12]	@ tmp166,
	str	lr, [sp, #0]	@ tmp179,
	str	r6, [sp, #4]	@ tmp170,
	str	r6, [sp, #8]	@ tmp170,
	bl	HEVC_InitSigLastScan	@
	mov	r0, r5	@, pHevcCtx
	add	r1, r4, #65536	@, D.38555,
	add	r2, r4, #524288	@, D.38555,
	add	r3, r4, #983040	@, D.38555,
	add	ip, r4, #1441792	@ tmp186, D.38555,
	str	r8, [sp, #12]	@ tmp168,
	str	ip, [sp, #0]	@ tmp186,
	str	r7, [sp, #4]	@ tmp174,
	str	r7, [sp, #8]	@ tmp174,
	bl	HEVC_InitSigLastScan	@
	mov	r0, r5	@, pHevcCtx
	add	r1, r4, #131072	@, D.38555,
	add	r2, r4, #589824	@, D.38555,
	add	r3, r4, #1048576	@, D.38555,
	mov	ip, #8	@ tmp194,
	add	lr, r4, #1507328	@ tmp193, D.38555,
	str	ip, [sp, #8]	@ tmp194,
	str	lr, [sp, #0]	@ tmp193,
	str	ip, [sp, #4]	@ tmp194,
	str	r6, [sp, #12]	@ tmp170,
	bl	HEVC_InitSigLastScan	@
	mov	r0, r5	@, pHevcCtx
	add	r1, r4, #196608	@, D.38555,
	add	r2, r4, #655360	@, D.38555,
	add	r3, r4, #1114112	@, D.38555,
	mov	ip, #16	@ tmp201,
	add	lr, r4, #1572864	@ tmp200, D.38555,
	str	ip, [sp, #8]	@ tmp201,
	str	lr, [sp, #0]	@ tmp200,
	str	ip, [sp, #4]	@ tmp201,
	str	sl, [sp, #12]	@ tmp172,
	bl	HEVC_InitSigLastScan	@
	mov	r0, r5	@, pHevcCtx
	add	r1, r4, #262144	@, D.38555,
	add	r2, r4, #720896	@, D.38555,
	add	r3, r4, #1179648	@, D.38555,
	add	lr, r4, #1638400	@ tmp207, D.38555,
	mov	ip, #32	@ tmp208,
	str	lr, [sp, #0]	@ tmp207,
	str	ip, [sp, #8]	@ tmp208,
	str	ip, [sp, #4]	@ tmp208,
	str	r7, [sp, #12]	@ tmp174,
	bl	HEVC_InitSigLastScan	@
	mov	r0, r5	@, pHevcCtx
	add	r1, r4, #327680	@, D.38555,
	add	r2, r4, #786432	@, D.38555,
	add	r3, r4, #1245184	@, D.38555,
	mov	ip, #64	@ tmp215,
	str	ip, [sp, #8]	@ tmp215,
	str	ip, [sp, #4]	@ tmp215,
	add	ip, r4, #1703936	@ tmp214, D.38555,
	str	ip, [sp, #0]	@ tmp214,
	mov	ip, #5	@ tmp217,
	str	ip, [sp, #12]	@ tmp217,
	bl	HEVC_InitSigLastScan	@
	add	r3, r4, #1310720	@, D.38555,
	add	r1, r4, #393216	@, D.38555,
	add	r2, r4, #851968	@, D.38555,
	mov	r0, r5	@, pHevcCtx
	mov	ip, #128	@ tmp222,
	add	r4, r4, #1769472	@ tmp221, D.38555,
	str	ip, [sp, #8]	@ tmp222,
	str	ip, [sp, #4]	@ tmp222,
	mov	ip, #6	@ tmp224,
	str	r4, [sp, #0]	@ tmp221,
	str	ip, [sp, #12]	@ tmp224,
	bl	HEVC_InitSigLastScan	@
	sub	sp, fp, #36
	ldmfd	sp, {r4, r5, r6, r7, r8, sl, fp, sp, pc}
	.fnend
	.size	HEVC_InitScalingOrderTable, .-HEVC_InitScalingOrderTable
	.align	2
	.global	HEVC_IsSliceUnit
	.type	HEVC_IsSliceUnit, %function
HEVC_IsSliceUnit:
	.fnstart
.LFB1536:
	@ args = 0, pretend = 0, frame = 0
	@ frame_needed = 1, uses_anonymous_args = 0
	.movsp ip
	mov	ip, sp	@,
	stmfd	sp!, {fp, ip, lr, pc}	@,
	.pad #4
	.save {fp, ip, lr}
	.setfp fp, ip, #-4
	sub	fp, ip, #4	@,,
	push	{lr}
	bl	__gnu_mcount_nc
	cmp	r0, #3	@ nal_unit_type,
	cmpne	r0, #1	@, nal_unit_type,
	bls	.L90	@,
	cmp	r0, #2	@ nal_unit_type,
	cmpne	r0, #5	@, nal_unit_type,
	beq	.L90	@,
	cmp	r0, #4	@ nal_unit_type,
	cmpne	r0, #16	@, nal_unit_type,
	beq	.L90	@,
	cmp	r0, #17	@ nal_unit_type,
	cmpne	r0, #18	@, nal_unit_type,
	beq	.L90	@,
	cmp	r0, #19	@ nal_unit_type,
	cmpne	r0, #20	@, nal_unit_type,
	beq	.L90	@,
	cmp	r0, #21	@ nal_unit_type,
	cmpne	r0, #6	@, nal_unit_type,
	beq	.L90	@,
	cmp	r0, #7	@ nal_unit_type,
	cmpne	r0, #8	@, nal_unit_type,
	beq	.L90	@,
	cmp	r0, #9	@ nal_unit_type,
	movne	r0, #0	@, prephitmp.1251
	moveq	r0, #1	@, prephitmp.1251
	ldmfd	sp, {fp, sp, pc}	@
.L90:
	mov	r0, #1	@ prephitmp.1251,
	ldmfd	sp, {fp, sp, pc}	@
	.fnend
	.size	HEVC_IsSliceUnit, .-HEVC_IsSliceUnit
	.align	2
	.global	HEVC_IsIUnit
	.type	HEVC_IsIUnit, %function
HEVC_IsIUnit:
	.fnstart
.LFB1537:
	@ args = 0, pretend = 0, frame = 0
	@ frame_needed = 1, uses_anonymous_args = 0
	.movsp ip
	mov	ip, sp	@,
	stmfd	sp!, {fp, ip, lr, pc}	@,
	.pad #4
	.save {fp, ip, lr}
	.setfp fp, ip, #-4
	sub	fp, ip, #4	@,,
	push	{lr}
	bl	__gnu_mcount_nc
	sub	r0, r0, #16	@ tmp136, nal_unit_type,
	cmp	r0, #5	@ tmp136,
	movhi	r0, #0	@,
	movls	r0, #1	@,
	ldmfd	sp, {fp, sp, pc}	@
	.fnend
	.size	HEVC_IsIUnit, .-HEVC_IsIUnit
	.align	2
	.global	HEVC_IsNonRefPic
	.type	HEVC_IsNonRefPic, %function
HEVC_IsNonRefPic:
	.fnstart
.LFB1538:
	@ args = 0, pretend = 0, frame = 0
	@ frame_needed = 1, uses_anonymous_args = 0
	.movsp ip
	mov	ip, sp	@,
	stmfd	sp!, {fp, ip, lr, pc}	@,
	.pad #4
	.save {fp, ip, lr}
	.setfp fp, ip, #-4
	sub	fp, ip, #4	@,,
	push	{lr}
	bl	__gnu_mcount_nc
	cmp	r0, #0	@ nal_unit_type,
	cmpne	r0, #2	@, nal_unit_type,
	beq	.L96	@,
	cmp	r0, #4	@ nal_unit_type,
	cmpne	r0, #6	@, nal_unit_type,
	beq	.L96	@,
	cmp	r0, #8	@ nal_unit_type,
	cmpne	r0, #10	@, nal_unit_type,
	beq	.L96	@,
	cmp	r0, #12	@ nal_unit_type,
	cmpne	r0, #14	@, nal_unit_type,
	movne	r0, #0	@, D.38999
	moveq	r0, #1	@, D.38999
	ldmfd	sp, {fp, sp, pc}	@
.L96:
	mov	r0, #1	@ D.38999,
	ldmfd	sp, {fp, sp, pc}	@
	.fnend
	.size	HEVC_IsNonRefPic, .-HEVC_IsNonRefPic
	.align	2
	.global	HEVC_IsFlushUnit
	.type	HEVC_IsFlushUnit, %function
HEVC_IsFlushUnit:
	.fnstart
.LFB1539:
	@ args = 0, pretend = 0, frame = 0
	@ frame_needed = 1, uses_anonymous_args = 0
	.movsp ip
	mov	ip, sp	@,
	stmfd	sp!, {fp, ip, lr, pc}	@,
	.pad #4
	.save {fp, ip, lr}
	.setfp fp, ip, #-4
	sub	fp, ip, #4	@,,
	push	{lr}
	bl	__gnu_mcount_nc
	sub	r0, r0, #16	@ tmp136, nal_unit_type,
	cmp	r0, #4	@ tmp136,
	movhi	r0, #0	@,
	movls	r0, #1	@,
	ldmfd	sp, {fp, sp, pc}	@
	.fnend
	.size	HEVC_IsFlushUnit, .-HEVC_IsFlushUnit
	.align	2
	.global	HEVC_IsPVRFlushPic
	.type	HEVC_IsPVRFlushPic, %function
HEVC_IsPVRFlushPic:
	.fnstart
.LFB1540:
	@ args = 0, pretend = 0, frame = 0
	@ frame_needed = 1, uses_anonymous_args = 0
	.movsp ip
	mov	ip, sp	@,
	stmfd	sp!, {fp, ip, lr, pc}	@,
	.pad #4
	.save {fp, ip, lr}
	.setfp fp, ip, #-4
	sub	fp, ip, #4	@,,
	push	{lr}
	bl	__gnu_mcount_nc
	movw	r1, #:lower16:2124820	@ tmp137,
	movt	r1, #:upper16:2124820	@ tmp137,
	ldr	r3, [r0, r1]	@ <variable>.CurrPic.pic_type, <variable>.CurrPic.pic_type
	cmp	r3, #0	@ <variable>.CurrPic.pic_type,
	bne	.L102	@,
	movw	ip, #:lower16:1960188	@ tmp139,
	movt	ip, #:upper16:1960188	@ tmp139,
	ldr	r3, [r0, ip]	@ D.39033, <variable>.pstExtraData
	ldr	r2, [r3, #716]	@ <variable>.stPvrInfo.u32BFrmRefFlag, <variable>.stPvrInfo.u32BFrmRefFlag
	cmp	r2, #1	@ <variable>.stPvrInfo.u32BFrmRefFlag,
	beq	.L105	@,
.L102:
	mov	r0, #0	@ D.39027,
	ldmfd	sp, {fp, sp, pc}	@
.L105:
	ldr	r0, [r3, #712]	@ <variable>.stPvrInfo.u32IDRFlag, <variable>.stPvrInfo.u32IDRFlag
	cmp	r0, #0	@ <variable>.stPvrInfo.u32IDRFlag,
	bne	.L102	@,
	ldr	r1, [r3, #720]	@ <variable>.stPvrInfo.u32ContinuousFlag, <variable>.stPvrInfo.u32ContinuousFlag
	cmp	r1, #0	@ <variable>.stPvrInfo.u32ContinuousFlag,
	bne	.L102	@,
	ldr	r2, [r3, #692]	@ <variable>.s32FastForwardBackwardSpeed, <variable>.s32FastForwardBackwardSpeed
	add	r3, r2, #1024	@ tmp143, <variable>.s32FastForwardBackwardSpeed,
	cmp	r3, #2048	@ tmp143,
	movls	r0, #0	@, D.39027
	movhi	r0, #1	@, D.39027
	ldmfd	sp, {fp, sp, pc}	@
	.fnend
	.size	HEVC_IsPVRFlushPic, .-HEVC_IsPVRFlushPic
	.align	2
	.global	HEVC_PicTypeStatistic
	.type	HEVC_PicTypeStatistic, %function
HEVC_PicTypeStatistic:
	.fnstart
.LFB1577:
	@ args = 0, pretend = 0, frame = 0
	@ frame_needed = 1, uses_anonymous_args = 0
	.movsp ip
	mov	ip, sp	@,
	stmfd	sp!, {fp, ip, lr, pc}	@,
	.pad #4
	.save {fp, ip, lr}
	.setfp fp, ip, #-4
	sub	fp, ip, #4	@,,
	push	{lr}
	bl	__gnu_mcount_nc
	movw	r3, #:lower16:2125432	@ tmp136,
	movt	r3, #:upper16:2125432	@ tmp136,
	ldr	r3, [r0, r3]	@ D.41676, <variable>.CurrSlice.nal_unit_type
	sub	r2, r3, #16	@ tmp137, D.41676,
	cmp	r2, #5	@ tmp137,
	bls	.L107	@,
	movw	r3, #:lower16:2124812	@ tmp138,
	movt	r3, #:upper16:2124812	@ tmp138,
	ldr	ip, [r0, r3]	@ pretmp.1364, <variable>.CurrPic.nal_unit_type
	sub	r1, ip, #16	@ tmp139, pretmp.1364,
	cmp	r1, #5	@ tmp139,
	ldmlsfd	sp, {fp, sp, pc}	@
	movw	r3, #:lower16:2125420	@ tmp143,
	movt	r3, #:upper16:2125420	@ tmp143,
	ldr	r3, [r0, r3]	@ <variable>.CurrSlice.slice_type, <variable>.CurrSlice.slice_type
	cmp	r3, #1	@ <variable>.CurrSlice.slice_type,
	beq	.L111	@,
	cmp	r3, #2	@ <variable>.CurrSlice.slice_type,
	beq	.L112	@,
	cmp	r3, #0	@ <variable>.CurrSlice.slice_type,
	movweq	r3, #:lower16:2124820	@ tmp145,
	movteq	r3, #:upper16:2124820	@ tmp145,
	moveq	r2, #2	@ tmp146,
	streq	r2, [r0, r3]	@ tmp146, <variable>.CurrPic.pic_type
	ldmfd	sp, {fp, sp, pc}	@
.L107:
	movw	ip, #:lower16:2124812	@ tmp140,
	movw	r2, #:lower16:2124820	@ tmp141,
	movt	ip, #:upper16:2124812	@ tmp140,
	movt	r2, #:upper16:2124820	@ tmp141,
	mov	r1, #0	@ tmp142,
	str	r3, [r0, ip]	@ D.41676, <variable>.CurrPic.nal_unit_type
	str	r1, [r0, r2]	@ tmp142, <variable>.CurrPic.pic_type
	ldmfd	sp, {fp, sp, pc}	@
.L111:
	movw	r2, #:lower16:2124820	@ tmp147,
	movt	r2, #:upper16:2124820	@ tmp147,
	ldr	r1, [r0, r2]	@ <variable>.CurrPic.pic_type, <variable>.CurrPic.pic_type
	cmp	r1, #2	@ <variable>.CurrPic.pic_type,
	strne	r3, [r0, r2]	@ <variable>.CurrSlice.slice_type, <variable>.CurrPic.pic_type
	ldmfd	sp, {fp, sp, pc}	@
.L112:
	movw	r3, #:lower16:2124820	@ tmp151,
	movt	r3, #:upper16:2124820	@ tmp151,
	ldr	r2, [r0, r3]	@ <variable>.CurrPic.pic_type, <variable>.CurrPic.pic_type
	sub	ip, r2, #1	@ tmp152, <variable>.CurrPic.pic_type,
	cmp	ip, #1	@ tmp152,
	movhi	ip, #0	@ tmp155,
	strhi	ip, [r0, r3]	@ tmp155, <variable>.CurrPic.pic_type
	ldmfd	sp, {fp, sp, pc}	@
	.fnend
	.size	HEVC_PicTypeStatistic, .-HEVC_PicTypeStatistic
	.align	2
	.global	HEVC_IsReferenceNalu
	.type	HEVC_IsReferenceNalu, %function
HEVC_IsReferenceNalu:
	.fnstart
.LFB1579:
	@ args = 0, pretend = 0, frame = 0
	@ frame_needed = 1, uses_anonymous_args = 0
	.movsp ip
	mov	ip, sp	@,
	stmfd	sp!, {fp, ip, lr, pc}	@,
	.pad #4
	.save {fp, ip, lr}
	.setfp fp, ip, #-4
	sub	fp, ip, #4	@,,
	push	{lr}
	bl	__gnu_mcount_nc
	movw	r3, #:lower16:2125432	@ tmp137,
	movt	r3, #:upper16:2125432	@ tmp137,
	ldr	r0, [r0, r3]	@ D.41795, <variable>.CurrSlice.nal_unit_type
	cmp	r0, #15	@ D.41795,
	bhi	.L115	@,
	tst	r0, #1	@ D.41795,
	movne	r0, #1	@ prephitmp.1392,
	ldmnefd	sp, {fp, sp, pc}	@
.L115:
	sub	r0, r0, #16	@ tmp139, D.41795,
	cmp	r0, #7	@ tmp139,
	movhi	r0, #0	@, prephitmp.1392
	movls	r0, #1	@, prephitmp.1392
	ldmfd	sp, {fp, sp, pc}	@
	.fnend
	.size	HEVC_IsReferenceNalu, .-HEVC_IsReferenceNalu
	.align	2
	.global	HEVC_WriteQmatrix_4x4
	.type	HEVC_WriteQmatrix_4x4, %function
HEVC_WriteQmatrix_4x4:
	.fnstart
.LFB1581:
	@ args = 0, pretend = 0, frame = 0
	@ frame_needed = 1, uses_anonymous_args = 0
	.movsp ip
	mov	ip, sp	@,
	stmfd	sp!, {r4, r5, r6, r7, fp, ip, lr, pc}	@,
	.pad #4
	.save {r4, r5, r6, r7, fp, ip, lr}
	.setfp fp, ip, #-4
	sub	fp, ip, #4	@,,
	push	{lr}
	bl	__gnu_mcount_nc
	add	r1, r1, r0, asl #6	@, tmp138, pHevcCtx, matrixId,
	add	r3, r1, #560	@ tmp160, tmp138,
	add	ip, r1, #564	@ tmp145, tmp138,
	add	r0, r1, #552	@ tmp139, tmp138,
	add	r1, r1, #556	@ tmp152, tmp138,
	ldr	r7, [ip, #4]	@ tmp147, <variable>.qmatrix
	ldr	r5, [r3, #4]	@ tmp162, <variable>.qmatrix
	ldrb	r6, [r0, #4]	@ zero_extendqisi2	@ tmp140, <variable>.qmatrix
	ldrb	r4, [r1, #4]	@ zero_extendqisi2	@ tmp153, <variable>.qmatrix
	orr	r6, r6, r7, asl #24	@, tmp148, tmp140, tmp147,
	mov	r7, r5, asl #24	@ tmp164, tmp162,
	orr	r4, r6, r4, asl #16	@, tmp156, tmp148, tmp153,
	orr	r6, r4, r7, lsr #16	@, tmp165, tmp156, tmp164,
	str	r6, [r2, #0]	@ tmp165,* Qmatrix
	ldr	r5, [r3, #4]	@ tmp178, <variable>.qmatrix
	ldrb	r7, [r0, #5]	@ zero_extendqisi2	@ tmp172, <variable>.qmatrix
	ldrb	r6, [ip, #5]	@ zero_extendqisi2	@ tmp186, <variable>.qmatrix
	and	r4, r5, #65280	@ tmp177, tmp178,
	ldrb	r5, [r1, #5]	@ zero_extendqisi2	@ tmp195, <variable>.qmatrix
	orr	r4, r7, r4	@ tmp179, tmp172, tmp177
	orr	r7, r4, r6, asl #24	@, tmp188, tmp179, tmp186,
	orr	r6, r7, r5, asl #16	@, tmp197, tmp188, tmp195,
	str	r6, [r2, #4]	@ tmp197,
	ldr	r5, [r1, #4]	@ tmp210, <variable>.qmatrix
	ldrb	r7, [r0, #6]	@ zero_extendqisi2	@ tmp204, <variable>.qmatrix
	ldrb	r6, [ip, #6]	@ zero_extendqisi2	@ tmp218, <variable>.qmatrix
	and	r4, r5, #16711680	@ tmp209, tmp210,
	ldrb	r5, [r3, #6]	@ zero_extendqisi2	@ tmp227, <variable>.qmatrix
	orr	r4, r7, r4	@ tmp211, tmp204, tmp209
	orr	r4, r4, r6, asl #24	@, tmp220, tmp211, tmp218,
	orr	r4, r4, r5, asl #8	@, tmp229, tmp220, tmp227,
	str	r4, [r2, #8]	@ tmp229,
	ldr	ip, [ip, #4]	@ tmp241, <variable>.qmatrix
	ldrb	r4, [r0, #7]	@ zero_extendqisi2	@ tmp234, <variable>.qmatrix
	ldrb	r0, [r1, #7]	@ zero_extendqisi2	@ tmp247, <variable>.qmatrix
	and	ip, ip, #-16777216	@ tmp240, tmp241,
	ldrb	r1, [r3, #7]	@ zero_extendqisi2	@ tmp255, <variable>.qmatrix
	orr	r3, r4, ip	@ tmp242, tmp234, tmp240
	orr	ip, r3, r0, asl #16	@, tmp250, tmp242, tmp247,
	orr	r3, ip, r1, asl #8	@, tmp258, tmp250, tmp255,
	str	r3, [r2, #12]	@ tmp258,
	ldmfd	sp, {r4, r5, r6, r7, fp, sp, pc}	@
	.fnend
	.size	HEVC_WriteQmatrix_4x4, .-HEVC_WriteQmatrix_4x4
	.align	2
	.global	HEVC_WriteQmatrix_32x32
	.type	HEVC_WriteQmatrix_32x32, %function
HEVC_WriteQmatrix_32x32:
	.fnstart
.LFB1582:
	@ args = 0, pretend = 0, frame = 48
	@ frame_needed = 1, uses_anonymous_args = 0
	.movsp ip
	mov	ip, sp	@,
	stmfd	sp!, {r4, r5, r6, r7, r8, r9, sl, fp, ip, lr, pc}	@,
	.pad #4
	.save {r4, r5, r6, r7, r8, r9, sl, fp, ip, lr}
	.setfp fp, ip, #-4
	sub	fp, ip, #4	@,,
	.pad #52
	sub	sp, sp, #52	@,,
	push	{lr}
	bl	__gnu_mcount_nc
	add	r7, r0, #27	@ tmp143, matrixId,
	add	r8, r0, #18	@ tmp136, matrixId,
	add	r0, r1, r0, asl #6	@, tmp153, pHevcCtx, matrixId,
	add	r3, r1, r7, asl #6	@,, pHevcCtx, tmp143,
	add	r5, r0, #1728	@, tmp153,
	add	ip, r1, r8, asl #6	@, tmp139, pHevcCtx, tmp136,
	add	r1, r0, #1712	@ tmp154, tmp153,
	str	r3, [fp, #-68]	@, %sfp
	add	r4, ip, #552	@, tmp139,
	add	r1, r1, #8	@ tmp154, tmp154,
	str	r4, [fp, #-64]	@, %sfp
	ldr	r9, [r3, #4]	@ tmp149, <variable>.qmatrix
	add	r3, r0, #1744	@ tmp184, tmp153,
	str	r5, [fp, #-88]	@, %sfp
	add	r3, r3, #8	@ tmp184, tmp184,
	ldr	r7, [r0, #1716]	@ tmp164, <variable>.qmatrix
	ldr	sl, [fp, #-88]	@, %sfp
	ldrb	r8, [r4, #4]	@ zero_extendqisi2	@ tmp141, <variable>.qmatrix
	ldrb	r5, [r1, #4]	@ zero_extendqisi2	@ tmp155, <variable>.qmatrix
	add	r6, sl, #8	@,,
	str	r6, [fp, #-88]	@, %sfp
	orr	ip, r8, r9, asl #24	@, tmp150, tmp141, tmp149,
	mov	sl, r7, asl #24	@ tmp166, tmp164,
	ldr	r7, [fp, #-88]	@, %sfp
	orr	r4, ip, r5, asl #16	@, tmp158, tmp150, tmp155,
	add	ip, r0, #1696	@, tmp153,
	orr	r9, r4, sl, lsr #16	@, tmp167, tmp158, tmp166,
	str	r9, [r2, #0]	@ tmp167,* Qmatrix
	ldr	r5, [r0, #1764]	@ tmp179, <variable>.qmatrix
	add	r8, r0, #1728	@ tmp399, tmp153,
	ldr	sl, [r0, #1748]	@ tmp194, <variable>.qmatrix
	add	r6, r0, #1712	@ tmp414, tmp153,
	ldrb	r4, [r7, #4]	@ zero_extendqisi2	@ tmp172, <variable>.qmatrix
	add	r8, r8, #4	@ tmp399, tmp399,
	str	ip, [fp, #-56]	@, %sfp
	add	r6, r6, #4	@ tmp414, tmp414,
	ldrb	ip, [r3, #4]	@ zero_extendqisi2	@ tmp185, <variable>.qmatrix
	orr	r4, r4, r5, asl #24	@, tmp180, tmp172, tmp179,
	mov	r5, sl, asl #24	@ tmp196, tmp194,
	ldr	sl, [fp, #-56]	@, %sfp
	add	r7, r0, #1712	@ tmp406, tmp153,
	add	r9, sl, #12	@,,
	orr	sl, r4, ip, asl #16	@, tmp188, tmp180, tmp185,
	ldr	r4, [fp, #-64]	@, %sfp
	add	r7, r7, #12	@ tmp406, tmp406,
	str	r9, [fp, #-56]	@, %sfp
	orr	r9, sl, r5, lsr #16	@, tmp197, tmp188, tmp196,
	str	r9, [r2, #4]	@ tmp197,
	add	ip, r0, #1744	@ tmp444, tmp153,
	ldrb	r9, [r4, #5]	@ zero_extendqisi2	@ tmp205, <variable>.qmatrix
	add	r5, r0, #1760	@ tmp429, tmp153,
	ldr	r4, [fp, #-68]	@, %sfp
	add	r5, r5, #4	@ tmp429, tmp429,
	ldr	sl, [r0, #1716]	@ tmp211, <variable>.qmatrix
	add	ip, ip, #4	@ tmp444, tmp444,
	ldrb	r4, [r4, #5]	@ zero_extendqisi2	@, <variable>.qmatrix
	str	r4, [fp, #-48]	@, %sfp
	and	r4, sl, #65280	@ tmp210, tmp211,
	ldrb	sl, [r1, #5]	@ zero_extendqisi2	@, <variable>.qmatrix
	orr	r9, r9, r4	@ tmp212, tmp205, tmp210
	ldr	r4, [fp, #-48]	@, %sfp
	str	sl, [fp, #-52]	@, %sfp
	add	sl, r0, #1728	@, tmp153,
	str	sl, [fp, #-60]	@, %sfp
	orr	r9, r9, r4, asl #24	@,, tmp212,,
	ldr	sl, [fp, #-52]	@, %sfp
	add	r4, r0, #1744	@ tmp436, tmp153,
	add	r4, r4, #12	@ tmp436, tmp436,
	orr	r9, r9, sl, asl #16	@,,,,
	str	r9, [r2, #8]	@,
	ldr	r9, [fp, #-60]	@, %sfp
	add	sl, r9, #12	@,,
	ldr	r9, [fp, #-88]	@, %sfp
	str	sl, [fp, #-60]	@, %sfp
	ldrb	sl, [r9, #5]	@ zero_extendqisi2	@, <variable>.qmatrix
	str	sl, [fp, #-80]	@, %sfp
	ldrb	r9, [r0, #1765]	@ zero_extendqisi2	@, <variable>.qmatrix
	str	r9, [fp, #-52]	@, %sfp
	ldr	sl, [r0, #1748]	@, <variable>.qmatrix
	and	sl, sl, #65280	@,,
	str	sl, [fp, #-48]	@, %sfp
	ldrb	r9, [r3, #5]	@ zero_extendqisi2	@, <variable>.qmatrix
	str	r9, [fp, #-72]	@, %sfp
	ldr	r9, [fp, #-80]	@, %sfp
	orr	sl, r9, sl	@,,
	ldr	r9, [fp, #-52]	@, %sfp
	orr	sl, sl, r9, asl #24	@,,,,
	ldr	r9, [fp, #-72]	@, %sfp
	str	sl, [fp, #-48]	@, %sfp
	orr	sl, sl, r9, asl #16	@,,,,
	str	sl, [r2, #12]	@,
	ldr	sl, [fp, #-64]	@, %sfp
	ldrb	r9, [sl, #6]	@ zero_extendqisi2	@, <variable>.qmatrix
	ldr	sl, [fp, #-68]	@, %sfp
	str	r9, [fp, #-80]	@, %sfp
	ldrb	r9, [sl, #6]	@ zero_extendqisi2	@, <variable>.qmatrix
	str	r9, [fp, #-52]	@, %sfp
	ldr	sl, [r1, #4]	@, <variable>.qmatrix
	and	sl, sl, #16711680	@,,
	str	sl, [fp, #-48]	@, %sfp
	ldrb	r9, [r0, #1718]	@ zero_extendqisi2	@, <variable>.qmatrix
	str	r9, [fp, #-72]	@, %sfp
	ldr	r9, [fp, #-80]	@, %sfp
	orr	sl, r9, sl	@,,
	ldr	r9, [fp, #-52]	@, %sfp
	orr	sl, sl, r9, asl #24	@,,,,
	ldr	r9, [fp, #-72]	@, %sfp
	str	sl, [fp, #-48]	@, %sfp
	orr	sl, sl, r9, asl #8	@,,,,
	ldr	r9, [fp, #-88]	@, %sfp
	str	sl, [r2, #16]	@,
	ldrb	sl, [r9, #6]	@ zero_extendqisi2	@, <variable>.qmatrix
	str	sl, [fp, #-80]	@, %sfp
	ldrb	r9, [r0, #1766]	@ zero_extendqisi2	@, <variable>.qmatrix
	str	r9, [fp, #-52]	@, %sfp
	ldr	sl, [r3, #4]	@, <variable>.qmatrix
	and	sl, sl, #16711680	@,,
	str	sl, [fp, #-48]	@, %sfp
	ldrb	r9, [r0, #1750]	@ zero_extendqisi2	@, <variable>.qmatrix
	str	r9, [fp, #-72]	@, %sfp
	ldr	r9, [fp, #-80]	@, %sfp
	orr	sl, r9, sl	@,,
	ldr	r9, [fp, #-52]	@, %sfp
	orr	sl, sl, r9, asl #24	@,,,,
	ldr	r9, [fp, #-72]	@, %sfp
	str	sl, [fp, #-48]	@, %sfp
	orr	sl, sl, r9, asl #8	@,,,,
	str	sl, [r2, #20]	@,
	ldr	sl, [fp, #-68]	@, %sfp
	ldr	r9, [fp, #-64]	@, %sfp
	ldr	sl, [sl, #4]	@, <variable>.qmatrix
	str	sl, [fp, #-48]	@, %sfp
	and	sl, sl, #-16777216	@ tmp342,,
	ldrb	r1, [r1, #7]	@ zero_extendqisi2	@, <variable>.qmatrix
	ldrb	r9, [r9, #7]	@ zero_extendqisi2	@, <variable>.qmatrix
	str	r1, [fp, #-52]	@, %sfp
	orr	sl, r9, sl	@ tmp344,, tmp342
	ldr	r9, [fp, #-52]	@, %sfp
	ldrb	r1, [r0, #1719]	@ zero_extendqisi2	@, <variable>.qmatrix
	orr	sl, sl, r9, asl #16	@, tmp352, tmp344,,
	ldr	r9, [fp, #-88]	@, %sfp
	orr	sl, sl, r1, asl #8	@, tmp360, tmp352,,
	str	sl, [r2, #24]	@ tmp360,
	ldr	sl, [r0, #1764]	@ tmp372, <variable>.qmatrix
	ldrb	r1, [r9, #7]	@ zero_extendqisi2	@ tmp365, <variable>.qmatrix
	ldrb	r3, [r3, #7]	@ zero_extendqisi2	@ tmp378, <variable>.qmatrix
	and	sl, sl, #-16777216	@ tmp371, tmp372,
	ldrb	r9, [r0, #1751]	@ zero_extendqisi2	@ tmp386, <variable>.qmatrix
	orr	r1, r1, sl	@ tmp373, tmp365, tmp371
	orr	sl, r1, r3, asl #16	@, tmp381, tmp373, tmp378,
	ldr	r1, [fp, #-56]	@, %sfp
	orr	r0, sl, r9, asl #8	@, tmp389, tmp381, tmp386,
	str	r0, [r2, #28]	@ tmp389,
	ldr	sl, [r8, #4]	@ tmp401, <variable>.qmatrix
	ldr	r9, [r6, #4]	@ tmp416, <variable>.qmatrix
	ldrb	r3, [r1, #4]	@ zero_extendqisi2	@ tmp394, <variable>.qmatrix
	ldrb	r0, [r7, #4]	@ zero_extendqisi2	@ tmp407, <variable>.qmatrix
	orr	r1, r3, sl, asl #24	@, tmp402, tmp394, tmp401,
	mov	r3, r9, asl #24	@ tmp418, tmp416,
	orr	sl, r1, r0, asl #16	@, tmp410, tmp402, tmp407,
	orr	r9, sl, r3, lsr #16	@, tmp419, tmp410, tmp418,
	str	r9, [r2, #32]	@ tmp419,
	ldr	r9, [fp, #-60]	@, %sfp
	ldr	r1, [r5, #4]	@ tmp431, <variable>.qmatrix
	ldr	sl, [ip, #4]	@ tmp446, <variable>.qmatrix
	ldrb	r3, [r9, #4]	@ zero_extendqisi2	@ tmp424, <variable>.qmatrix
	ldrb	r0, [r4, #4]	@ zero_extendqisi2	@ tmp437, <variable>.qmatrix
	orr	r1, r3, r1, asl #24	@, tmp432, tmp424, tmp431,
	mov	r3, sl, asl #24	@ tmp448, tmp446,
	orr	sl, r1, r0, asl #16	@, tmp440, tmp432, tmp437,
	ldr	r1, [fp, #-56]	@, %sfp
	orr	r0, sl, r3, lsr #16	@, tmp449, tmp440, tmp448,
	str	r0, [r2, #36]	@ tmp449,
	ldr	r3, [r6, #4]	@ tmp462, <variable>.qmatrix
	ldrb	sl, [r1, #5]	@ zero_extendqisi2	@ tmp456, <variable>.qmatrix
	ldrb	r1, [r8, #5]	@ zero_extendqisi2	@ tmp470, <variable>.qmatrix
	and	r0, r3, #65280	@ tmp461, tmp462,
	ldrb	r3, [r7, #5]	@ zero_extendqisi2	@ tmp479, <variable>.qmatrix
	orr	r0, sl, r0	@ tmp463, tmp456, tmp461
	orr	r0, r0, r1, asl #24	@, tmp472, tmp463, tmp470,
	orr	r1, r0, r3, asl #16	@, tmp481, tmp472, tmp479,
	str	r1, [r2, #40]	@ tmp481,
	ldr	r3, [ip, #4]	@ tmp494, <variable>.qmatrix
	ldrb	sl, [r9, #5]	@ zero_extendqisi2	@ tmp488, <variable>.qmatrix
	ldrb	r1, [r5, #5]	@ zero_extendqisi2	@ tmp502, <variable>.qmatrix
	and	r0, r3, #65280	@ tmp493, tmp494,
	ldrb	r3, [r4, #5]	@ zero_extendqisi2	@ tmp511, <variable>.qmatrix
	orr	r0, sl, r0	@ tmp495, tmp488, tmp493
	orr	sl, r0, r1, asl #24	@, tmp504, tmp495, tmp502,
	orr	r1, sl, r3, asl #16	@, tmp513, tmp504, tmp511,
	ldr	r3, [fp, #-56]	@, %sfp
	str	r1, [r2, #44]	@ tmp513,
	ldr	r0, [r7, #4]	@ tmp526, <variable>.qmatrix
	ldrb	sl, [r3, #6]	@ zero_extendqisi2	@ tmp520, <variable>.qmatrix
	ldrb	r1, [r8, #6]	@ zero_extendqisi2	@ tmp534, <variable>.qmatrix
	and	r0, r0, #16711680	@ tmp525, tmp526,
	ldrb	r3, [r6, #6]	@ zero_extendqisi2	@ tmp543, <variable>.qmatrix
	orr	r0, sl, r0	@ tmp527, tmp520, tmp525
	orr	r0, r0, r1, asl #24	@, tmp536, tmp527, tmp534,
	orr	r1, r0, r3, asl #8	@, tmp545, tmp536, tmp543,
	str	r1, [r2, #48]	@ tmp545,
	ldr	r3, [r4, #4]	@ tmp558, <variable>.qmatrix
	ldrb	sl, [r9, #6]	@ zero_extendqisi2	@ tmp552, <variable>.qmatrix
	ldrb	r1, [r5, #6]	@ zero_extendqisi2	@ tmp566, <variable>.qmatrix
	and	r9, r3, #16711680	@ tmp557, tmp558,
	ldrb	r3, [ip, #6]	@ zero_extendqisi2	@ tmp575, <variable>.qmatrix
	orr	r0, sl, r9	@ tmp559, tmp552, tmp557
	orr	sl, r0, r1, asl #24	@, tmp568, tmp559, tmp566,
	orr	r9, sl, r3, asl #8	@, tmp577, tmp568, tmp575,
	str	r9, [r2, #52]	@ tmp577,
	ldr	r9, [fp, #-56]	@, %sfp
	ldr	r1, [r8, #4]	@ tmp589, <variable>.qmatrix
	ldrb	r0, [r7, #7]	@ zero_extendqisi2	@ tmp595, <variable>.qmatrix
	ldrb	r8, [r9, #7]	@ zero_extendqisi2	@ tmp582, <variable>.qmatrix
	and	r3, r1, #-16777216	@ tmp588, tmp589,
	ldrb	r1, [r6, #7]	@ zero_extendqisi2	@ tmp603, <variable>.qmatrix
	orr	sl, r8, r3	@ tmp590, tmp582, tmp588
	orr	r3, sl, r0, asl #16	@, tmp598, tmp590, tmp595,
	orr	sl, r3, r1, asl #8	@, tmp606, tmp598, tmp603,
	str	sl, [r2, #56]	@ tmp606,
	ldr	sl, [fp, #-60]	@, %sfp
	ldr	r1, [r5, #4]	@ tmp618, <variable>.qmatrix
	ldrb	r0, [r4, #7]	@ zero_extendqisi2	@ tmp624, <variable>.qmatrix
	ldrb	r5, [sl, #7]	@ zero_extendqisi2	@ tmp611, <variable>.qmatrix
	and	r3, r1, #-16777216	@ tmp617, tmp618,
	ldrb	r1, [ip, #7]	@ zero_extendqisi2	@ tmp632, <variable>.qmatrix
	orr	r3, r5, r3	@ tmp619, tmp611, tmp617
	orr	ip, r3, r0, asl #16	@, tmp627, tmp619, tmp624,
	orr	r3, ip, r1, asl #8	@, tmp635, tmp627, tmp632,
	str	r3, [r2, #60]	@ tmp635,
	sub	sp, fp, #40
	ldmfd	sp, {r4, r5, r6, r7, r8, r9, sl, fp, sp, pc}
	.fnend
	.size	HEVC_WriteQmatrix_32x32, .-HEVC_WriteQmatrix_32x32
	.align	2
	.global	HEVC_WriteQmatrix_8x8
	.type	HEVC_WriteQmatrix_8x8, %function
HEVC_WriteQmatrix_8x8:
	.fnstart
.LFB1583:
	@ args = 0, pretend = 0, frame = 56
	@ frame_needed = 1, uses_anonymous_args = 0
	.movsp ip
	mov	ip, sp	@,
	stmfd	sp!, {r4, r5, r6, r7, r8, r9, sl, fp, ip, lr, pc}	@,
	.pad #4
	.save {r4, r5, r6, r7, r8, r9, sl, fp, ip, lr}
	.setfp fp, ip, #-4
	sub	fp, ip, #4	@,,
	.pad #60
	sub	sp, sp, #60	@,,
	push	{lr}
	bl	__gnu_mcount_nc
	add	r3, r1, r0, asl #6	@, tmp145, pHevcCtx, matrixId,
	add	r6, r3, #936	@, tmp139,
	str	r6, [fp, #-60]	@, %sfp
	add	r9, r3, #984	@ tmp146, tmp145,
	add	r8, r3, #968	@, tmp145,
	ldr	r7, [fp, #-60]	@, %sfp
	add	ip, r3, #952	@ tmp161, tmp145,
	str	r8, [fp, #-68]	@, %sfp
	add	r0, r0, #15	@ tmp188, matrixId,
	ldr	sl, [fp, #-68]	@, %sfp
	add	r4, r3, #992	@, tmp145,
	ldr	r5, [r9, #4]	@ tmp148, <variable>.qmatrix
	add	r1, r1, r0, asl #6	@, tmp191, pHevcCtx, tmp188,
	ldr	r8, [ip, #4]	@ tmp163, <variable>.qmatrix
	str	r4, [fp, #-76]	@, %sfp
	ldrb	r6, [r7, #4]	@ zero_extendqisi2	@ tmp141, <variable>.qmatrix
	ldrb	r0, [sl, #4]	@ zero_extendqisi2	@ tmp154, <variable>.qmatrix
	mov	r7, r8, asl #24	@ tmp165, tmp163,
	orr	r4, r6, r5, asl #24	@, tmp149, tmp141, tmp148,
	ldr	r5, [fp, #-76]	@, %sfp
	add	r8, r3, #976	@ tmp183, tmp145,
	add	sl, r3, #944	@, tmp145,
	orr	r0, r4, r0, asl #16	@, tmp157, tmp149, tmp154,
	str	sl, [fp, #-72]	@, %sfp
	orr	r4, r0, r7, lsr #16	@, tmp166, tmp157, tmp165,
	add	r6, r3, #988	@, tmp145,
	str	r4, [r2, #0]	@ tmp166,* Qmatrix
	add	r7, r3, #940	@, tmp145,
	str	r6, [fp, #-96]	@, %sfp
	add	r6, r3, #972	@ tmp406, tmp145,
	ldr	r4, [r5, #4]	@ tmp178, <variable>.qmatrix
	add	r5, r3, #956	@ tmp414, tmp145,
	str	r7, [fp, #-80]	@, %sfp
	ldrb	r0, [r8, #4]	@ zero_extendqisi2	@, <variable>.qmatrix
	ldrb	sl, [sl, #4]	@ zero_extendqisi2	@ tmp171, <variable>.qmatrix
	str	r0, [fp, #-48]	@, %sfp
	orr	r4, sl, r4, asl #24	@,, tmp171, tmp178,
	str	r4, [fp, #-56]	@, %sfp
	add	sl, r3, #948	@, tmp145,
	ldr	r7, [r1, #4]	@, <variable>.qmatrix
	add	r0, r3, #964	@ tmp444, tmp145,
	str	sl, [fp, #-64]	@, %sfp
	ldr	sl, [fp, #-56]	@, %sfp
	mov	r4, r7, asl #24	@,,
	ldr	r7, [fp, #-48]	@, %sfp
	str	r4, [fp, #-52]	@, %sfp
	add	r4, r3, #996	@ tmp429, tmp145,
	add	r3, r3, #980	@ tmp436, tmp145,
	orr	sl, sl, r7, asl #16	@,,,,
	ldr	r7, [fp, #-52]	@, %sfp
	str	sl, [fp, #-48]	@, %sfp
	orr	sl, sl, r7, lsr #16	@,,,,
	ldr	r7, [fp, #-60]	@, %sfp
	str	sl, [r2, #4]	@,
	ldrb	sl, [r7, #5]	@ zero_extendqisi2	@, <variable>.qmatrix
	str	sl, [fp, #-88]	@, %sfp
	ldrb	r7, [r9, #5]	@ zero_extendqisi2	@, <variable>.qmatrix
	str	r7, [fp, #-52]	@, %sfp
	ldr	sl, [ip, #4]	@, <variable>.qmatrix
	and	sl, sl, #65280	@,,
	str	sl, [fp, #-48]	@, %sfp
	ldr	r7, [fp, #-68]	@, %sfp
	ldrb	r7, [r7, #5]	@ zero_extendqisi2	@, <variable>.qmatrix
	str	r7, [fp, #-56]	@, %sfp
	ldr	r7, [fp, #-88]	@, %sfp
	orr	sl, r7, sl	@,,
	ldr	r7, [fp, #-52]	@, %sfp
	orr	sl, sl, r7, asl #24	@,,,,
	ldr	r7, [fp, #-56]	@, %sfp
	str	sl, [fp, #-48]	@, %sfp
	orr	sl, sl, r7, asl #16	@,,,,
	str	sl, [r2, #8]	@,
	ldr	sl, [fp, #-72]	@, %sfp
	ldrb	r7, [sl, #5]	@ zero_extendqisi2	@, <variable>.qmatrix
	ldr	sl, [fp, #-76]	@, %sfp
	str	r7, [fp, #-88]	@, %sfp
	ldrb	r7, [sl, #5]	@ zero_extendqisi2	@, <variable>.qmatrix
	str	r7, [fp, #-52]	@, %sfp
	ldr	sl, [r1, #4]	@, <variable>.qmatrix
	and	sl, sl, #65280	@,,
	str	sl, [fp, #-48]	@, %sfp
	ldrb	r7, [r8, #5]	@ zero_extendqisi2	@, <variable>.qmatrix
	str	r7, [fp, #-56]	@, %sfp
	ldr	r7, [fp, #-88]	@, %sfp
	orr	sl, r7, sl	@,,
	ldr	r7, [fp, #-52]	@, %sfp
	orr	sl, sl, r7, asl #24	@,,,,
	ldr	r7, [fp, #-56]	@, %sfp
	str	sl, [fp, #-48]	@, %sfp
	orr	sl, sl, r7, asl #16	@,,,,
	str	sl, [r2, #12]	@,
	ldr	sl, [fp, #-68]	@, %sfp
	ldr	r7, [sl, #4]	@, <variable>.qmatrix
	ldr	sl, [fp, #-60]	@, %sfp
	str	r7, [fp, #-84]	@, %sfp
	ldrb	r7, [sl, #6]	@ zero_extendqisi2	@, <variable>.qmatrix
	str	r7, [fp, #-88]	@, %sfp
	ldrb	sl, [r9, #6]	@ zero_extendqisi2	@, <variable>.qmatrix
	ldr	r7, [fp, #-84]	@, %sfp
	str	sl, [fp, #-52]	@, %sfp
	and	r7, r7, #16711680	@,,
	str	r7, [fp, #-48]	@, %sfp
	ldrb	sl, [ip, #6]	@ zero_extendqisi2	@, <variable>.qmatrix
	str	sl, [fp, #-56]	@, %sfp
	ldr	sl, [fp, #-88]	@, %sfp
	orr	r7, sl, r7	@,,
	ldr	sl, [fp, #-52]	@, %sfp
	orr	r7, r7, sl, asl #24	@,,,,
	ldr	sl, [fp, #-56]	@, %sfp
	str	r7, [fp, #-48]	@, %sfp
	orr	r7, r7, sl, asl #8	@,,,,
	str	r7, [r2, #16]	@,
	ldr	r7, [fp, #-72]	@, %sfp
	ldrb	sl, [r7, #6]	@ zero_extendqisi2	@, <variable>.qmatrix
	ldr	r7, [fp, #-76]	@, %sfp
	str	sl, [fp, #-88]	@, %sfp
	ldrb	sl, [r7, #6]	@ zero_extendqisi2	@, <variable>.qmatrix
	str	sl, [fp, #-52]	@, %sfp
	ldr	r7, [r8, #4]	@, <variable>.qmatrix
	and	r7, r7, #16711680	@,,
	str	r7, [fp, #-48]	@, %sfp
	ldrb	sl, [r1, #6]	@ zero_extendqisi2	@, <variable>.qmatrix
	str	sl, [fp, #-56]	@, %sfp
	ldr	sl, [fp, #-88]	@, %sfp
	orr	r7, sl, r7	@,,
	ldr	sl, [fp, #-52]	@, %sfp
	orr	r7, r7, sl, asl #24	@,,,,
	ldr	sl, [fp, #-56]	@, %sfp
	str	r7, [fp, #-48]	@, %sfp
	orr	r7, r7, sl, asl #8	@,,,,
	str	r7, [r2, #20]	@,
	ldr	r7, [fp, #-60]	@, %sfp
	ldr	sl, [r9, #4]	@ tmp342, <variable>.qmatrix
	ldr	r9, [fp, #-68]	@, %sfp
	ldrb	r7, [r7, #7]	@ zero_extendqisi2	@, <variable>.qmatrix
	and	sl, sl, #-16777216	@ tmp341, tmp342,
	ldrb	ip, [ip, #7]	@ zero_extendqisi2	@ tmp356, <variable>.qmatrix
	ldrb	r9, [r9, #7]	@ zero_extendqisi2	@, <variable>.qmatrix
	orr	sl, r7, sl	@ tmp343,, tmp341
	orr	r7, sl, r9, asl #16	@, tmp351, tmp343,,
	orr	sl, r7, ip, asl #8	@, tmp359, tmp351, tmp356,
	ldr	ip, [fp, #-76]	@, %sfp
	ldr	r7, [fp, #-72]	@, %sfp
	str	sl, [r2, #24]	@ tmp359,
	ldr	r9, [ip, #4]	@ tmp371, <variable>.qmatrix
	ldrb	sl, [r7, #7]	@ zero_extendqisi2	@ tmp364, <variable>.qmatrix
	ldrb	r8, [r8, #7]	@ zero_extendqisi2	@ tmp377, <variable>.qmatrix
	and	ip, r9, #-16777216	@ tmp370, tmp371,
	ldrb	r9, [r1, #7]	@ zero_extendqisi2	@ tmp386, <variable>.qmatrix
	orr	r7, sl, ip	@ tmp372, tmp364, tmp370
	orr	ip, r7, r8, asl #16	@, tmp380, tmp372, tmp377,
	orr	r1, ip, r9, asl #8	@, tmp389, tmp380, tmp386,
	str	r1, [r2, #28]	@ tmp389,
	ldr	r7, [fp, #-96]	@, %sfp
	ldr	r8, [fp, #-80]	@, %sfp
	ldr	ip, [r5, #4]	@ tmp416, <variable>.qmatrix
	ldr	sl, [r7, #4]	@ tmp401, <variable>.qmatrix
	ldrb	r9, [r8, #4]	@ zero_extendqisi2	@ tmp394, <variable>.qmatrix
	ldrb	r1, [r6, #4]	@ zero_extendqisi2	@ tmp407, <variable>.qmatrix
	orr	r7, r9, sl, asl #24	@, tmp402, tmp394, tmp401,
	mov	r9, ip, asl #24	@ tmp418, tmp416,
	orr	r8, r7, r1, asl #16	@, tmp410, tmp402, tmp407,
	orr	r7, r8, r9, lsr #16	@, tmp419, tmp410, tmp418,
	str	r7, [r2, #32]	@ tmp419,
	ldr	r7, [fp, #-64]	@, %sfp
	ldr	sl, [r4, #4]	@ tmp431, <variable>.qmatrix
	ldr	r9, [r0, #4]	@ tmp446, <variable>.qmatrix
	ldrb	ip, [r7, #4]	@ zero_extendqisi2	@ tmp424, <variable>.qmatrix
	ldrb	r1, [r3, #4]	@ zero_extendqisi2	@ tmp437, <variable>.qmatrix
	orr	r8, ip, sl, asl #24	@, tmp432, tmp424, tmp431,
	mov	ip, r9, asl #24	@ tmp448, tmp446,
	orr	sl, r8, r1, asl #16	@, tmp440, tmp432, tmp437,
	ldr	r1, [fp, #-96]	@, %sfp
	orr	r9, sl, ip, lsr #16	@, tmp449, tmp440, tmp448,
	str	r9, [r2, #36]	@ tmp449,
	ldr	r9, [fp, #-80]	@, %sfp
	ldr	r8, [r5, #4]	@ tmp462, <variable>.qmatrix
	ldrb	ip, [r1, #5]	@ zero_extendqisi2	@ tmp470, <variable>.qmatrix
	ldrb	sl, [r9, #5]	@ zero_extendqisi2	@ tmp456, <variable>.qmatrix
	and	r8, r8, #65280	@ tmp461, tmp462,
	ldrb	r1, [r6, #5]	@ zero_extendqisi2	@ tmp479, <variable>.qmatrix
	orr	r8, sl, r8	@ tmp463, tmp456, tmp461
	orr	r8, r8, ip, asl #24	@, tmp472, tmp463, tmp470,
	orr	ip, r8, r1, asl #16	@, tmp481, tmp472, tmp479,
	str	ip, [r2, #40]	@ tmp481,
	ldr	r1, [r0, #4]	@ tmp494, <variable>.qmatrix
	ldrb	ip, [r4, #5]	@ zero_extendqisi2	@ tmp502, <variable>.qmatrix
	ldrb	sl, [r7, #5]	@ zero_extendqisi2	@ tmp488, <variable>.qmatrix
	and	r8, r1, #65280	@ tmp493, tmp494,
	ldrb	r1, [r3, #5]	@ zero_extendqisi2	@ tmp511, <variable>.qmatrix
	orr	r7, sl, r8	@ tmp495, tmp488, tmp493
	orr	r8, r7, ip, asl #24	@, tmp504, tmp495, tmp502,
	orr	r7, r8, r1, asl #16	@, tmp513, tmp504, tmp511,
	str	r7, [r2, #44]	@ tmp513,
	ldr	r7, [fp, #-96]	@, %sfp
	ldr	r1, [r6, #4]	@ tmp526, <variable>.qmatrix
	ldrb	sl, [r9, #6]	@ zero_extendqisi2	@ tmp520, <variable>.qmatrix
	ldrb	ip, [r7, #6]	@ zero_extendqisi2	@ tmp534, <variable>.qmatrix
	and	r8, r1, #16711680	@ tmp525, tmp526,
	ldrb	r1, [r5, #6]	@ zero_extendqisi2	@ tmp543, <variable>.qmatrix
	orr	r9, sl, r8	@ tmp527, tmp520, tmp525
	orr	r8, r9, ip, asl #24	@, tmp536, tmp527, tmp534,
	orr	r9, r8, r1, asl #8	@, tmp545, tmp536, tmp543,
	str	r9, [r2, #48]	@ tmp545,
	ldr	r9, [fp, #-64]	@, %sfp
	ldr	r1, [r3, #4]	@ tmp558, <variable>.qmatrix
	ldrb	ip, [r4, #6]	@ zero_extendqisi2	@ tmp566, <variable>.qmatrix
	ldrb	sl, [r9, #6]	@ zero_extendqisi2	@ tmp552, <variable>.qmatrix
	and	r8, r1, #16711680	@ tmp557, tmp558,
	ldrb	r1, [r0, #6]	@ zero_extendqisi2	@ tmp575, <variable>.qmatrix
	orr	r8, sl, r8	@ tmp559, tmp552, tmp557
	orr	r8, r8, ip, asl #24	@, tmp568, tmp559, tmp566,
	orr	sl, r8, r1, asl #8	@, tmp577, tmp568, tmp575,
	str	sl, [r2, #52]	@ tmp577,
	ldr	sl, [fp, #-80]	@, %sfp
	ldr	ip, [r7, #4]	@ tmp589, <variable>.qmatrix
	ldrb	r6, [r6, #7]	@ zero_extendqisi2	@ tmp595, <variable>.qmatrix
	ldrb	r7, [sl, #7]	@ zero_extendqisi2	@ tmp582, <variable>.qmatrix
	and	r1, ip, #-16777216	@ tmp588, tmp589,
	ldrb	ip, [r5, #7]	@ zero_extendqisi2	@ tmp603, <variable>.qmatrix
	orr	r1, r7, r1	@ tmp590, tmp582, tmp588
	orr	r1, r1, r6, asl #16	@, tmp598, tmp590, tmp595,
	orr	r1, r1, ip, asl #8	@, tmp606, tmp598, tmp603,
	str	r1, [r2, #56]	@ tmp606,
	ldr	r1, [r4, #4]	@ tmp618, <variable>.qmatrix
	ldrb	ip, [r3, #7]	@ zero_extendqisi2	@ tmp624, <variable>.qmatrix
	ldrb	r4, [r9, #7]	@ zero_extendqisi2	@ tmp611, <variable>.qmatrix
	and	r3, r1, #-16777216	@ tmp617, tmp618,
	ldrb	r1, [r0, #7]	@ zero_extendqisi2	@ tmp632, <variable>.qmatrix
	orr	r3, r4, r3	@ tmp619, tmp611, tmp617
	orr	r0, r3, ip, asl #16	@, tmp627, tmp619, tmp624,
	orr	r3, r0, r1, asl #8	@, tmp635, tmp627, tmp632,
	str	r3, [r2, #60]	@ tmp635,
	sub	sp, fp, #40
	ldmfd	sp, {r4, r5, r6, r7, r8, r9, sl, fp, sp, pc}
	.fnend
	.size	HEVC_WriteQmatrix_8x8, .-HEVC_WriteQmatrix_8x8
	.align	2
	.global	HEVC_WriteQmatrix_16x16
	.type	HEVC_WriteQmatrix_16x16, %function
HEVC_WriteQmatrix_16x16:
	.fnstart
.LFB1584:
	@ args = 0, pretend = 0, frame = 48
	@ frame_needed = 1, uses_anonymous_args = 0
	.movsp ip
	mov	ip, sp	@,
	stmfd	sp!, {r4, r5, r6, r7, r8, r9, sl, fp, ip, lr, pc}	@,
	.pad #4
	.save {r4, r5, r6, r7, r8, r9, sl, fp, ip, lr}
	.setfp fp, ip, #-4
	sub	fp, ip, #4	@,,
	.pad #52
	sub	sp, sp, #52	@,,
	push	{lr}
	bl	__gnu_mcount_nc
	add	r7, r0, #21	@ tmp143, matrixId,
	add	r8, r0, #12	@ tmp136, matrixId,
	add	r0, r1, r0, asl #6	@, tmp153, pHevcCtx, matrixId,
	add	r3, r1, r7, asl #6	@,, pHevcCtx, tmp143,
	add	r5, r0, #1344	@, tmp153,
	add	ip, r1, r8, asl #6	@, tmp139, pHevcCtx, tmp136,
	add	r1, r0, #1328	@ tmp154, tmp153,
	str	r3, [fp, #-68]	@, %sfp
	add	r4, ip, #552	@, tmp139,
	add	r1, r1, #8	@ tmp154, tmp154,
	str	r4, [fp, #-64]	@, %sfp
	ldr	r9, [r3, #4]	@ tmp149, <variable>.qmatrix
	add	r3, r0, #1360	@ tmp184, tmp153,
	str	r5, [fp, #-88]	@, %sfp
	add	r3, r3, #8	@ tmp184, tmp184,
	ldr	r7, [r0, #1332]	@ tmp164, <variable>.qmatrix
	ldr	sl, [fp, #-88]	@, %sfp
	ldrb	r8, [r4, #4]	@ zero_extendqisi2	@ tmp141, <variable>.qmatrix
	ldrb	r5, [r1, #4]	@ zero_extendqisi2	@ tmp155, <variable>.qmatrix
	add	r6, sl, #8	@,,
	str	r6, [fp, #-88]	@, %sfp
	orr	ip, r8, r9, asl #24	@, tmp150, tmp141, tmp149,
	mov	sl, r7, asl #24	@ tmp166, tmp164,
	ldr	r7, [fp, #-88]	@, %sfp
	orr	r4, ip, r5, asl #16	@, tmp158, tmp150, tmp155,
	add	ip, r0, #1312	@, tmp153,
	orr	r9, r4, sl, lsr #16	@, tmp167, tmp158, tmp166,
	str	r9, [r2, #0]	@ tmp167,* Qmatrix
	ldr	r5, [r0, #1380]	@ tmp179, <variable>.qmatrix
	add	r8, r0, #1344	@ tmp399, tmp153,
	ldr	sl, [r0, #1364]	@ tmp194, <variable>.qmatrix
	add	r6, r0, #1328	@ tmp414, tmp153,
	ldrb	r4, [r7, #4]	@ zero_extendqisi2	@ tmp172, <variable>.qmatrix
	add	r8, r8, #4	@ tmp399, tmp399,
	str	ip, [fp, #-56]	@, %sfp
	add	r6, r6, #4	@ tmp414, tmp414,
	ldrb	ip, [r3, #4]	@ zero_extendqisi2	@ tmp185, <variable>.qmatrix
	orr	r4, r4, r5, asl #24	@, tmp180, tmp172, tmp179,
	mov	r5, sl, asl #24	@ tmp196, tmp194,
	ldr	sl, [fp, #-56]	@, %sfp
	add	r7, r0, #1328	@ tmp406, tmp153,
	add	r9, sl, #12	@,,
	orr	sl, r4, ip, asl #16	@, tmp188, tmp180, tmp185,
	ldr	r4, [fp, #-64]	@, %sfp
	add	r7, r7, #12	@ tmp406, tmp406,
	str	r9, [fp, #-56]	@, %sfp
	orr	r9, sl, r5, lsr #16	@, tmp197, tmp188, tmp196,
	str	r9, [r2, #4]	@ tmp197,
	add	ip, r0, #1360	@ tmp444, tmp153,
	ldrb	r9, [r4, #5]	@ zero_extendqisi2	@ tmp205, <variable>.qmatrix
	add	r5, r0, #1376	@ tmp429, tmp153,
	ldr	r4, [fp, #-68]	@, %sfp
	add	r5, r5, #4	@ tmp429, tmp429,
	ldr	sl, [r0, #1332]	@ tmp211, <variable>.qmatrix
	add	ip, ip, #4	@ tmp444, tmp444,
	ldrb	r4, [r4, #5]	@ zero_extendqisi2	@, <variable>.qmatrix
	str	r4, [fp, #-48]	@, %sfp
	and	r4, sl, #65280	@ tmp210, tmp211,
	ldrb	sl, [r1, #5]	@ zero_extendqisi2	@, <variable>.qmatrix
	orr	r9, r9, r4	@ tmp212, tmp205, tmp210
	ldr	r4, [fp, #-48]	@, %sfp
	str	sl, [fp, #-52]	@, %sfp
	add	sl, r0, #1344	@, tmp153,
	str	sl, [fp, #-60]	@, %sfp
	orr	r9, r9, r4, asl #24	@,, tmp212,,
	ldr	sl, [fp, #-52]	@, %sfp
	add	r4, r0, #1360	@ tmp436, tmp153,
	add	r4, r4, #12	@ tmp436, tmp436,
	orr	r9, r9, sl, asl #16	@,,,,
	str	r9, [r2, #8]	@,
	ldr	r9, [fp, #-60]	@, %sfp
	add	sl, r9, #12	@,,
	ldr	r9, [fp, #-88]	@, %sfp
	str	sl, [fp, #-60]	@, %sfp
	ldrb	sl, [r9, #5]	@ zero_extendqisi2	@, <variable>.qmatrix
	str	sl, [fp, #-80]	@, %sfp
	ldrb	r9, [r0, #1381]	@ zero_extendqisi2	@, <variable>.qmatrix
	str	r9, [fp, #-52]	@, %sfp
	ldr	sl, [r0, #1364]	@, <variable>.qmatrix
	and	sl, sl, #65280	@,,
	str	sl, [fp, #-48]	@, %sfp
	ldrb	r9, [r3, #5]	@ zero_extendqisi2	@, <variable>.qmatrix
	str	r9, [fp, #-72]	@, %sfp
	ldr	r9, [fp, #-80]	@, %sfp
	orr	sl, r9, sl	@,,
	ldr	r9, [fp, #-52]	@, %sfp
	orr	sl, sl, r9, asl #24	@,,,,
	ldr	r9, [fp, #-72]	@, %sfp
	str	sl, [fp, #-48]	@, %sfp
	orr	sl, sl, r9, asl #16	@,,,,
	str	sl, [r2, #12]	@,
	ldr	sl, [fp, #-64]	@, %sfp
	ldrb	r9, [sl, #6]	@ zero_extendqisi2	@, <variable>.qmatrix
	ldr	sl, [fp, #-68]	@, %sfp
	str	r9, [fp, #-80]	@, %sfp
	ldrb	r9, [sl, #6]	@ zero_extendqisi2	@, <variable>.qmatrix
	str	r9, [fp, #-52]	@, %sfp
	ldr	sl, [r1, #4]	@, <variable>.qmatrix
	and	sl, sl, #16711680	@,,
	str	sl, [fp, #-48]	@, %sfp
	ldrb	r9, [r0, #1334]	@ zero_extendqisi2	@, <variable>.qmatrix
	str	r9, [fp, #-72]	@, %sfp
	ldr	r9, [fp, #-80]	@, %sfp
	orr	sl, r9, sl	@,,
	ldr	r9, [fp, #-52]	@, %sfp
	orr	sl, sl, r9, asl #24	@,,,,
	ldr	r9, [fp, #-72]	@, %sfp
	str	sl, [fp, #-48]	@, %sfp
	orr	sl, sl, r9, asl #8	@,,,,
	ldr	r9, [fp, #-88]	@, %sfp
	str	sl, [r2, #16]	@,
	ldrb	sl, [r9, #6]	@ zero_extendqisi2	@, <variable>.qmatrix
	str	sl, [fp, #-80]	@, %sfp
	ldrb	r9, [r0, #1382]	@ zero_extendqisi2	@, <variable>.qmatrix
	str	r9, [fp, #-52]	@, %sfp
	ldr	sl, [r3, #4]	@, <variable>.qmatrix
	and	sl, sl, #16711680	@,,
	str	sl, [fp, #-48]	@, %sfp
	ldrb	r9, [r0, #1366]	@ zero_extendqisi2	@, <variable>.qmatrix
	str	r9, [fp, #-72]	@, %sfp
	ldr	r9, [fp, #-80]	@, %sfp
	orr	sl, r9, sl	@,,
	ldr	r9, [fp, #-52]	@, %sfp
	orr	sl, sl, r9, asl #24	@,,,,
	ldr	r9, [fp, #-72]	@, %sfp
	str	sl, [fp, #-48]	@, %sfp
	orr	sl, sl, r9, asl #8	@,,,,
	str	sl, [r2, #20]	@,
	ldr	sl, [fp, #-68]	@, %sfp
	ldr	r9, [fp, #-64]	@, %sfp
	ldr	sl, [sl, #4]	@, <variable>.qmatrix
	str	sl, [fp, #-48]	@, %sfp
	and	sl, sl, #-16777216	@ tmp342,,
	ldrb	r1, [r1, #7]	@ zero_extendqisi2	@, <variable>.qmatrix
	ldrb	r9, [r9, #7]	@ zero_extendqisi2	@, <variable>.qmatrix
	str	r1, [fp, #-52]	@, %sfp
	orr	sl, r9, sl	@ tmp344,, tmp342
	ldr	r9, [fp, #-52]	@, %sfp
	ldrb	r1, [r0, #1335]	@ zero_extendqisi2	@, <variable>.qmatrix
	orr	sl, sl, r9, asl #16	@, tmp352, tmp344,,
	ldr	r9, [fp, #-88]	@, %sfp
	orr	sl, sl, r1, asl #8	@, tmp360, tmp352,,
	str	sl, [r2, #24]	@ tmp360,
	ldr	sl, [r0, #1380]	@ tmp372, <variable>.qmatrix
	ldrb	r1, [r9, #7]	@ zero_extendqisi2	@ tmp365, <variable>.qmatrix
	ldrb	r3, [r3, #7]	@ zero_extendqisi2	@ tmp378, <variable>.qmatrix
	and	sl, sl, #-16777216	@ tmp371, tmp372,
	ldrb	r9, [r0, #1367]	@ zero_extendqisi2	@ tmp386, <variable>.qmatrix
	orr	r1, r1, sl	@ tmp373, tmp365, tmp371
	orr	sl, r1, r3, asl #16	@, tmp381, tmp373, tmp378,
	ldr	r1, [fp, #-56]	@, %sfp
	orr	r0, sl, r9, asl #8	@, tmp389, tmp381, tmp386,
	str	r0, [r2, #28]	@ tmp389,
	ldr	sl, [r8, #4]	@ tmp401, <variable>.qmatrix
	ldr	r9, [r6, #4]	@ tmp416, <variable>.qmatrix
	ldrb	r3, [r1, #4]	@ zero_extendqisi2	@ tmp394, <variable>.qmatrix
	ldrb	r0, [r7, #4]	@ zero_extendqisi2	@ tmp407, <variable>.qmatrix
	orr	r1, r3, sl, asl #24	@, tmp402, tmp394, tmp401,
	mov	r3, r9, asl #24	@ tmp418, tmp416,
	orr	sl, r1, r0, asl #16	@, tmp410, tmp402, tmp407,
	orr	r9, sl, r3, lsr #16	@, tmp419, tmp410, tmp418,
	str	r9, [r2, #32]	@ tmp419,
	ldr	r9, [fp, #-60]	@, %sfp
	ldr	r1, [r5, #4]	@ tmp431, <variable>.qmatrix
	ldr	sl, [ip, #4]	@ tmp446, <variable>.qmatrix
	ldrb	r3, [r9, #4]	@ zero_extendqisi2	@ tmp424, <variable>.qmatrix
	ldrb	r0, [r4, #4]	@ zero_extendqisi2	@ tmp437, <variable>.qmatrix
	orr	r1, r3, r1, asl #24	@, tmp432, tmp424, tmp431,
	mov	r3, sl, asl #24	@ tmp448, tmp446,
	orr	sl, r1, r0, asl #16	@, tmp440, tmp432, tmp437,
	ldr	r1, [fp, #-56]	@, %sfp
	orr	r0, sl, r3, lsr #16	@, tmp449, tmp440, tmp448,
	str	r0, [r2, #36]	@ tmp449,
	ldr	r3, [r6, #4]	@ tmp462, <variable>.qmatrix
	ldrb	sl, [r1, #5]	@ zero_extendqisi2	@ tmp456, <variable>.qmatrix
	ldrb	r1, [r8, #5]	@ zero_extendqisi2	@ tmp470, <variable>.qmatrix
	and	r0, r3, #65280	@ tmp461, tmp462,
	ldrb	r3, [r7, #5]	@ zero_extendqisi2	@ tmp479, <variable>.qmatrix
	orr	r0, sl, r0	@ tmp463, tmp456, tmp461
	orr	r0, r0, r1, asl #24	@, tmp472, tmp463, tmp470,
	orr	r1, r0, r3, asl #16	@, tmp481, tmp472, tmp479,
	str	r1, [r2, #40]	@ tmp481,
	ldr	r3, [ip, #4]	@ tmp494, <variable>.qmatrix
	ldrb	sl, [r9, #5]	@ zero_extendqisi2	@ tmp488, <variable>.qmatrix
	ldrb	r1, [r5, #5]	@ zero_extendqisi2	@ tmp502, <variable>.qmatrix
	and	r0, r3, #65280	@ tmp493, tmp494,
	ldrb	r3, [r4, #5]	@ zero_extendqisi2	@ tmp511, <variable>.qmatrix
	orr	r0, sl, r0	@ tmp495, tmp488, tmp493
	orr	sl, r0, r1, asl #24	@, tmp504, tmp495, tmp502,
	orr	r1, sl, r3, asl #16	@, tmp513, tmp504, tmp511,
	ldr	r3, [fp, #-56]	@, %sfp
	str	r1, [r2, #44]	@ tmp513,
	ldr	r0, [r7, #4]	@ tmp526, <variable>.qmatrix
	ldrb	sl, [r3, #6]	@ zero_extendqisi2	@ tmp520, <variable>.qmatrix
	ldrb	r1, [r8, #6]	@ zero_extendqisi2	@ tmp534, <variable>.qmatrix
	and	r0, r0, #16711680	@ tmp525, tmp526,
	ldrb	r3, [r6, #6]	@ zero_extendqisi2	@ tmp543, <variable>.qmatrix
	orr	r0, sl, r0	@ tmp527, tmp520, tmp525
	orr	r0, r0, r1, asl #24	@, tmp536, tmp527, tmp534,
	orr	r1, r0, r3, asl #8	@, tmp545, tmp536, tmp543,
	str	r1, [r2, #48]	@ tmp545,
	ldr	r3, [r4, #4]	@ tmp558, <variable>.qmatrix
	ldrb	sl, [r9, #6]	@ zero_extendqisi2	@ tmp552, <variable>.qmatrix
	ldrb	r1, [r5, #6]	@ zero_extendqisi2	@ tmp566, <variable>.qmatrix
	and	r9, r3, #16711680	@ tmp557, tmp558,
	ldrb	r3, [ip, #6]	@ zero_extendqisi2	@ tmp575, <variable>.qmatrix
	orr	r0, sl, r9	@ tmp559, tmp552, tmp557
	orr	sl, r0, r1, asl #24	@, tmp568, tmp559, tmp566,
	orr	r9, sl, r3, asl #8	@, tmp577, tmp568, tmp575,
	str	r9, [r2, #52]	@ tmp577,
	ldr	r9, [fp, #-56]	@, %sfp
	ldr	r1, [r8, #4]	@ tmp589, <variable>.qmatrix
	ldrb	r0, [r7, #7]	@ zero_extendqisi2	@ tmp595, <variable>.qmatrix
	ldrb	r8, [r9, #7]	@ zero_extendqisi2	@ tmp582, <variable>.qmatrix
	and	r3, r1, #-16777216	@ tmp588, tmp589,
	ldrb	r1, [r6, #7]	@ zero_extendqisi2	@ tmp603, <variable>.qmatrix
	orr	sl, r8, r3	@ tmp590, tmp582, tmp588
	orr	r3, sl, r0, asl #16	@, tmp598, tmp590, tmp595,
	orr	sl, r3, r1, asl #8	@, tmp606, tmp598, tmp603,
	str	sl, [r2, #56]	@ tmp606,
	ldr	sl, [fp, #-60]	@, %sfp
	ldr	r1, [r5, #4]	@ tmp618, <variable>.qmatrix
	ldrb	r0, [r4, #7]	@ zero_extendqisi2	@ tmp624, <variable>.qmatrix
	ldrb	r5, [sl, #7]	@ zero_extendqisi2	@ tmp611, <variable>.qmatrix
	and	r3, r1, #-16777216	@ tmp617, tmp618,
	ldrb	r1, [ip, #7]	@ zero_extendqisi2	@ tmp632, <variable>.qmatrix
	orr	r3, r5, r3	@ tmp619, tmp611, tmp617
	orr	ip, r3, r0, asl #16	@, tmp627, tmp619, tmp624,
	orr	r3, ip, r1, asl #8	@, tmp635, tmp627, tmp632,
	str	r3, [r2, #60]	@ tmp635,
	sub	sp, fp, #40
	ldmfd	sp, {r4, r5, r6, r7, r8, r9, sl, fp, sp, pc}
	.fnend
	.size	HEVC_WriteQmatrix_16x16, .-HEVC_WriteQmatrix_16x16
	.global	__aeabi_idivmod
	.global	__aeabi_idiv
	.align	2
	.global	HEVC_CtbRsAddrToTsAddr
	.type	HEVC_CtbRsAddrToTsAddr, %function
HEVC_CtbRsAddrToTsAddr:
	.fnstart
.LFB1585:
	@ args = 0, pretend = 0, frame = 560
	@ frame_needed = 1, uses_anonymous_args = 0
	.movsp ip
	mov	ip, sp	@,
	stmfd	sp!, {r4, r5, r6, r7, r8, r9, sl, fp, ip, lr, pc}	@,
	.pad #4
	.save {r4, r5, r6, r7, r8, r9, sl, fp, ip, lr}
	.setfp fp, ip, #-4
	sub	fp, ip, #4	@,,
	.pad #564
	sub	sp, sp, #564	@,,
	push	{lr}
	bl	__gnu_mcount_nc
	movw	r2, #:lower16:2117117	@ tmp185,
	movt	r2, #:upper16:2117117	@ tmp185,
	mov	r5, r1	@ CtbAddrRs, CtbAddrRs
	ldrb	r3, [r0, r2]	@ zero_extendqisi2	@ <variable>.CurrPPS.tiles_enabled_flag, <variable>.CurrPPS.tiles_enabled_flag
	cmp	r3, #0	@ <variable>.CurrPPS.tiles_enabled_flag,
	moveq	r0, r1	@ CtbAddrTs, CtbAddrRs
	beq	.L128	@,
	movw	lr, #:lower16:2117176	@ tmp189,
	movt	lr, #:upper16:2117176	@ tmp189,
	movw	ip, #:lower16:2117172	@ tmp191,
	movt	ip, #:upper16:2117172	@ tmp191,
	ldr	r8, [r0, lr]	@ <variable>.CurrPPS.num_tile_rows, <variable>.CurrPPS.num_tile_rows
	movw	r1, #:lower16:2044448	@ tmp187,
	ldr	r9, [r0, ip]	@ <variable>.CurrPPS.num_tile_columns, <variable>.CurrPPS.num_tile_columns
	movt	r1, #:upper16:2044448	@ tmp187,
	subs	r4, r8, #1	@, <variable>.CurrPPS.num_tile_rows,
	movw	r6, #:lower16:2044524	@ tmp188,
	movw	r7, #:lower16:2117119	@ tmp193,
	movt	r6, #:upper16:2044524	@ tmp188,
	movt	r7, #:upper16:2117119	@ tmp193,
	str	r4, [fp, #-592]	@, %sfp
	sub	r9, r9, #1	@ D.43155, <variable>.CurrPPS.num_tile_columns,
	ldr	r3, [r0, r6]	@ D.43148, <variable>.CurrSPS.log2_ctb_sizeY
	ldr	r4, [r0, r1]	@ D.43145, <variable>.CurrSPS.pic_width_in_luma_samples
	ldrb	r6, [r0, r7]	@ zero_extendqisi2	@ D.43156, <variable>.CurrPPS.uniform_spacing_flag
	bmi	.L129	@,
	movw	r1, #:lower16:2117964	@ ivtmp.1767,
	movt	r1, #:upper16:2117964	@ ivtmp.1767,
	ldr	r8, [fp, #-592]	@, %sfp
	add	r1, r0, r1	@ ivtmp.1767, pHevcCtx, ivtmp.1767
	sub	r2, fp, #568	@ ivtmp.1771,,
	ldr	ip, [fp, #-592]	@, %sfp
	ldr	r7, [r1], #4	@ tmp196, <variable>.CurrPPS.row_bd
	cmp	r8, #1	@,
	mov	lr, #1	@ idx,
	and	r8, ip, #1	@ tmp262,,
	sub	r7, r7, #1	@ tmp197, tmp196,
	add	ip, r2, #4	@ ivtmp.1771, ivtmp.1771,
	str	r7, [r2, #12]	@ tmp197, pTileInfo.row_height_minus1
	blt	.L129	@,
	cmp	r8, #0	@ tmp262,
	beq	.L194	@,
	ldr	sl, [fp, #-592]	@, %sfp
	mov	lr, #2	@ idx,
	ldr	r8, [r1], #4	@ tmp302, <variable>.CurrPPS.row_bd
	cmp	sl, lr	@, idx
	sub	r2, r8, #1	@ tmp303, tmp302,
	str	r2, [ip, #12]	@ tmp303, pTileInfo.row_height_minus1
	add	ip, ip, #4	@ ivtmp.1771, ivtmp.1771,
	blt	.L129	@,
.L194:
	ldr	r8, [fp, #-592]	@ D.43153, %sfp
.L130:
	mov	r2, r1	@ tmp264, ivtmp.1767
	add	lr, lr, #2	@ idx, idx,
	ldr	sl, [r2], #4	@ tmp269, <variable>.CurrPPS.row_bd
	add	r7, ip, #4	@ tmp265, ivtmp.1771,
	cmp	r8, lr	@ D.43153, idx
	sub	sl, sl, #1	@ tmp270, tmp269,
	str	sl, [ip, #12]	@ tmp270, pTileInfo.row_height_minus1
	ldr	sl, [r1, #4]	@ tmp274, <variable>.CurrPPS.row_bd
	add	ip, r7, #4	@ ivtmp.1771, tmp265,
	add	r1, r2, #4	@ ivtmp.1767, tmp264,
	sub	r2, sl, #1	@ tmp275, tmp274,
	str	r2, [r7, #12]	@ tmp275, pTileInfo.row_height_minus1
	bge	.L130	@,
.L129:
	cmp	r9, #0	@ D.43155,
	blt	.L131	@,
	movw	ip, #:lower16:2117708	@ ivtmp.1760,
	movt	ip, #:upper16:2117708	@ ivtmp.1760,
	add	r1, r0, ip	@ ivtmp.1760, pHevcCtx, ivtmp.1760
	sub	r8, fp, #568	@ ivtmp.1764,,
	cmp	r9, #1	@ D.43155,
	and	r7, r9, #1	@ tmp257, D.43155,
	ldr	r2, [r1], #4	@ tmp200, <variable>.CurrPPS.column_bd
	add	r0, r8, #4	@ ivtmp.1764, ivtmp.1764,
	mov	ip, #1	@ idx.1777,
	sub	lr, r2, #1	@ tmp201, tmp200,
	str	lr, [r8, #268]	@ tmp201, pTileInfo.column_width_minus1
	blt	.L131	@,
	cmp	r7, #0	@ tmp257,
	beq	.L132	@,
	ldr	r7, [r1], #4	@ tmp300, <variable>.CurrPPS.column_bd
	mov	ip, #2	@ idx.1777,
	cmp	r9, ip	@ D.43155, idx.1777
	sub	r8, r7, #1	@ tmp301, tmp300,
	str	r8, [r0, #268]	@ tmp301, pTileInfo.column_width_minus1
	add	r0, r0, #4	@ ivtmp.1764, ivtmp.1764,
	blt	.L131	@,
.L132:
	mov	r2, r1	@ tmp259, ivtmp.1760
	add	ip, ip, #2	@ idx.1777, idx.1777,
	ldr	r7, [r2], #4	@ tmp279, <variable>.CurrPPS.column_bd
	add	lr, r0, #4	@ tmp260, ivtmp.1764,
	cmp	r9, ip	@ D.43155, idx.1777
	sub	r8, r7, #1	@ tmp280, tmp279,
	str	r8, [r0, #268]	@ tmp280, pTileInfo.column_width_minus1
	ldr	r7, [r1, #4]	@ tmp284, <variable>.CurrPPS.column_bd
	add	r0, lr, #4	@ ivtmp.1764, tmp260,
	add	r1, r2, #4	@ ivtmp.1760, tmp259,
	sub	r8, r7, #1	@ tmp285, tmp284,
	str	r8, [lr, #268]	@ tmp285, pTileInfo.column_width_minus1
	bge	.L132	@,
.L131:
	mov	r1, #1	@ tmp202,
	mov	r0, r4	@, D.43145
	mov	r8, r1, asl r3	@ ctb_size_y, tmp202,
	mov	r1, r8	@, ctb_size_y
	bl	__aeabi_idivmod	@
	mov	r0, r4	@, D.43145
	subs	r4, r1, #0	@ tmp210,,
	movne	r4, #1	@ tmp210
	mov	r1, r8	@, ctb_size_y
	bl	__aeabi_idiv	@
	add	r7, r4, r0	@ pic_width_in_ctb_y, tmp210,
	mov	r0, r5	@, CtbAddrRs
	mov	r1, r7	@, pic_width_in_ctb_y
	bl	__aeabi_idivmod	@
	mov	r0, r5	@, CtbAddrRs
	mov	r4, r1	@ AbsWidthInCtb,
	mov	r1, r7	@, pic_width_in_ctb_y
	bl	__aeabi_idiv	@
	cmp	r6, #0	@ D.43156,
	str	r0, [fp, #-576]	@, %sfp
	beq	.L197	@,
	ldr	r3, [fp, #-592]	@, %sfp
	cmp	r3, #0	@,
	blt	.L134	@,
	cmp	r9, #0	@ D.43155,
	mov	r1, #0	@,
	sub	r6, fp, #568	@,,
	str	r1, [fp, #-588]	@, %sfp
	str	r6, [fp, #-584]	@, %sfp
	mov	r8, r1	@ TileCtbAddrInTS, NextTileCtbAddrInTS
	str	r1, [fp, #-580]	@, %sfp
	mov	r7, r1	@ TileHeightInCtb, TileCtbAddrInTS
	mov	r2, r1	@ TileWidthInCtb, TileHeightInCtb
	mov	r6, r4	@ AbsWidthInCtb, AbsWidthInCtb
	blt	.L198	@,
.L143:
	ldr	r2, [fp, #-584]	@, %sfp
	tst	r9, #1	@ D.43155,
	ldr	sl, [fp, #-588]	@, %sfp
	mov	r3, #0	@ leftUpOfTilePosXInCtb,
	sub	ip, fp, #568	@ ivtmp.1742,,
	mov	r8, r1	@ NextTileCtbAddrInTS.1795, NextTileCtbAddrInTS
	ldr	r5, [r2, #12]	@ tmp229, pTileInfo.row_height_minus1
	mov	r4, r3	@ tile_x, leftUpOfTilePosXInCtb
	streq	r9, [fp, #-600]	@ D.43155, %sfp
	add	r7, r5, #1	@ TileHeightInCtb, tmp229,
	add	r5, sl, r7	@ leftUpOfTilePosYInCtb,, TileHeightInCtb
	beq	.L145	@,
	ldr	lr, [fp, #-300]	@ tmp296, pTileInfo.column_width_minus1
	add	r2, lr, #1	@ TileWidthInCtb, tmp296,
	cmp	r6, r2	@ AbsWidthInCtb, TileWidthInCtb
	mla	r1, r2, r7, r1	@ NextTileCtbAddrInTS, TileWidthInCtb, TileHeightInCtb, NextTileCtbAddrInTS
	mov	r0, r2	@ leftUpOfTilePosXInCtb.1779, TileWidthInCtb
	bge	.L159	@,
	ldr	r4, [fp, #-576]	@, %sfp
	mov	sl, r5	@ leftUpOfTilePosYInCtb, leftUpOfTilePosYInCtb
	cmp	r4, r5	@, leftUpOfTilePosYInCtb
	blt	.L154	@,
.L159:
	mov	r4, #1	@ tile_x,
	cmp	r9, r4	@ D.43155, tile_x
	sub	r3, fp, #568	@,,
	strge	r9, [fp, #-600]	@ D.43155, %sfp
	add	ip, r3, #4	@ ivtmp.1742,,
	movge	r8, r1	@ NextTileCtbAddrInTS.1795, NextTileCtbAddrInTS
	movge	r3, r0	@ leftUpOfTilePosXInCtb, leftUpOfTilePosXInCtb.1779
	bge	.L145	@,
	b	.L183	@
.L139:
	ldr	r9, [ip, #268]	@ tmp225, pTileInfo.column_width_minus1
	mov	r8, r1	@ NextTileCtbAddrInTS.1795, NextTileCtbAddrInTS
	add	r2, r9, #1	@ TileWidthInCtb, tmp225,
	add	r0, r3, r2	@ leftUpOfTilePosXInCtb.1779, leftUpOfTilePosXInCtb, TileWidthInCtb
	cmp	r6, r0	@ AbsWidthInCtb, leftUpOfTilePosXInCtb.1779
	mla	r1, r2, r7, r1	@ NextTileCtbAddrInTS, TileWidthInCtb, TileHeightInCtb, NextTileCtbAddrInTS
	bge	.L162	@,
	ldr	r9, [fp, #-576]	@, %sfp
	mov	sl, r5	@ leftUpOfTilePosYInCtb, leftUpOfTilePosYInCtb
	cmp	r9, r5	@, leftUpOfTilePosYInCtb
	blt	.L189	@,
.L162:
	add	r4, r4, #1	@ tile_x, tmp251,
	add	ip, ip, #4	@ ivtmp.1742, tmp250,
	mov	r3, r0	@ leftUpOfTilePosXInCtb, leftUpOfTilePosXInCtb.1779
	mov	r8, r1	@ NextTileCtbAddrInTS.1795, NextTileCtbAddrInTS
.L145:
	ldr	lr, [ip, #268]	@ tmp288, pTileInfo.column_width_minus1
	add	r4, r4, #1	@ tmp251, tile_x,
	add	ip, ip, #4	@ tmp250, ivtmp.1742,
	mov	sl, r5	@ leftUpOfTilePosYInCtb, leftUpOfTilePosYInCtb
	add	r2, lr, #1	@ TileWidthInCtb, tmp288,
	add	r0, r3, r2	@ leftUpOfTilePosXInCtb.1779, leftUpOfTilePosXInCtb, TileWidthInCtb
	cmp	r6, r0	@ AbsWidthInCtb, leftUpOfTilePosXInCtb.1779
	mla	r1, r2, r7, r1	@ NextTileCtbAddrInTS, TileWidthInCtb, TileHeightInCtb, NextTileCtbAddrInTS
	bge	.L137	@,
	ldr	r9, [fp, #-576]	@, %sfp
	cmp	r9, r5	@, leftUpOfTilePosYInCtb
	blt	.L189	@,
.L137:
	ldr	sl, [fp, #-600]	@, %sfp
	mov	r3, r0	@ leftUpOfTilePosXInCtb, leftUpOfTilePosXInCtb.1779
	cmp	sl, r4	@, tmp251
	bge	.L139	@,
	mov	r9, sl	@ D.43155,
.L183:
	add	ip, r0, r2	@ TileWidthInCtb.1793, leftUpOfTilePosXInCtb.1779, TileWidthInCtb
	mov	sl, r5	@ leftUpOfTilePosYInCtb, leftUpOfTilePosYInCtb
	cmp	r6, ip	@ AbsWidthInCtb, TileWidthInCtb.1793
	mov	r3, r0	@ leftUpOfTilePosXInCtb, leftUpOfTilePosXInCtb.1779
	blt	.L154	@,
.L140:
	ldr	r4, [fp, #-580]	@, %sfp
	ldr	lr, [fp, #-584]	@, %sfp
	add	ip, r4, #1	@,,
	ldr	r4, [fp, #-592]	@, %sfp
	add	r0, lr, #4	@,,
	str	ip, [fp, #-580]	@, %sfp
	cmp	r4, ip	@,
	str	r0, [fp, #-584]	@, %sfp
	blt	.L196	@,
	cmp	r9, #0	@ D.43155,
	str	sl, [fp, #-588]	@ leftUpOfTilePosYInCtb, %sfp
	bge	.L143	@,
.L198:
	ldr	r3, [fp, #-588]	@, %sfp
	mov	ip, r2	@ TileWidthInCtb.1793, TileWidthInCtb
	cmp	r6, ip	@ AbsWidthInCtb, TileWidthInCtb.1793
	add	sl, r3, r7	@ leftUpOfTilePosYInCtb,, TileHeightInCtb
	mov	r3, #0	@ leftUpOfTilePosXInCtb,
	bge	.L140	@,
.L154:
	ldr	ip, [fp, #-576]	@, %sfp
	cmp	ip, sl	@, leftUpOfTilePosYInCtb
	bge	.L140	@,
.L195:
	ldr	r0, [fp, #-588]	@, %sfp
	mov	r4, r6	@ AbsWidthInCtb, AbsWidthInCtb
	rsb	r1, r0, ip	@ tmp232,,
	mul	r2, r2, r1	@ prephitmp.1719, TileWidthInCtb.1783, tmp232
.L141:
	add	ip, r2, r8	@ tmp235, prephitmp.1719, TileCtbAddrInTS
	add	r2, ip, r4	@ tmp236, tmp235, AbsWidthInCtb
	rsb	r0, r3, r2	@ CtbAddrTs, leftUpOfTilePosXInCtb, tmp236
.L128:
	sub	sp, fp, #40
	ldmfd	sp, {r4, r5, r6, r7, r8, r9, sl, fp, sp, pc}
.L197:
	ldr	sl, [fp, #-592]	@, %sfp
	cmp	sl, #0	@,
	blt	.L134	@,
	cmp	r9, #0	@ D.43155,
	str	r6, [fp, #-588]	@ D.43156, %sfp
	str	r6, [fp, #-580]	@ D.43156, %sfp
	mov	r1, r6	@ NextTileCtbAddrInTS.1786, D.43156
	sub	r0, fp, #568	@,,
	mov	r8, r6	@ TileCtbAddrInTS, NextTileCtbAddrInTS.1786
	mov	r7, r6	@ TileHeightInCtb.1773, TileCtbAddrInTS
	mov	r2, r6	@ TileWidthInCtb.1783, TileHeightInCtb.1773
	str	r0, [fp, #-584]	@, %sfp
	mov	r6, r4	@ AbsWidthInCtb, AbsWidthInCtb
	blt	.L199	@,
.L151:
	ldr	r5, [fp, #-584]	@, %sfp
	tst	r9, #1	@ D.43155,
	ldr	sl, [fp, #-588]	@, %sfp
	mov	r3, #0	@ leftUpOfTilePosXInCtb,
	sub	ip, fp, #568	@ ivtmp.1752,,
	mov	r8, r1	@ NextTileCtbAddrInTS.1796, NextTileCtbAddrInTS.1786
	ldr	r7, [r5, #12]	@ tmp234, pTileInfo.row_height_minus1
	mov	r4, r3	@ tile_x.1790, leftUpOfTilePosXInCtb
	streq	r9, [fp, #-600]	@ D.43155, %sfp
	add	r7, r7, #1	@ TileHeightInCtb.1773, tmp234,
	add	r5, sl, r7	@ leftUpOfTilePosYInCtb.1788,, TileHeightInCtb.1773
	beq	.L153	@,
	ldr	r0, [fp, #-300]	@ tmp298, pTileInfo.column_width_minus1
	add	r2, r0, #1	@ TileWidthInCtb.1783, tmp298,
	cmp	r6, r2	@ AbsWidthInCtb, TileWidthInCtb.1783
	mla	r1, r7, r2, r1	@ NextTileCtbAddrInTS.1786, TileHeightInCtb.1773, TileWidthInCtb.1783, NextTileCtbAddrInTS.1786
	mov	r0, r2	@ leftUpOfTilePosXInCtb.1787, TileWidthInCtb.1783
	bge	.L164	@,
	ldr	sl, [fp, #-576]	@, %sfp
	cmp	sl, r5	@, leftUpOfTilePosYInCtb.1788
	mov	sl, r5	@ leftUpOfTilePosYInCtb.1788, leftUpOfTilePosYInCtb.1788
	blt	.L155	@,
.L164:
	mov	r4, #1	@ tile_x.1790,
	cmp	r9, r4	@ D.43155, tile_x.1790
	sub	r3, fp, #568	@,,
	strge	r9, [fp, #-600]	@ D.43155, %sfp
	add	ip, r3, #4	@ ivtmp.1752,,
	movge	r8, r1	@ NextTileCtbAddrInTS.1796, NextTileCtbAddrInTS.1786
	movge	r3, r0	@ leftUpOfTilePosXInCtb, leftUpOfTilePosXInCtb.1787
	bge	.L153	@,
	b	.L184	@
.L148:
	ldr	r8, [ip, #268]	@ tmp230, pTileInfo.column_width_minus1
	add	r2, r8, #1	@ TileWidthInCtb.1783, tmp230,
	mov	r8, r1	@ NextTileCtbAddrInTS.1796, NextTileCtbAddrInTS.1786
	add	r0, r3, r2	@ leftUpOfTilePosXInCtb.1787, leftUpOfTilePosXInCtb, TileWidthInCtb.1783
	cmp	r6, r0	@ AbsWidthInCtb, leftUpOfTilePosXInCtb.1787
	mla	r1, r7, r2, r1	@ NextTileCtbAddrInTS.1786, TileHeightInCtb.1773, TileWidthInCtb.1783, NextTileCtbAddrInTS.1786
	bge	.L167	@,
	ldr	lr, [fp, #-576]	@, %sfp
	mov	sl, r5	@ leftUpOfTilePosYInCtb.1788, leftUpOfTilePosYInCtb.1788
	cmp	lr, r5	@, leftUpOfTilePosYInCtb.1788
	blt	.L190	@,
.L167:
	add	r4, r4, #1	@ tile_x.1790, tmp254,
	add	ip, ip, #4	@ ivtmp.1752, tmp255,
	mov	r3, r0	@ leftUpOfTilePosXInCtb, leftUpOfTilePosXInCtb.1787
	mov	r8, r1	@ NextTileCtbAddrInTS.1796, NextTileCtbAddrInTS.1786
.L153:
	ldr	r9, [ip, #268]	@ tmp293, pTileInfo.column_width_minus1
	add	r4, r4, #1	@ tmp254, tile_x.1790,
	add	ip, ip, #4	@ tmp255, ivtmp.1752,
	mov	sl, r5	@ leftUpOfTilePosYInCtb.1788, leftUpOfTilePosYInCtb.1788
	add	r2, r9, #1	@ TileWidthInCtb.1783, tmp293,
	add	r0, r3, r2	@ leftUpOfTilePosXInCtb.1787, leftUpOfTilePosXInCtb, TileWidthInCtb.1783
	cmp	r6, r0	@ AbsWidthInCtb, leftUpOfTilePosXInCtb.1787
	mla	r1, r7, r2, r1	@ NextTileCtbAddrInTS.1786, TileHeightInCtb.1773, TileWidthInCtb.1783, NextTileCtbAddrInTS.1786
	bge	.L146	@,
	ldr	lr, [fp, #-576]	@, %sfp
	cmp	lr, r5	@, leftUpOfTilePosYInCtb.1788
	blt	.L190	@,
.L146:
	ldr	sl, [fp, #-600]	@, %sfp
	mov	r3, r0	@ leftUpOfTilePosXInCtb, leftUpOfTilePosXInCtb.1787
	cmp	sl, r4	@, tmp254
	bge	.L148	@,
	mov	r9, sl	@ D.43155,
.L184:
	add	ip, r0, r2	@ TileWidthInCtb.1781, leftUpOfTilePosXInCtb.1787, TileWidthInCtb.1783
	mov	sl, r5	@ leftUpOfTilePosYInCtb.1788, leftUpOfTilePosYInCtb.1788
	cmp	r6, ip	@ AbsWidthInCtb, TileWidthInCtb.1781
	mov	r3, r0	@ leftUpOfTilePosXInCtb, leftUpOfTilePosXInCtb.1787
	blt	.L155	@,
.L149:
	ldr	r4, [fp, #-580]	@, %sfp
	ldr	r0, [fp, #-584]	@, %sfp
	add	ip, r4, #1	@,,
	ldr	r4, [fp, #-592]	@, %sfp
	add	lr, r0, #4	@,,
	str	ip, [fp, #-580]	@, %sfp
	cmp	r4, ip	@,
	str	lr, [fp, #-584]	@, %sfp
	blt	.L196	@,
	cmp	r9, #0	@ D.43155,
	str	sl, [fp, #-588]	@ leftUpOfTilePosYInCtb.1788, %sfp
	bge	.L151	@,
.L199:
	ldr	r3, [fp, #-588]	@, %sfp
	mov	ip, r2	@ TileWidthInCtb.1781, TileWidthInCtb.1783
	cmp	r6, ip	@ AbsWidthInCtb, TileWidthInCtb.1781
	add	sl, r3, r7	@ leftUpOfTilePosYInCtb.1788,, TileHeightInCtb.1773
	mov	r3, #0	@ leftUpOfTilePosXInCtb,
	bge	.L149	@,
.L155:
	ldr	ip, [fp, #-576]	@, %sfp
	cmp	sl, ip	@ leftUpOfTilePosYInCtb.1788,
	ble	.L149	@,
	b	.L195	@
.L189:
	ldr	ip, [fp, #-576]	@, %sfp
	ldr	r9, [fp, #-600]	@ D.43155, %sfp
	cmp	ip, sl	@, leftUpOfTilePosYInCtb
	bge	.L140	@,
	b	.L195	@
.L190:
	ldr	ip, [fp, #-576]	@, %sfp
	ldr	r9, [fp, #-600]	@ D.43155, %sfp
	cmp	sl, ip	@ leftUpOfTilePosYInCtb.1788,
	ble	.L149	@,
	b	.L195	@
.L196:
	ldr	r1, [fp, #-576]	@, %sfp
	mov	r4, r6	@ AbsWidthInCtb, AbsWidthInCtb
	rsb	sl, sl, r1	@ tmp233, leftUpOfTilePosYInCtb.1788,
	mul	r2, r2, sl	@ prephitmp.1719, TileWidthInCtb.1783, tmp233
	b	.L141	@
.L134:
	mov	r2, #0	@ prephitmp.1719,
	mov	r3, r2	@ leftUpOfTilePosXInCtb, prephitmp.1719
	mov	r8, r2	@ TileCtbAddrInTS, prephitmp.1719
	b	.L141	@
	.fnend
	.size	HEVC_CtbRsAddrToTsAddr, .-HEVC_CtbRsAddrToTsAddr
	.align	2
	.global	HEVC_GetVirAddr
	.type	HEVC_GetVirAddr, %function
HEVC_GetVirAddr:
	.fnstart
.LFB1591:
	@ args = 0, pretend = 0, frame = 0
	@ frame_needed = 1, uses_anonymous_args = 0
	.movsp ip
	mov	ip, sp	@,
	stmfd	sp!, {fp, ip, lr, pc}	@,
	.pad #4
	.save {fp, ip, lr}
	.setfp fp, ip, #-4
	sub	fp, ip, #4	@,,
	push	{lr}
	bl	__gnu_mcount_nc
	add	r0, r1, r0, asl #2	@,, pbaHEVC_se_vir_addr, Dn,
	ldmfd	sp, {fp, sp, pc}	@
	.fnend
	.size	HEVC_GetVirAddr, .-HEVC_GetVirAddr
	.align	2
	.global	HEVC_GetPhyAddr
	.type	HEVC_GetPhyAddr, %function
HEVC_GetPhyAddr:
	.fnstart
.LFB1592:
	@ args = 0, pretend = 0, frame = 0
	@ frame_needed = 1, uses_anonymous_args = 0
	.movsp ip
	mov	ip, sp	@,
	stmfd	sp!, {fp, ip, lr, pc}	@,
	.pad #4
	.save {fp, ip, lr}
	.setfp fp, ip, #-4
	sub	fp, ip, #4	@,,
	push	{lr}
	bl	__gnu_mcount_nc
	add	r0, r1, r0, asl #2	@,, base_phy_addr, Dn,
	ldmfd	sp, {fp, sp, pc}	@
	.fnend
	.size	HEVC_GetPhyAddr, .-HEVC_GetPhyAddr
	.align	2
	.global	HEVC_CfgVDMReg
	.type	HEVC_CfgVDMReg, %function
HEVC_CfgVDMReg:
	.fnstart
.LFB1593:
	@ args = 0, pretend = 0, frame = 0
	@ frame_needed = 1, uses_anonymous_args = 0
	.movsp ip
	mov	ip, sp	@,
	stmfd	sp!, {r4, r5, fp, ip, lr, pc}	@,
	.pad #4
	.save {r4, r5, fp, ip, lr}
	.setfp fp, ip, #-4
	sub	fp, ip, #4	@,,
	push	{lr}
	bl	__gnu_mcount_nc
	movw	r4, #:lower16:2124840	@ tmp148,
	movt	r4, #:upper16:2124840	@ tmp148,
	mov	r3, r0	@ pHevcCtx, pHevcCtx
	movw	r0, #:lower16:2124836	@ tmp146,
	movt	r0, #:upper16:2124836	@ tmp146,
	ldr	r5, [r3, r4]	@ <variable>.CurrPic.stream_base_addr, <variable>.CurrPic.stream_base_addr
	movw	r2, #:lower16:2134408	@ tmp145,
	ldr	r4, [r3, #200]	@ <variable>.NumSlicePara, <variable>.NumSlicePara
	movt	r2, #:upper16:2134408	@ tmp145,
	ldr	r1, [r3, r0]	@ <variable>.CurrPic.start_count, <variable>.CurrPic.start_count
	movw	ip, #:lower16:2134400	@ tmp147,
	movw	r0, #:lower16:2139516	@ tmp149,
	movt	ip, #:upper16:2134400	@ tmp147,
	movt	r0, #:upper16:2139516	@ tmp149,
	rsbs	r1, r1, #1	@ tmp138, <variable>.CurrPic.start_count
	movcc	r1, #0	@ tmp138
	str	r5, [r3, ip]	@ <variable>.CurrPic.stream_base_addr, <variable>.DecPicPara.stream_base_addr
	str	r4, [r3, r0]	@ <variable>.NumSlicePara, <variable>.DecPicPara.NumSlicePara
	mov	r0, #0	@,
	str	r1, [r3, r2]	@ tmp138, <variable>.DecPicPara.NewPicFlag
	ldmfd	sp, {r4, r5, fp, sp, pc}	@
	.fnend
	.size	HEVC_CfgVDMReg, .-HEVC_CfgVDMReg
	.align	2
	.global	HEVC_IsRefForCurrPic
	.type	HEVC_IsRefForCurrPic, %function
HEVC_IsRefForCurrPic:
	.fnstart
.LFB1594:
	@ args = 0, pretend = 0, frame = 16
	@ frame_needed = 1, uses_anonymous_args = 0
	.movsp ip
	mov	ip, sp	@,
	stmfd	sp!, {r4, r5, r6, r7, r8, r9, sl, fp, ip, lr, pc}	@,
	.pad #4
	.save {r4, r5, r6, r7, r8, r9, sl, fp, ip, lr}
	.setfp fp, ip, #-4
	sub	fp, ip, #4	@,,
	.pad #20
	sub	sp, sp, #20	@,,
	push	{lr}
	bl	__gnu_mcount_nc
	movw	r3, #:lower16:2125436	@ tmp150,
	movw	r1, #:lower16:1960184	@ tmp152,
	movt	r3, #:upper16:2125436	@ tmp150,
	movt	r1, #:upper16:1960184	@ tmp152,
	movw	r2, #:lower16:1960180	@ tmp158,
	ldr	ip, [r0, r3]	@ <variable>.CurrSlice.pic_parameter_set_id, <variable>.CurrSlice.pic_parameter_set_id
	movt	r2, #:upper16:1960180	@ tmp158,
	ldr	r7, [r0, r1]	@ <variable>.pPPS, <variable>.pPPS
	movw	r4, #7704	@ tmp154,
	mov	r9, r0	@ pHevcCtx, pHevcCtx
	ldr	r0, [r0, r2]	@ <variable>.pSPS, <variable>.pSPS
	movw	r2, #:lower16:2128524	@ tmp168,
	movt	r2, #:upper16:2128524	@ tmp168,
	mla	r4, r4, ip, r7	@ tmp155, tmp154, <variable>.CurrSlice.pic_parameter_set_id, <variable>.pPPS
	ldr	r7, [r9, r2]	@, <variable>.CurrSlice.short_term_ref_pic_set.num_of_pics
	movw	r3, #:lower16:2128520	@ tmp164,
	movw	r1, #:lower16:2128516	@ tmp165,
	movt	r3, #:upper16:2128520	@ tmp164,
	movt	r1, #:upper16:2128516	@ tmp165,
	ldr	ip, [r9, r3]	@ <variable>.CurrSlice.short_term_ref_pic_set.num_positive_pics, <variable>.CurrSlice.short_term_ref_pic_set.num_positive_pics
	ldr	r3, [r9, r1]	@ <variable>.CurrSlice.short_term_ref_pic_set.num_negative_pics, <variable>.CurrSlice.short_term_ref_pic_set.num_negative_pics
	movw	r1, #36364	@ tmp160,
	str	r7, [fp, #-48]	@, %sfp
	ldr	r7, [r4, #32]	@ <variable>.seq_parameter_set_id, <variable>.seq_parameter_set_id
	add	r3, ip, r3	@ D.43821, <variable>.CurrSlice.short_term_ref_pic_set.num_positive_pics, <variable>.CurrSlice.short_term_ref_pic_set.num_negative_pics
	ldr	r2, [fp, #-48]	@, %sfp
	mla	ip, r1, r7, r0	@ tmp161, tmp160, <variable>.seq_parameter_set_id, <variable>.pSPS
	cmp	r3, r2	@ D.43821,
	mov	r7, #1	@ tmp162,
	ldr	r2, [ip, #128]	@ <variable>.max_pic_order_cnt_lsb, <variable>.max_pic_order_cnt_lsb
	mov	r7, r7, asl r2	@ PocCycle, tmp162,
	bcs	.L207	@,
	movw	ip, #:lower16:532180	@ tmp170,
	movt	ip, #:upper16:532180	@ tmp170,
	add	r4, r3, ip	@ tmp170, D.43821, tmp170
	movw	r6, #:lower16:2124816	@ tmp169,
	ldr	r0, [fp, #-48]	@, %sfp
	movt	r6, #:upper16:2124816	@ tmp169,
	add	r4, r9, r4, asl #2	@, ivtmp.1902, pHevcCtx, tmp170,
	mvn	r5, r3	@ tmp200, D.43821
	add	sl, r5, r0	@ tmp199, tmp200,
	ldr	r5, [r9, r6]	@ CurPoc.1905, <variable>.CurrPic.thispoc
	ldr	r6, [r4, #8]!	@ RefPoc, <variable>.CurrSlice.short_term_ref_pic_set.poc
	and	sl, sl, #1	@ tmp201, tmp199,
	ldr	r8, [r4, #-1864]	@ tmp174, <variable>.CurrSlice.CheckLTMSB
	cmp	r8, #0	@ tmp174,
	beq	.L222	@,
	mov	r8, r5	@ CurPoc, CurPoc.1905
.L237:
	cmp	r8, r6	@ CurPoc, RefPoc
	beq	.L238	@,
	ldr	r0, [fp, #-48]	@, %sfp
	add	r6, r3, #1	@ i, D.43821,
	add	r4, r4, #4	@ ivtmp.1902, ivtmp.1902,
	cmp	r0, r6	@, i
	bls	.L207	@,
	cmp	sl, #0	@ tmp201,
	beq	.L212	@,
	ldr	r2, [r4, #-1864]	@ tmp220, <variable>.CurrSlice.CheckLTMSB
	ldr	r8, [r4, #0]	@ RefPoc, <variable>.CurrSlice.short_term_ref_pic_set.poc
	cmp	r2, #0	@ tmp220,
	movne	sl, r5	@ CurPoc, CurPoc.1905
	bne	.L240	@,
	mov	r0, r5	@, CurPoc.1905
	mov	r1, r7	@, PocCycle
	str	r3, [fp, #-52]	@,
	bl	__aeabi_idivmod	@
	mov	r0, r8	@, RefPoc
	mov	sl, r1	@ CurPoc,
	mov	r1, r7	@, PocCycle
	bl	__aeabi_idivmod	@
	ldr	r3, [fp, #-52]	@,
	mov	r8, r1	@ RefPoc,
.L240:
	cmp	sl, r8	@ CurPoc, RefPoc
	beq	.L238	@,
	ldr	ip, [fp, #-48]	@, %sfp
	add	r6, r6, #1	@ i, i,
	add	r4, r4, #4	@ ivtmp.1902, ivtmp.1902,
	cmp	ip, r6	@, i
	bhi	.L212	@,
	b	.L207	@
.L229:
	str	r3, [fp, #-52]	@,
	bl	__aeabi_idivmod	@
	mov	r0, r4	@, RefPoc
	add	r6, r6, #1	@ i, tmp202,
	mov	r8, r1	@ CurPoc,
	mov	r1, r7	@, PocCycle
	bl	__aeabi_idivmod	@
	ldr	r3, [fp, #-52]	@,
	mov	r4, r1	@ RefPoc,
	cmp	r8, r4	@ CurPoc, RefPoc
	add	r4, sl, #4	@ ivtmp.1902, tmp203,
	beq	.L238	@,
.L242:
	ldr	r1, [fp, #-48]	@, %sfp
	cmp	r1, r6	@, i
	bls	.L207	@,
.L212:
	ldr	r8, [r4, #-1864]	@ tmp206, <variable>.CurrSlice.CheckLTMSB
	mov	r0, r5	@, CurPoc.1905
	mov	r1, r7	@, PocCycle
	mov	r2, r5	@ CurPoc, CurPoc.1905
	cmp	r8, #0	@ tmp206,
	ldr	r8, [r4, #0]	@ RefPoc, <variable>.CurrSlice.short_term_ref_pic_set.poc
	bne	.L209	@,
	str	r3, [fp, #-52]	@,
	bl	__aeabi_idivmod	@
	mov	r0, r8	@, RefPoc
	mov	r2, r1	@ CurPoc,
	mov	r1, r7	@, PocCycle
	str	r2, [fp, #-56]	@,
	bl	__aeabi_idivmod	@
	ldr	r3, [fp, #-52]	@,
	ldr	r2, [fp, #-56]	@,
	mov	r8, r1	@ RefPoc,
.L209:
	cmp	r2, r8	@ CurPoc, RefPoc
	add	sl, r4, #4	@ tmp203, ivtmp.1902,
	mov	r0, r5	@, CurPoc.1905
	mov	r1, r7	@, PocCycle
	beq	.L238	@,
	ldr	ip, [sl, #-1864]	@ tmp211, <variable>.CurrSlice.CheckLTMSB
	add	r6, r6, #1	@ tmp202, i,
	ldr	r4, [r4, #4]	@ RefPoc, <variable>.CurrSlice.short_term_ref_pic_set.poc
	cmp	ip, #0	@ tmp211,
	beq	.L229	@,
	mov	r8, r5	@ CurPoc, CurPoc.1905
	cmp	r8, r4	@ CurPoc, RefPoc
	add	r6, r6, #1	@ i, tmp202,
	add	r4, sl, #4	@ ivtmp.1902, tmp203,
	bne	.L242	@,
.L238:
	mov	r0, #1	@ is_reference,
	b	.L211	@
.L207:
	mov	r0, #0	@ is_reference,
.L211:
	cmp	r3, #0	@ D.43821,
	beq	.L213	@,
	movw	ip, #:lower16:2125408	@ tmp187,
	movw	r4, #:lower16:2128664	@ tmp188,
	movt	ip, #:upper16:2125408	@ tmp187,
	movt	r4, #:upper16:2128664	@ tmp188,
	movw	r2, #:lower16:2124816	@ tmp186,
	movt	r2, #:upper16:2124816	@ tmp186,
	ldr	r1, [r9, r4]	@ <variable>.CurrSlice.short_term_ref_pic_set.delta_poc, <variable>.CurrSlice.short_term_ref_pic_set.delta_poc
	ldr	r5, [r9, ip]	@ D.43831, <variable>.CurrSlice.poc
	ldr	r4, [r9, r2]	@ D.43830, <variable>.CurrPic.thispoc
	add	r2, r5, r1	@ tmp189, D.43831, <variable>.CurrSlice.short_term_ref_pic_set.delta_poc
	cmp	r4, r2	@ D.43830, tmp189
	beq	.L214	@,
	tst	r3, #1	@ D.43821,
	movw	r1, #:lower16:2128668	@ ivtmp.1896,
	movt	r1, #:upper16:2128668	@ ivtmp.1896,
	mov	ip, #0	@ i.1906,
	add	r2, r9, r1	@ ivtmp.1896, pHevcCtx, ivtmp.1896
	bne	.L215	@,
	ldr	r1, [r2], #4	@ tmp214, <variable>.CurrSlice.short_term_ref_pic_set.delta_poc
	mov	ip, #1	@ i.1906,
	add	r1, r5, r1	@ D.43833, D.43831, tmp214
	cmp	r4, r1	@ D.43830, D.43833
	bne	.L215	@,
.L214:
	mov	r0, #1	@ is_reference,
.L213:
	sub	sp, fp, #40
	ldmfd	sp, {r4, r5, r6, r7, r8, r9, sl, fp, sp, pc}
.L216:
	ldr	r6, [r1], #4	@ tmp192, <variable>.CurrSlice.short_term_ref_pic_set.delta_poc
	add	r6, r5, r6	@ D.43833, D.43831, tmp192
	cmp	r4, r6	@ D.43830, D.43833
	beq	.L214	@,
	ldr	r6, [r2, #4]	@ tmp216, <variable>.CurrSlice.short_term_ref_pic_set.delta_poc
	add	r2, r1, #4	@ ivtmp.1896, tmp197,
	add	r1, r5, r6	@ D.43833, D.43831, tmp216
	cmp	r4, r1	@ D.43830, D.43833
	beq	.L214	@,
.L215:
	add	ip, ip, #1	@ tmp198, i.1906,
	mov	r1, r2	@ tmp197, ivtmp.1896
	cmp	r3, ip	@ D.43821, tmp198
	add	ip, ip, #1	@ i.1906, tmp198,
	bhi	.L216	@,
	b	.L213	@
.L222:
	mov	r0, r5	@, CurPoc.1905
	mov	r1, r7	@, PocCycle
	str	r3, [fp, #-52]	@,
	bl	__aeabi_idivmod	@
	mov	r0, r6	@, RefPoc
	mov	r8, r1	@ CurPoc,
	mov	r1, r7	@, PocCycle
	bl	__aeabi_idivmod	@
	ldr	r3, [fp, #-52]	@,
	mov	r6, r1	@ RefPoc,
	b	.L237	@
	.fnend
	.size	HEVC_IsRefForCurrPic, .-HEVC_IsRefForCurrPic
	.align	2
	.type	compare_pic_by_poc_asc, %function
compare_pic_by_poc_asc:
	.fnstart
.LFB1600:
	@ args = 0, pretend = 0, frame = 0
	@ frame_needed = 1, uses_anonymous_args = 0
	.movsp ip
	mov	ip, sp	@,
	stmfd	sp!, {fp, ip, lr, pc}	@,
	.pad #4
	.save {fp, ip, lr}
	.setfp fp, ip, #-4
	sub	fp, ip, #4	@,,
	push	{lr}
	bl	__gnu_mcount_nc
	ldr	ip, [r0, #0]	@ tmp139,* arg1
	ldr	r1, [r1, #0]	@ tmp140,* arg2
	ldr	r2, [ip, #12]	@ D.44369, <variable>.poc
	ldr	r3, [r1, #12]	@ D.44372, <variable>.poc
	cmp	r2, r3	@ D.44369, D.44372
	mvnlt	r0, #0	@ D.44375,
	ldmltfd	sp, {fp, sp, pc}	@
	movle	r0, #0	@, D.44375
	movgt	r0, #1	@, D.44375
	ldmfd	sp, {fp, sp, pc}	@
	.fnend
	.size	compare_pic_by_poc_asc, .-compare_pic_by_poc_asc
	.align	2
	.global	HEVC_CheckThatAllRefPicsAreAvailable
	.type	HEVC_CheckThatAllRefPicsAreAvailable, %function
HEVC_CheckThatAllRefPicsAreAvailable:
	.fnstart
.LFB1609:
	@ args = 0, pretend = 0, frame = 48
	@ frame_needed = 1, uses_anonymous_args = 0
	.movsp ip
	mov	ip, sp	@,
	stmfd	sp!, {r4, r5, r6, r7, r8, r9, sl, fp, ip, lr, pc}	@,
	.pad #4
	.save {r4, r5, r6, r7, r8, r9, sl, fp, ip, lr}
	.setfp fp, ip, #-4
	sub	fp, ip, #4	@,,
	.pad #52
	sub	sp, sp, #52	@,,
	push	{lr}
	bl	__gnu_mcount_nc
	movw	r3, #:lower16:2125436	@ tmp161,
	movw	ip, #:lower16:1960184	@ tmp163,
	movt	r3, #:upper16:2125436	@ tmp161,
	movt	ip, #:upper16:1960184	@ tmp163,
	movw	r2, #:lower16:1960180	@ tmp169,
	ldr	r4, [r0, r3]	@ <variable>.CurrSlice.pic_parameter_set_id, <variable>.CurrSlice.pic_parameter_set_id
	movt	r2, #:upper16:1960180	@ tmp169,
	ldr	r3, [r0, ip]	@ <variable>.pPPS, <variable>.pPPS
	mov	sl, r0	@ pHevcCtx, pHevcCtx
	ldr	ip, [sl, r2]	@ <variable>.pSPS, <variable>.pSPS
	movw	r2, #7704	@ tmp165,
	movw	r0, #:lower16:2128520	@ tmp175,
	movt	r0, #:upper16:2128520	@ tmp175,
	mla	r4, r2, r4, r3	@ tmp166, tmp165, <variable>.CurrSlice.pic_parameter_set_id, <variable>.pPPS
	movw	r3, #:lower16:2128524	@ tmp179,
	movt	r3, #:upper16:2128524	@ tmp179,
	movw	r2, #:lower16:2128516	@ tmp176,
	movt	r2, #:upper16:2128516	@ tmp176,
	ldr	r0, [sl, r0]	@ <variable>.CurrSlice.short_term_ref_pic_set.num_positive_pics, <variable>.CurrSlice.short_term_ref_pic_set.num_positive_pics
	ldr	r3, [sl, r3]	@, <variable>.CurrSlice.short_term_ref_pic_set.num_of_pics
	ldr	r2, [sl, r2]	@ <variable>.CurrSlice.short_term_ref_pic_set.num_negative_pics, <variable>.CurrSlice.short_term_ref_pic_set.num_negative_pics
	str	r1, [fp, #-88]	@ piLostPoc, %sfp
	str	r3, [fp, #-72]	@, %sfp
	add	r2, r0, r2	@, <variable>.CurrSlice.short_term_ref_pic_set.num_positive_pics, <variable>.CurrSlice.short_term_ref_pic_set.num_negative_pics
	ldr	r3, [r4, #32]	@ <variable>.seq_parameter_set_id, <variable>.seq_parameter_set_id
	ldr	r0, [fp, #-72]	@, %sfp
	str	r2, [fp, #-68]	@, %sfp
	cmp	r2, r0	@,
	movw	r2, #36364	@ tmp171,
	mla	ip, r2, r3, ip	@ tmp172, tmp171, <variable>.seq_parameter_set_id, <variable>.pSPS
	mov	r2, #1	@ tmp173,
	movcs	r1, #0	@,
	ldr	r3, [ip, #128]	@ <variable>.max_pic_order_cnt_lsb, <variable>.max_pic_order_cnt_lsb
	strcs	r1, [fp, #-56]	@, %sfp
	mov	r3, r2, asl r3	@, tmp173,
	strcs	r1, [fp, #-80]	@, %sfp
	str	r3, [fp, #-48]	@, %sfp
	bcs	.L256	@,
	ldr	r1, [fp, #-68]	@, %sfp
	movw	r3, #:lower16:532164	@ tmp181,
	movt	r3, #:upper16:532164	@ tmp181,
	movw	r2, #:lower16:1960372	@ tmp180,
	add	ip, r1, r3	@ tmp181,, tmp181
	movt	r2, #:upper16:1960372	@ tmp180,
	mov	r0, #0	@,
	str	r0, [fp, #-64]	@, %sfp
	add	r8, sl, ip, asl #2	@, tmp184, pHevcCtx, tmp181,
	ldr	ip, [sl, r2]	@ pretmp.1954, <variable>.DPB.used_size
	movw	r1, #:lower16:1960392	@,
	ldr	r0, [fp, #-68]	@, %sfp
	movt	r1, #:upper16:1960392	@,
	str	sl, [fp, #-76]	@ pHevcCtx, %sfp
	add	r3, sl, r1	@, pHevcCtx,
	mov	sl, ip	@ pretmp.1954, pretmp.1954
	cmp	sl, #0	@ pretmp.1954,
	movw	r2, #:lower16:2125408	@,
	mov	r1, #0	@,
	movt	r2, #:upper16:2125408	@,
	add	r8, r8, #8	@ ivtmp.1988, tmp184,
	str	r3, [fp, #-60]	@, %sfp
	str	r2, [fp, #-84]	@, %sfp
	str	r0, [fp, #-52]	@, %sfp
	str	r1, [fp, #-80]	@, %sfp
	beq	.L257	@,
.L310:
	ldr	r6, [r8, #-1800]	@ pretmp.1957, <variable>.CurrSlice.CheckLTMSB
	mov	r0, #0	@,
	sub	r5, sl, #1	@ tmp250, pretmp.1954,
	str	r0, [fp, #-56]	@, %sfp
	cmp	r6, r0	@ pretmp.1957,
	and	r7, r5, #1	@ tmp252, tmp250,
	beq	.L276	@,
	ldr	ip, [fp, #-60]	@, %sfp
	ldr	r3, [ip, #0]	@ D.44725, <variable>.DPB.fs
	ldr	r2, [r3, #52]	@ <variable>.frame.is_long_term, <variable>.frame.is_long_term
	cmp	r2, #0	@ <variable>.frame.is_long_term,
	beq	.L277	@,
	ldr	r1, [r3, #12]	@ <variable>.poc, <variable>.poc
	ldr	r4, [r8, #64]	@ tmp295, <variable>.CurrSlice.short_term_ref_pic_set.poc
	cmp	r1, r4	@ <variable>.poc, tmp295
	beq	.L304	@,
.L277:
	mov	r5, #1	@ j,
	ldr	r2, [fp, #-60]	@, %sfp
	cmp	r5, sl	@ j, pretmp.1954
	add	r4, r2, #4	@ ivtmp.1982,,
	bcs	.L296	@,
	cmp	r7, #0	@ tmp252,
	beq	.L253	@,
	cmp	r6, #0	@ pretmp.1957,
	beq	.L280	@,
	ldr	ip, [fp, #-60]	@, %sfp
	ldr	r3, [ip, #4]	@ D.44725, <variable>.DPB.fs
	ldr	r2, [r3, #52]	@ <variable>.frame.is_long_term, <variable>.frame.is_long_term
	cmp	r2, #0	@ <variable>.frame.is_long_term,
	beq	.L281	@,
	ldr	r1, [r3, #12]	@ <variable>.poc, <variable>.poc
	ldr	r2, [r8, #64]	@ tmp307, <variable>.CurrSlice.short_term_ref_pic_set.poc
	cmp	r1, r2	@ <variable>.poc, tmp307
	beq	.L305	@,
.L281:
	add	r5, r5, #1	@ j, j,
	add	r4, r4, #4	@ ivtmp.1982, ivtmp.1982,
	cmp	r5, sl	@ j, pretmp.1954
	bcc	.L253	@,
	b	.L296	@
.L308:
	ldr	r3, [r4, #0]	@ D.44725, <variable>.DPB.fs
	ldr	r7, [r3, #52]	@ <variable>.frame.is_long_term, <variable>.frame.is_long_term
	cmp	r7, #0	@ <variable>.frame.is_long_term,
	beq	.L251	@,
	ldr	ip, [r3, #12]	@ <variable>.poc, <variable>.poc
	ldr	r2, [r8, #64]	@ tmp187, <variable>.CurrSlice.short_term_ref_pic_set.poc
	cmp	ip, r2	@ <variable>.poc, tmp187
	beq	.L306	@,
.L251:
	cmp	r6, #0	@ pretmp.1957,
	add	r5, r5, #1	@ tmp253, j,
	add	r7, r4, #4	@ tmp254, ivtmp.1982,
	beq	.L285	@,
.L309:
	ldr	r3, [r4, #4]	@ D.44725, <variable>.DPB.fs
	ldr	r1, [r3, #52]	@ <variable>.frame.is_long_term, <variable>.frame.is_long_term
	cmp	r1, #0	@ <variable>.frame.is_long_term,
	beq	.L286	@,
	ldr	r4, [r3, #12]	@ <variable>.poc, <variable>.poc
	ldr	r2, [r8, #64]	@ tmp319, <variable>.CurrSlice.short_term_ref_pic_set.poc
	cmp	r4, r2	@ <variable>.poc, tmp319
	beq	.L307	@,
.L286:
	add	r5, r5, #1	@ j, tmp253,
	add	r4, r7, #4	@ ivtmp.1982, tmp254,
	cmp	r5, sl	@ j, pretmp.1954
	bcs	.L296	@,
.L253:
	cmp	r6, #0	@ pretmp.1957,
	bne	.L308	@,
	ldr	r7, [r4, #0]	@ temp.1994, <variable>.DPB.fs
	ldr	r1, [r7, #52]	@ <variable>.frame.is_long_term, <variable>.frame.is_long_term
	cmp	r1, #0	@ <variable>.frame.is_long_term,
	beq	.L251	@,
	ldr	r0, [r7, #12]	@, <variable>.poc
	ldr	r1, [fp, #-48]	@, %sfp
	bl	__aeabi_idivmod	@
	ldr	r0, [r8, #64]	@, <variable>.CurrSlice.short_term_ref_pic_set.poc
	mov	r9, r1	@ tmp196,
	ldr	r1, [fp, #-48]	@, %sfp
	bl	__aeabi_idivmod	@
	cmp	r9, r1	@ tmp196,
	bne	.L251	@,
	ldrb	lr, [r7, #1]	@ zero_extendqisi2	@ <variable>.is_reference, <variable>.is_reference
	cmp	lr, #0	@ <variable>.is_reference,
	beq	.L251	@,
.L252:
	cmp	r6, #0	@ pretmp.1957,
	mov	r7, #1	@,
	add	r5, r5, #1	@ tmp253, j,
	str	r7, [fp, #-56]	@, %sfp
	add	r7, r4, #4	@ tmp254, ivtmp.1982,
	bne	.L309	@,
.L285:
	ldr	r4, [r4, #4]	@ temp.1994, <variable>.DPB.fs
	ldr	ip, [r4, #52]	@ <variable>.frame.is_long_term, <variable>.frame.is_long_term
	cmp	ip, #0	@ <variable>.frame.is_long_term,
	beq	.L286	@,
	ldr	r0, [r4, #12]	@, <variable>.poc
	ldr	r1, [fp, #-48]	@, %sfp
	bl	__aeabi_idivmod	@
	ldr	r0, [r8, #64]	@, <variable>.CurrSlice.short_term_ref_pic_set.poc
	mov	r9, r1	@ tmp312,
	ldr	r1, [fp, #-48]	@, %sfp
	bl	__aeabi_idivmod	@
	cmp	r9, r1	@ tmp312,
	bne	.L286	@,
	ldrb	lr, [r4, #1]	@ zero_extendqisi2	@ <variable>.is_reference, <variable>.is_reference
	cmp	lr, #0	@ <variable>.is_reference,
	beq	.L286	@,
.L287:
	add	r5, r5, #1	@ j, tmp253,
	mov	r4, #1	@,
	cmp	r5, sl	@ j, pretmp.1954
	str	r4, [fp, #-56]	@, %sfp
	add	r4, r7, #4	@ ivtmp.1982, tmp254,
	bcc	.L253	@,
.L296:
	ldr	ip, [fp, #-56]	@, %sfp
	cmp	ip, #0	@,
	beq	.L257	@,
.L254:
	ldr	r1, [fp, #-52]	@, %sfp
	add	r8, r8, #4	@ ivtmp.1988, ivtmp.1988,
	ldr	ip, [fp, #-72]	@, %sfp
	add	r1, r1, #1	@,,
	ldr	r2, [fp, #-64]	@ iPocLost.2011, %sfp
	cmp	r1, ip	@,
	str	r1, [fp, #-52]	@, %sfp
	bcs	.L298	@,
.L311:
	cmp	sl, #0	@ pretmp.1954,
	str	r2, [fp, #-64]	@ iPocLost.2011, %sfp
	bne	.L310	@,
.L257:
	ldr	ip, [fp, #-76]	@, %sfp
	ldr	r0, [fp, #-84]	@, %sfp
	ldr	r1, [r8, #0]	@ tmp206, <variable>.CurrSlice.short_term_ref_pic_set.delta_poc
	ldr	r3, [ip, #192]	@ <variable>.PocRandomAccess, <variable>.PocRandomAccess
	ldr	r2, [ip, r0]	@ <variable>.CurrSlice.poc, <variable>.CurrSlice.poc
	add	r2, r1, r2	@ iPocLost.2011, tmp206, <variable>.CurrSlice.poc
	cmp	r2, r3	@ iPocLost.2011, <variable>.PocRandomAccess
	blt	.L254	@,
	ldr	r3, [r8, #-64]	@ tmp209, <variable>.CurrSlice.short_term_ref_pic_set.used_flag
	cmp	r3, #0	@ tmp209,
	movne	r0, #1	@,
	strne	r0, [fp, #-80]	@, %sfp
	beq	.L254	@,
	ldr	r1, [fp, #-52]	@, %sfp
	add	r8, r8, #4	@ ivtmp.1988, ivtmp.1988,
	ldr	ip, [fp, #-72]	@, %sfp
	add	r1, r1, #1	@,,
	str	r1, [fp, #-52]	@, %sfp
	cmp	r1, ip	@,
	bcc	.L311	@,
.L298:
	ldr	sl, [fp, #-76]	@ pHevcCtx, %sfp
	str	r2, [fp, #-56]	@ iPocLost.2011, %sfp
.L256:
	ldr	r2, [fp, #-68]	@, %sfp
	cmp	r2, #0	@,
	beq	.L258	@,
	movw	r2, #:lower16:1960372	@ tmp211,
	movt	r2, #:upper16:1960372	@ tmp211,
	movw	r4, #:lower16:1960392	@ tmp233,
	movt	r4, #:upper16:1960392	@ tmp233,
	ldr	r1, [sl, r2]	@, <variable>.DPB.used_size
	movw	r0, #:lower16:2128600	@ ivtmp.1979,
	movt	r0, #:upper16:2128600	@ ivtmp.1979,
	add	r8, sl, r4	@ ivtmp.1971, pHevcCtx, ivtmp.1971
	add	r0, sl, r0	@ ivtmp.1979, pHevcCtx, ivtmp.1979
	mov	r2, #0	@,
	mov	r3, r1, asl #2	@ tmp232,,
	str	r1, [fp, #-52]	@, %sfp
	add	ip, r3, r4	@ tmp233, tmp232, tmp233
	movw	r4, #:lower16:2125408	@ tmp236,
	add	ip, ip, sl	@ D.49562, tmp233, pHevcCtx
	movt	r4, #:upper16:2125408	@ tmp236,
	str	r2, [fp, #-48]	@, %sfp
.L259:
	ldr	r2, [fp, #-52]	@, %sfp
	cmp	r2, #0	@,
	beq	.L263	@,
	ldr	r3, [r8, #0]	@ temp.2000, <variable>.DPB.fs
	rsb	r7, r8, ip	@ tmp246, ivtmp.1971, D.49562
	sub	r2, r7, #4	@ tmp247, tmp246,
	mov	r7, #0	@ isAvailable.1993,
	ubfx	r2, r2, #2, #1	@ tmp248, tmp247,,
	ldr	r1, [r3, #52]	@ <variable>.frame.is_long_term, <variable>.frame.is_long_term
	cmp	r1, r7	@ <variable>.frame.is_long_term,
	bne	.L269	@,
	ldr	r5, [r0, #64]	@ tmp266, <variable>.CurrSlice.short_term_ref_pic_set.delta_poc
	ldr	r1, [sl, r4]	@ <variable>.CurrSlice.poc, <variable>.CurrSlice.poc
	ldr	r6, [r3, #12]	@ <variable>.poc, <variable>.poc
	add	r1, r5, r1	@ tmp268, tmp266, <variable>.CurrSlice.poc
	cmp	r6, r1	@ <variable>.poc, tmp268
	beq	.L312	@,
.L269:
	add	r3, r8, #4	@ ivtmp.1971, ivtmp.1971,
	cmp	r3, ip	@ ivtmp.1971, D.49562
	beq	.L295	@,
	cmp	r2, #0	@ tmp248,
	beq	.L300	@,
	ldr	r2, [r8, #4]	@ temp.2000, <variable>.DPB.fs
	ldr	r1, [r2, #52]	@ <variable>.frame.is_long_term, <variable>.frame.is_long_term
	cmp	r1, #0	@ <variable>.frame.is_long_term,
	bne	.L271	@,
	ldr	r5, [r0, #64]	@ tmp274, <variable>.CurrSlice.short_term_ref_pic_set.delta_poc
	ldr	r1, [sl, r4]	@ <variable>.CurrSlice.poc, <variable>.CurrSlice.poc
	ldr	r6, [r2, #12]	@ <variable>.poc, <variable>.poc
	add	r1, r5, r1	@ tmp276, tmp274, <variable>.CurrSlice.poc
	cmp	r6, r1	@ <variable>.poc, tmp276
	beq	.L313	@,
.L271:
	add	r3, r3, #4	@ ivtmp.1971, ivtmp.1971,
	cmp	r3, ip	@ ivtmp.1971, D.49562
	beq	.L295	@,
.L300:
	mov	r9, r8	@ ivtmp.1971, ivtmp.1971
	b	.L261	@
.L260:
	ldr	r3, [r3, #4]	@ temp.2000, <variable>.DPB.fs
	ldr	r2, [r3, #52]	@ <variable>.frame.is_long_term, <variable>.frame.is_long_term
	cmp	r2, #0	@ <variable>.frame.is_long_term,
	bne	.L274	@,
	ldr	r6, [r0, #64]	@ tmp280, <variable>.CurrSlice.short_term_ref_pic_set.delta_poc
	ldr	r5, [sl, r4]	@ <variable>.CurrSlice.poc, <variable>.CurrSlice.poc
	ldr	r2, [r3, #12]	@ <variable>.poc, <variable>.poc
	add	r5, r6, r5	@ tmp282, tmp280, <variable>.CurrSlice.poc
	cmp	r2, r5	@ <variable>.poc, tmp282
	beq	.L314	@,
.L274:
	add	r3, r1, #4	@ ivtmp.1971, tmp249,
	cmp	r3, ip	@ ivtmp.1971, D.49562
	beq	.L315	@,
.L261:
	ldr	r2, [r3, #0]	@ temp.2000, <variable>.DPB.fs
	add	r1, r3, #4	@ tmp249, ivtmp.1971,
	ldr	r5, [r2, #52]	@ <variable>.frame.is_long_term, <variable>.frame.is_long_term
	cmp	r5, #0	@ <variable>.frame.is_long_term,
	bne	.L260	@,
	ldr	r8, [r0, #64]	@ tmp216, <variable>.CurrSlice.short_term_ref_pic_set.delta_poc
	ldr	r6, [sl, r4]	@ <variable>.CurrSlice.poc, <variable>.CurrSlice.poc
	ldr	r5, [r2, #12]	@ <variable>.poc, <variable>.poc
	add	r6, r8, r6	@ tmp215, tmp216, <variable>.CurrSlice.poc
	cmp	r5, r6	@ <variable>.poc, tmp215
	bne	.L260	@,
	ldrb	r2, [r2, #1]	@ zero_extendqisi2	@ <variable>.is_reference, <variable>.is_reference
	cmp	r2, #0	@ <variable>.is_reference,
	movne	r7, #1	@ isAvailable.1993,
	b	.L260	@
.L307:
	ldrb	r3, [r3, #1]	@ zero_extendqisi2	@ <variable>.is_reference, <variable>.is_reference
	cmp	r3, #0	@ <variable>.is_reference,
	bne	.L287	@,
	b	.L286	@
.L306:
	ldrb	r3, [r3, #1]	@ zero_extendqisi2	@ <variable>.is_reference, <variable>.is_reference
	cmp	r3, #0	@ <variable>.is_reference,
	bne	.L252	@,
	b	.L251	@
.L276:
	ldr	r0, [fp, #-60]	@, %sfp
	ldr	r4, [r0, #0]	@ temp.1994, <variable>.DPB.fs
	ldr	r3, [r4, #52]	@ <variable>.frame.is_long_term, <variable>.frame.is_long_term
	cmp	r3, #0	@ <variable>.frame.is_long_term,
	beq	.L277	@,
	ldr	r0, [r4, #12]	@, <variable>.poc
	ldr	r1, [fp, #-48]	@, %sfp
	bl	__aeabi_idivmod	@
	ldr	r0, [r8, #64]	@, <variable>.CurrSlice.short_term_ref_pic_set.poc
	mov	r5, r1	@ tmp288,
	ldr	r1, [fp, #-48]	@, %sfp
	bl	__aeabi_idivmod	@
	cmp	r5, r1	@ tmp288,
	bne	.L277	@,
	ldrb	lr, [r4, #1]	@ zero_extendqisi2	@ <variable>.is_reference, <variable>.is_reference
	cmp	lr, #0	@ <variable>.is_reference,
	beq	.L277	@,
.L278:
	mov	r4, #1	@,
	str	r4, [fp, #-56]	@, %sfp
	b	.L277	@
.L280:
	ldr	r0, [fp, #-60]	@, %sfp
	ldr	r9, [r0, #4]	@ temp.1994, <variable>.DPB.fs
	ldr	r1, [r9, #52]	@ <variable>.frame.is_long_term, <variable>.frame.is_long_term
	cmp	r1, #0	@ <variable>.frame.is_long_term,
	beq	.L281	@,
	ldr	r0, [r9, #12]	@, <variable>.poc
	ldr	r1, [fp, #-48]	@, %sfp
	bl	__aeabi_idivmod	@
	ldr	r0, [r8, #64]	@, <variable>.CurrSlice.short_term_ref_pic_set.poc
	mov	r7, r1	@ tmp300,
	ldr	r1, [fp, #-48]	@, %sfp
	bl	__aeabi_idivmod	@
	cmp	r7, r1	@ tmp300,
	bne	.L281	@,
	ldrb	lr, [r9, #1]	@ zero_extendqisi2	@ <variable>.is_reference, <variable>.is_reference
	cmp	lr, #0	@ <variable>.is_reference,
	beq	.L281	@,
.L282:
	mov	ip, #1	@,
	str	ip, [fp, #-56]	@, %sfp
	b	.L281	@
.L315:
	mov	r8, r9	@ ivtmp.1971, ivtmp.1971
.L295:
	cmp	r7, #0	@ isAvailable.1993,
	beq	.L263	@,
.L262:
	ldr	r1, [fp, #-48]	@, %sfp
	add	r0, r0, #4	@ ivtmp.1979, ivtmp.1979,
	add	r3, r1, #1	@,,
	ldr	r1, [fp, #-68]	@, %sfp
	str	r3, [fp, #-48]	@, %sfp
	cmp	r1, r3	@,
	bhi	.L259	@,
.L258:
	ldr	ip, [fp, #-80]	@, %sfp
	cmp	ip, #0	@,
	ldrne	r1, [fp, #-56]	@, %sfp
	moveq	r0, #1	@ D.44776,
	ldrne	r2, [fp, #-88]	@, %sfp
	movne	r0, #0	@ D.44776,
	strne	r1, [r2, #0]	@,
	sub	sp, fp, #40
	ldmfd	sp, {r4, r5, r6, r7, r8, r9, sl, fp, sp, pc}
.L314:
	ldrb	r8, [r3, #1]	@ zero_extendqisi2	@ <variable>.is_reference, <variable>.is_reference
	cmp	r8, #0	@ <variable>.is_reference,
	movne	r7, #1	@ isAvailable.1993,
	b	.L274	@
.L263:
	ldr	r1, [r0, #64]	@ tmp221, <variable>.CurrSlice.short_term_ref_pic_set.delta_poc
	ldr	r2, [sl, r4]	@ <variable>.CurrSlice.poc, <variable>.CurrSlice.poc
	ldr	r3, [sl, #192]	@ <variable>.PocRandomAccess, <variable>.PocRandomAccess
	add	r2, r1, r2	@ iPocLost, tmp221, <variable>.CurrSlice.poc
	cmp	r2, r3	@ iPocLost, <variable>.PocRandomAccess
	blt	.L262	@,
	ldr	r1, [r0, #0]	@ tmp224, <variable>.CurrSlice.short_term_ref_pic_set.used_flag
	ldr	r3, [fp, #-56]	@, %sfp
	cmp	r1, #0	@ tmp224,
	movne	r3, r2	@,, iPocLost
	ldr	r2, [fp, #-80]	@, %sfp
	str	r3, [fp, #-56]	@, %sfp
	movne	r2, #1	@,,
	str	r2, [fp, #-80]	@, %sfp
	b	.L262	@
.L312:
	ldrb	r7, [r3, #1]	@ zero_extendqisi2	@ <variable>.is_reference, <variable>.is_reference
	subs	r7, r7, #0	@ isAvailable.1993, <variable>.is_reference,
	movne	r7, #1	@ isAvailable.1993
	b	.L269	@
.L313:
	ldrb	r2, [r2, #1]	@ zero_extendqisi2	@ <variable>.is_reference, <variable>.is_reference
	cmp	r2, #0	@ <variable>.is_reference,
	movne	r7, #1	@ isAvailable.1993,
	b	.L271	@
.L304:
	ldrb	r3, [r3, #1]	@ zero_extendqisi2	@ <variable>.is_reference, <variable>.is_reference
	cmp	r3, #0	@ <variable>.is_reference,
	bne	.L278	@,
	b	.L277	@
.L305:
	ldrb	r3, [r3, #1]	@ zero_extendqisi2	@ <variable>.is_reference, <variable>.is_reference
	cmp	r3, #0	@ <variable>.is_reference,
	bne	.L282	@,
	b	.L281	@
	.fnend
	.size	HEVC_CheckThatAllRefPicsAreAvailable, .-HEVC_CheckThatAllRefPicsAreAvailable
	.align	2
	.global	HEVC_SetFrmRepeatCount
	.type	HEVC_SetFrmRepeatCount, %function
HEVC_SetFrmRepeatCount:
	.fnstart
.LFB1612:
	@ args = 0, pretend = 0, frame = 0
	@ frame_needed = 1, uses_anonymous_args = 0
	.movsp ip
	mov	ip, sp	@,
	stmfd	sp!, {fp, ip, lr, pc}	@,
	.pad #4
	.save {fp, ip, lr}
	.setfp fp, ip, #-4
	sub	fp, ip, #4	@,,
	push	{lr}
	bl	__gnu_mcount_nc
	movw	r2, #:lower16:1960188	@ tmp138,
	movt	r2, #:upper16:1960188	@ tmp138,
	ldr	r3, [r0, r2]	@ <variable>.pstExtraData, <variable>.pstExtraData
	ldr	ip, [r3, #692]	@ <variable>.s32FastForwardBackwardSpeed, <variable>.s32FastForwardBackwardSpeed
	add	r2, ip, #2032	@ tmp139, <variable>.s32FastForwardBackwardSpeed,
	add	r3, r2, #15	@ tmp139, tmp139,
	cmp	r3, #4096	@ tmp139,
	bcc	.L317	@,
	movw	r3, #:lower16:1960368	@ tmp143,
	movt	r3, #:upper16:1960368	@ tmp143,
	ldr	r2, [r0, #252]	@ <variable>.PicOutCounter, <variable>.PicOutCounter
	ldr	ip, [r0, r3]	@ <variable>.DPB.size, <variable>.DPB.size
	ldr	r3, [r0, #248]	@ D.44886, <variable>.NewPicCounter
	add	r2, ip, r2	@ D.44889, <variable>.DPB.size, <variable>.PicOutCounter
	add	ip, r2, #1	@ tmp146, D.44889,
	cmp	r3, ip	@ D.44886, tmp146
	bcc	.L317	@,
	mvn	r2, r2	@ tmp147, D.44889
	add	ip, r2, r3	@ tmp148, tmp147, D.44886
	cmp	ip, #1	@ tmp148,
	movhi	ip, #2	@ tmp149,
	movls	ip, #1	@ tmp152,
	strhi	ip, [r1, #84]	@ tmp149, <variable>.u32RepeatCnt
	strls	ip, [r1, #84]	@ tmp152, <variable>.u32RepeatCnt
	ldrhi	ip, [r0, #252]	@ <variable>.PicOutCounter, <variable>.PicOutCounter
	ldrls	ip, [r0, #252]	@ <variable>.PicOutCounter, <variable>.PicOutCounter
	addhi	ip, ip, #2	@ tmp151, <variable>.PicOutCounter,
	addls	ip, ip, #1	@ tmp154, <variable>.PicOutCounter,
	str	ip, [r0, #252]	@ tmp154, <variable>.PicOutCounter
	ldmfd	sp, {fp, sp, pc}	@
.L317:
	mov	r0, #0	@ tmp156,
	str	r0, [r1, #84]	@ tmp156, <variable>.u32RepeatCnt
	ldmfd	sp, {fp, sp, pc}	@
	.fnend
	.size	HEVC_SetFrmRepeatCount, .-HEVC_SetFrmRepeatCount
	.align	2
	.global	HEVC_GetFreeFrameStoreNum
	.type	HEVC_GetFreeFrameStoreNum, %function
HEVC_GetFreeFrameStoreNum:
	.fnstart
.LFB1618:
	@ args = 0, pretend = 0, frame = 8
	@ frame_needed = 1, uses_anonymous_args = 0
	.movsp ip
	mov	ip, sp	@,
	stmfd	sp!, {r4, r5, r6, r7, r8, r9, sl, fp, ip, lr, pc}	@,
	.pad #4
	.save {r4, r5, r6, r7, r8, r9, sl, fp, ip, lr}
	.setfp fp, ip, #-4
	sub	fp, ip, #4	@,,
	.pad #12
	sub	sp, sp, #12	@,,
	push	{lr}
	bl	__gnu_mcount_nc
	movw	r3, #:lower16:4306452	@ ivtmp.2073,
	movw	r2, #:lower16:1960396	@ ivtmp.2065,
	movt	r3, #:upper16:4306452	@ ivtmp.2073,
	movt	r2, #:upper16:1960396	@ ivtmp.2065,
	mov	r1, #0	@,
	movw	r9, #:lower16:1960372	@ tmp166,
	movw	sl, #:lower16:1960392	@ tmp167,
	add	r3, r0, r3	@ ivtmp.2073, pHevcCtx, ivtmp.2073
	add	r2, r0, r2	@ ivtmp.2065, pHevcCtx, ivtmp.2065
	movt	r9, #:upper16:1960372	@ tmp166,
	movt	sl, #:upper16:1960392	@ tmp167,
	mov	r6, r1	@ i,
	str	r1, [fp, #-48]	@, %sfp
.L327:
	ldr	r4, [r3, #0]	@ <variable>.eFrameStoreState, <variable>.eFrameStoreState
	cmp	r4, #0	@ <variable>.eFrameStoreState,
	bne	.L323	@,
	add	r5, r6, r6, asl #3	@, tmp157, i, i,
	movw	ip, #:lower16:4306448	@ tmp159,
	movt	ip, #:upper16:4306448	@ tmp159,
	mov	r1, r5, asl #6	@ tmp158, tmp157,
	add	r5, r1, ip	@ tmp159, tmp158, tmp159
	adds	r5, r0, r5	@ D.45056, pHevcCtx, tmp159
	beq	.L324	@,
	ldr	r8, [r0, r9]	@ D.48048, <variable>.DPB.used_size
	cmp	r8, #0	@ D.48048,
	beq	.L324	@,
	ldr	ip, [r0, sl]	@ <variable>.DPB.fs, <variable>.DPB.fs
	cmp	r5, ip	@ D.45056, <variable>.DPB.fs
	beq	.L323	@,
	tst	r8, #1	@ D.48048,
	mov	ip, r2	@ ivtmp.2065, ivtmp.2065
	bne	.L336	@,
	mov	r4, #1	@ i,
	cmp	r4, r8	@ i, D.48048
	bcs	.L324	@,
	mov	ip, r2	@ ivtmp.2065, ivtmp.2065
	ldr	r1, [ip], #4	@ D.48049, <variable>.DPB.fs
	cmp	r5, r1	@ D.45056, D.48049
	beq	.L323	@,
.L336:
	mov	r7, r3	@ ivtmp.2073, ivtmp.2073
	b	.L325	@
.L326:
	ldr	r1, [r3], #4	@ D.48049, <variable>.DPB.fs
	cmp	r5, r1	@ D.45056, D.48049
	beq	.L337	@,
	ldr	r1, [ip, #4]	@ D.48049, <variable>.DPB.fs
	add	ip, r3, #4	@ ivtmp.2065, tmp174,
	cmp	r5, r1	@ D.45056, D.48049
	beq	.L337	@,
.L325:
	add	r4, r4, #1	@ tmp173, i,
	mov	r3, ip	@ tmp174, ivtmp.2065
	cmp	r4, r8	@ tmp173, D.48048
	add	r4, r4, #1	@ i, tmp173,
	bcc	.L326	@,
	mov	r3, r7	@ ivtmp.2073, ivtmp.2073
.L324:
	ldr	r1, [fp, #-48]	@, %sfp
	add	ip, r1, #1	@,,
	str	ip, [fp, #-48]	@, %sfp
.L323:
	add	r6, r6, #1	@ i, i,
	add	r3, r3, #576	@ ivtmp.2073, ivtmp.2073,
	cmp	r6, #20	@ i,
	bne	.L327	@,
	ldr	r0, [fp, #-48]	@, %sfp
	sub	sp, fp, #40
	ldmfd	sp, {r4, r5, r6, r7, r8, r9, sl, fp, sp, pc}
.L337:
	mov	r3, r7	@ ivtmp.2073, ivtmp.2073
	b	.L323	@
	.fnend
	.size	HEVC_GetFreeFrameStoreNum, .-HEVC_GetFreeFrameStoreNum
	.align	2
	.global	HEVC_UpdateLTReflist
	.type	HEVC_UpdateLTReflist, %function
HEVC_UpdateLTReflist:
	.fnstart
.LFB1621:
	@ args = 0, pretend = 0, frame = 16
	@ frame_needed = 1, uses_anonymous_args = 0
	.movsp ip
	mov	ip, sp	@,
	stmfd	sp!, {r4, r5, r6, r7, r8, r9, sl, fp, ip, lr, pc}	@,
	.pad #4
	.save {r4, r5, r6, r7, r8, r9, sl, fp, ip, lr}
	.setfp fp, ip, #-4
	sub	fp, ip, #4	@,,
	.pad #20
	sub	sp, sp, #20	@,,
	push	{lr}
	bl	__gnu_mcount_nc
	movw	r5, #:lower16:2125436	@ tmp151,
	movw	r1, #:lower16:1960184	@ tmp153,
	movt	r5, #:upper16:2125436	@ tmp151,
	movt	r1, #:upper16:1960184	@ tmp153,
	movw	r8, #7704	@ tmp155,
	ldr	ip, [r0, r5]	@ <variable>.CurrSlice.pic_parameter_set_id, <variable>.CurrSlice.pic_parameter_set_id
	movw	r4, #:lower16:2128520	@ tmp167,
	ldr	r7, [r0, r1]	@ <variable>.pPPS, <variable>.pPPS
	movt	r4, #:upper16:2128520	@ tmp167,
	movw	r1, #:lower16:2128516	@ tmp166,
	movt	r1, #:upper16:2128516	@ tmp166,
	movw	r3, #:lower16:2128524	@ tmp165,
	movt	r3, #:upper16:2128524	@ tmp165,
	mla	r8, r8, ip, r7	@ tmp156, tmp155, <variable>.CurrSlice.pic_parameter_set_id, <variable>.pPPS
	ldr	r6, [r0, r4]	@ <variable>.CurrSlice.short_term_ref_pic_set.num_positive_pics, <variable>.CurrSlice.short_term_ref_pic_set.num_positive_pics
	ldr	r7, [r0, r1]	@ <variable>.CurrSlice.short_term_ref_pic_set.num_negative_pics, <variable>.CurrSlice.short_term_ref_pic_set.num_negative_pics
	movw	r2, #:lower16:1960180	@ tmp159,
	movt	r2, #:upper16:1960180	@ tmp159,
	ldr	r4, [r0, r3]	@ D.45199, <variable>.CurrSlice.short_term_ref_pic_set.num_of_pics
	add	r9, r7, r6	@ tmp168, <variable>.CurrSlice.short_term_ref_pic_set.num_negative_pics, <variable>.CurrSlice.short_term_ref_pic_set.num_positive_pics
	mov	ip, #1	@ tmp163,
	ldr	r5, [r0, r2]	@ <variable>.pSPS, <variable>.pSPS
	sub	r6, r9, #1	@ tmp171, tmp168,
	ldr	r2, [r8, #32]	@ <variable>.seq_parameter_set_id, <variable>.seq_parameter_set_id
	sub	r9, r4, #1	@ i, D.45199,
	cmp	r9, r6	@ i, tmp171
	movw	r6, #36364	@ tmp161,
	mla	r3, r6, r2, r5	@ tmp162, tmp161, <variable>.seq_parameter_set_id, <variable>.pSPS
	movle	r1, #0	@ prephitmp.2094,
	ldr	r5, [r3, #128]	@ <variable>.max_pic_order_cnt_lsb, <variable>.max_pic_order_cnt_lsb
	strle	r1, [fp, #-56]	@ prephitmp.2094, %sfp
	mov	r5, ip, asl r5	@ PocCycle, tmp163,
	ble	.L340	@,
	movw	r8, #:lower16:532148	@ tmp172,
	movt	r8, #:upper16:532148	@ tmp172,
	add	r3, r4, r8	@ tmp172, D.45199, tmp172
	movw	sl, #:lower16:1960392	@,
	movt	sl, #:upper16:1960392	@,
	sub	r5, r5, #1	@, PocCycle,
	add	r6, r0, r3, asl #2	@, tmp175, pHevcCtx, tmp172,
	add	r4, r0, sl	@, pHevcCtx,
	movw	r8, #:lower16:1960372	@,
	add	sl, r6, #8	@ ivtmp.2122, tmp175,
	movt	r8, #:upper16:1960372	@,
	mov	r6, #0	@,
	str	r5, [fp, #-48]	@, %sfp
	str	r4, [fp, #-52]	@, %sfp
	str	r6, [fp, #-56]	@, %sfp
	str	r8, [fp, #-60]	@, %sfp
.L346:
	ldr	r2, [sl, #-4]	@ tmp176, <variable>.CurrSlice.short_term_ref_pic_set.used_flag
	cmp	r2, #0	@ tmp176,
	beq	.L341	@,
	ldrb	r4, [sl, #-1740]	@ zero_extendqisi2	@ DeltaPocMsbCycleLtFlag, <variable>.CurrSlice.CheckLTMSB
	ldr	r5, [sl, #124]	@ RpsPoc, <variable>.CurrSlice.short_term_ref_pic_set.poc
	cmp	r4, #0	@ DeltaPocMsbCycleLtFlag,
	ldreq	ip, [fp, #-48]	@, %sfp
	andeq	r5, r5, ip	@ RpsPoc, RpsPoc,
	ldr	ip, [fp, #-60]	@, %sfp
	ldr	r7, [r0, ip]	@ D.45220, <variable>.DPB.used_size
	cmp	r7, #0	@ D.45220,
	ble	.L341	@,
	ldr	r3, [fp, #-52]	@, %sfp
	cmp	r4, #0	@ DeltaPocMsbCycleLtFlag,
	sub	r1, r7, #1	@ tmp231, D.45220,
	and	ip, r1, #1	@ tmp233, tmp231,
	ldr	r2, [r3, #0]	@ D.45211, <variable>.DPB.fs
	mov	r3, #0	@ j,
	ldr	r1, [r2, #12]	@ CurPoc, <variable>.poc
	ldreq	r6, [fp, #-48]	@, %sfp
	andeq	r1, r1, r6	@ CurPoc, CurPoc,
.L357:
	cmp	r5, r1	@ RpsPoc, CurPoc
	beq	.L371	@,
	mov	r3, #1	@ j,
	ldr	r8, [fp, #-52]	@, %sfp
	cmp	r3, r7	@ j, D.45220
	add	r1, r8, #4	@ ivtmp.2113,,
	bge	.L341	@,
	cmp	ip, #0	@ tmp233,
	beq	.L345	@,
	ldr	r2, [r8, #4]	@ D.45211, <variable>.DPB.fs
	cmp	r4, #0	@ DeltaPocMsbCycleLtFlag,
	ldreq	r6, [fp, #-48]	@, %sfp
	ldr	ip, [r2, #12]	@ CurPoc, <variable>.poc
	andeq	ip, ip, r6	@ CurPoc, CurPoc,
	cmp	r5, ip	@ RpsPoc, CurPoc
	beq	.L371	@,
	add	r3, r3, #1	@ j, j,
	add	r1, r1, #4	@ ivtmp.2113, ivtmp.2113,
	cmp	r3, r7	@ j, D.45220
	blt	.L345	@,
	b	.L341	@
.L344:
	ldr	r2, [r1, #4]	@ D.45211, <variable>.DPB.fs
	add	r3, r3, #1	@ j, j,
	cmp	r4, #0	@ DeltaPocMsbCycleLtFlag,
	mov	r8, r3	@ tmp235, j
	ldr	ip, [r2, #12]	@ CurPoc, <variable>.poc
	ldreq	r1, [fp, #-48]	@, %sfp
	andeq	ip, ip, r1	@ CurPoc, CurPoc,
.L364:
	cmp	r5, ip	@ RpsPoc, CurPoc
	add	r1, r6, #4	@ ivtmp.2113, tmp234,
	beq	.L371	@,
	add	r3, r8, #1	@ j, tmp235,
	cmp	r3, r7	@ j, D.45220
	bge	.L341	@,
.L345:
	ldr	r2, [r1, #0]	@ D.45211, <variable>.DPB.fs
	cmp	r4, #0	@ DeltaPocMsbCycleLtFlag,
	add	r6, r1, #4	@ tmp234, ivtmp.2113,
	ldreq	r8, [fp, #-48]	@, %sfp
	ldr	ip, [r2, #12]	@ CurPoc, <variable>.poc
	andeq	ip, ip, r8	@ CurPoc, CurPoc,
	cmp	r5, ip	@ RpsPoc, CurPoc
	bne	.L344	@,
.L371:
	movw	r1, #:lower16:490098	@ tmp184,
	movt	r1, #:upper16:490098	@ tmp184,
	add	r1, r3, r1	@ tmp184, j, tmp184
	mov	r3, #1	@,
	strb	r3, [r2, #1]	@, <variable>.is_reference
	movw	r2, #:lower16:490148	@ tmp192,
	ldr	r4, [fp, #-56]	@, %sfp
	movt	r2, #:upper16:490148	@ tmp192,
	ldr	r8, [r0, r1, asl #2]	@ tmp186, <variable>.DPB.fs
	add	r6, r4, r2	@ tmp192,, tmp192
	add	r4, r4, #1	@,,
	str	r4, [fp, #-56]	@, %sfp
	add	r3, r0, r6, asl #2	@, tmp196, pHevcCtx, tmp192,
	mov	r6, #0	@,
	str	r6, [r8, #56]	@, <variable>.frame.is_short_term
	mov	r8, #1	@,
	ldr	ip, [r0, r1, asl #2]	@ tmp190, <variable>.DPB.fs
	str	r8, [ip, #52]	@, <variable>.frame.is_long_term
	ldr	r2, [r0, r1, asl #2]	@ tmp200, <variable>.DPB.fs
	str	r2, [r3, #4]	@ tmp200, <variable>.DPB.fs_ltref
.L341:
	movw	ip, #:lower16:2128516	@,
	movw	r1, #:lower16:2128520	@,
	movt	ip, #:upper16:2128516	@,
	movt	r1, #:upper16:2128520	@,
	sub	r9, r9, #1	@ i, i,
	sub	sl, sl, #4	@ ivtmp.2122, ivtmp.2122,
	ldr	r2, [r0, ip]	@ <variable>.CurrSlice.short_term_ref_pic_set.num_negative_pics, <variable>.CurrSlice.short_term_ref_pic_set.num_negative_pics
	ldr	r3, [r0, r1]	@ <variable>.CurrSlice.short_term_ref_pic_set.num_positive_pics, <variable>.CurrSlice.short_term_ref_pic_set.num_positive_pics
	add	r3, r2, r3	@ tmp203, <variable>.CurrSlice.short_term_ref_pic_set.num_negative_pics, <variable>.CurrSlice.short_term_ref_pic_set.num_positive_pics
	sub	r2, r3, #1	@ tmp206, tmp203,
	cmp	r2, r9	@ tmp206, i
	blt	.L346	@,
	ldr	r1, [fp, #-56]	@ prephitmp.2094, %sfp
.L340:
	movw	r3, #:lower16:1960380	@ tmp207,
	movt	r3, #:upper16:1960380	@ tmp207,
	movw	r2, #:lower16:1960368	@ tmp208,
	movt	r2, #:upper16:1960368	@ tmp208,
	str	r1, [r0, r3]	@ prephitmp.2094, <variable>.DPB.ltref_frames_in_buffer
	ldr	ip, [r0, r2]	@ D.45228, <variable>.DPB.size
	ldr	r2, [fp, #-56]	@, %sfp
	cmp	r2, ip	@, D.45228
	bge	.L349	@,
	movw	r1, #:lower16:490148	@ tmp209,
	movt	r1, #:upper16:490148	@ tmp209,
	add	r3, r2, r1	@ tmp209,, tmp209
	add	r1, r2, #1	@ k,,
	mvn	r4, r2	@ tmp227,
	cmp	r1, ip	@ k, D.45228
	add	r3, r0, r3, asl #2	@, tmp212, pHevcCtx, tmp209,
	add	r0, r4, ip	@ tmp226, tmp227, D.45228
	add	r2, r3, #4	@ ivtmp.2109, tmp212,
	and	r4, r0, #1	@ tmp228, tmp226,
	mov	r0, #0	@ tmp216,
	str	r0, [r2], #4	@ tmp216, <variable>.DPB.fs_ltref
	bge	.L349	@,
	cmp	r4, #0	@ tmp228,
	beq	.L348	@,
	add	r1, r1, #1	@ k, k,
	str	r0, [r2], #4	@ tmp216, <variable>.DPB.fs_ltref
	cmp	r1, ip	@ k, D.45228
	bge	.L349	@,
.L348:
	add	r1, r1, #2	@ k, k,
	mov	r3, r2	@ tmp230, ivtmp.2109
	cmp	r1, ip	@ k, D.45228
	str	r0, [r3], #4	@ tmp216, <variable>.DPB.fs_ltref
	str	r0, [r2, #4]	@ tmp216, <variable>.DPB.fs_ltref
	add	r2, r3, #4	@ ivtmp.2109, tmp230,
	blt	.L348	@,
.L349:
	sub	sp, fp, #40
	ldmfd	sp, {r4, r5, r6, r7, r8, r9, sl, fp, sp, pc}
	.fnend
	.size	HEVC_UpdateLTReflist, .-HEVC_UpdateLTReflist
	.align	2
	.global	HEVC_CheckOutputImage
	.type	HEVC_CheckOutputImage, %function
HEVC_CheckOutputImage:
	.fnstart
.LFB1631:
	@ args = 0, pretend = 0, frame = 0
	@ frame_needed = 1, uses_anonymous_args = 0
	.movsp ip
	mov	ip, sp	@,
	stmfd	sp!, {fp, ip, lr, pc}	@,
	.pad #4
	.save {fp, ip, lr}
	.setfp fp, ip, #-4
	sub	fp, ip, #4	@,,
	push	{lr}
	bl	__gnu_mcount_nc
	cmp	r1, #19	@ PicID,
	mvnhi	r0, #0	@ D.45516,
	ldmhifd	sp, {fp, sp, pc}	@
	add	r1, r1, r1, asl #3	@, tmp140, PicID, PicID,
	movw	r2, #:lower16:4306448	@ tmp143,
	movt	r2, #:upper16:4306448	@ tmp143,
	add	ip, r0, r1, asl #6	@, tmp142, pHevcCtx, tmp140,
	add	r3, ip, r2	@ tmp143, tmp142, tmp143
	ldrb	r0, [r3, #1]	@ zero_extendqisi2	@ <variable>.is_reference, <variable>.is_reference
	subs	r0, r0, #0	@ D.45516, <variable>.is_reference,
	movne	r0, #1	@ D.45516
	ldmfd	sp, {fp, sp, pc}	@
	.fnend
	.size	HEVC_CheckOutputImage, .-HEVC_CheckOutputImage
	.align	2
	.global	HEVC_WaitVo
	.type	HEVC_WaitVo, %function
HEVC_WaitVo:
	.fnstart
.LFB1636:
	@ args = 0, pretend = 0, frame = 0
	@ frame_needed = 1, uses_anonymous_args = 0
	.movsp ip
	mov	ip, sp	@,
	stmfd	sp!, {fp, ip, lr, pc}	@,
	.pad #4
	.save {fp, ip, lr}
	.setfp fp, ip, #-4
	sub	fp, ip, #4	@,,
	push	{lr}
	bl	__gnu_mcount_nc
	ldmfd	sp, {fp, sp, pc}	@
	.fnend
	.size	HEVC_WaitVo, .-HEVC_WaitVo
	.align	2
	.global	HEVC_GetReRangeFlag
	.type	HEVC_GetReRangeFlag, %function
HEVC_GetReRangeFlag:
	.fnstart
.LFB1641:
	@ args = 0, pretend = 0, frame = 0
	@ frame_needed = 1, uses_anonymous_args = 0
	.movsp ip
	mov	ip, sp	@,
	stmfd	sp!, {r4, r5, fp, ip, lr, pc}	@,
	.pad #4
	.save {r4, r5, fp, ip, lr}
	.setfp fp, ip, #-4
	sub	fp, ip, #4	@,,
	push	{lr}
	bl	__gnu_mcount_nc
	movw	ip, #:lower16:2125436	@ tmp143,
	movw	r3, #:lower16:1960184	@ tmp145,
	movt	ip, #:upper16:2125436	@ tmp143,
	movt	r3, #:upper16:1960184	@ tmp145,
	movw	r5, #:lower16:1960180	@ tmp141,
	ldr	r4, [r0, ip]	@ <variable>.CurrSlice.pic_parameter_set_id, <variable>.CurrSlice.pic_parameter_set_id
	movt	r5, #:upper16:1960180	@ tmp141,
	ldr	r3, [r0, r3]	@ <variable>.pPPS, <variable>.pPPS
	ldr	ip, [r0, r5]	@ <variable>.pSPS, <variable>.pSPS
	movw	r5, #7704	@ tmp147,
	mla	r3, r5, r4, r3	@ tmp148, tmp147, <variable>.CurrSlice.pic_parameter_set_id, <variable>.pPPS
	movw	r4, #36364	@ tmp151,
	ldr	r3, [r3, #32]	@ <variable>.seq_parameter_set_id, <variable>.seq_parameter_set_id
	mla	r3, r4, r3, ip	@ sps, tmp151, <variable>.seq_parameter_set_id, <variable>.pSPS
	ldrb	ip, [r3, #2]	@ zero_extendqisi2	@ <variable>.dpbsize_changed, <variable>.dpbsize_changed
	ldr	r4, [r3, #72]	@ <variable>.pic_width_in_luma_samples, <variable>.pic_width_in_luma_samples
	ldr	r3, [r3, #76]	@ newh, <variable>.pic_height_in_luma_samples
	cmp	ip, #0	@ <variable>.dpbsize_changed,
	cmpeq	r1, r4	@, OldWidth, <variable>.pic_width_in_luma_samples
	bne	.L384	@,
	cmp	r2, r3	@ OldHeight, newh
	beq	.L387	@,
.L384:
	mov	r0, #1	@ ReRangeFlag,
	ldmfd	sp, {r4, r5, fp, sp, pc}	@
.L387:
	ldr	r1, [r0, #160]	@ <variable>.AllowStartDec, <variable>.AllowStartDec
	cmp	r1, #0	@ <variable>.AllowStartDec,
	beq	.L384	@,
	movw	r3, #:lower16:1960188	@ tmp164,
	movt	r3, #:upper16:1960188	@ tmp164,
	ldr	r2, [r0, r3]	@ <variable>.pstExtraData, <variable>.pstExtraData
	ldr	r0, [r2, #920]	@ <variable>.s32BitDepthChanged, <variable>.s32BitDepthChanged
	subs	r0, r0, #0	@ ReRangeFlag, <variable>.s32BitDepthChanged,
	movne	r0, #1	@ ReRangeFlag
	ldmfd	sp, {r4, r5, fp, sp, pc}	@
	.fnend
	.size	HEVC_GetReRangeFlag, .-HEVC_GetReRangeFlag
	.align	2
	.global	HEVC_GetRapPicFlag
	.type	HEVC_GetRapPicFlag, %function
HEVC_GetRapPicFlag:
	.fnstart
.LFB1646:
	@ args = 0, pretend = 0, frame = 0
	@ frame_needed = 1, uses_anonymous_args = 0
	.movsp ip
	mov	ip, sp	@,
	stmfd	sp!, {fp, ip, lr, pc}	@,
	.pad #4
	.save {fp, ip, lr}
	.setfp fp, ip, #-4
	sub	fp, ip, #4	@,,
	push	{lr}
	bl	__gnu_mcount_nc
	movw	r3, #:lower16:2125432	@ tmp141,
	movt	r3, #:upper16:2125432	@ tmp141,
	ldr	r1, [r0, r3]	@ <variable>.CurrSlice.nal_unit_type, <variable>.CurrSlice.nal_unit_type
	sub	r0, r1, #16	@ tmp137, <variable>.CurrSlice.nal_unit_type,
	cmp	r0, #5	@ tmp137,
	movhi	r0, #0	@,
	movls	r0, #1	@,
	ldmfd	sp, {fp, sp, pc}	@
	.fnend
	.size	HEVC_GetRapPicFlag, .-HEVC_GetRapPicFlag
	.align	2
	.global	HEVC_GetIdrPicFlag
	.type	HEVC_GetIdrPicFlag, %function
HEVC_GetIdrPicFlag:
	.fnstart
.LFB1647:
	@ args = 0, pretend = 0, frame = 0
	@ frame_needed = 1, uses_anonymous_args = 0
	.movsp ip
	mov	ip, sp	@,
	stmfd	sp!, {fp, ip, lr, pc}	@,
	.pad #4
	.save {fp, ip, lr}
	.setfp fp, ip, #-4
	sub	fp, ip, #4	@,,
	push	{lr}
	bl	__gnu_mcount_nc
	movw	r3, #:lower16:2125432	@ tmp141,
	movt	r3, #:upper16:2125432	@ tmp141,
	ldr	r1, [r0, r3]	@ <variable>.CurrSlice.nal_unit_type, <variable>.CurrSlice.nal_unit_type
	sub	r0, r1, #19	@ tmp137, <variable>.CurrSlice.nal_unit_type,
	cmp	r0, #1	@ tmp137,
	movhi	r0, #0	@,
	movls	r0, #1	@,
	ldmfd	sp, {fp, sp, pc}	@
	.fnend
	.size	HEVC_GetIdrPicFlag, .-HEVC_GetIdrPicFlag
	.align	2
	.global	HEVC_CalScalingList
	.type	HEVC_CalScalingList, %function
HEVC_CalScalingList:
	.fnstart
.LFB1652:
	@ args = 0, pretend = 0, frame = 0
	@ frame_needed = 1, uses_anonymous_args = 0
	.movsp ip
	mov	ip, sp	@,
	stmfd	sp!, {r4, r5, r6, r7, r8, sl, fp, ip, lr, pc}	@,
	.pad #4
	.save {r4, r5, r6, r7, r8, sl, fp, ip, lr}
	.setfp fp, ip, #-4
	sub	fp, ip, #4	@,,
	push	{lr}
	bl	__gnu_mcount_nc
	add	ip, r0, r2, asl #2	@, tmp145, pHevcCtx, ListSize,
	add	r8, r2, r2, asl #1	@, tmp211, ListSize, ListSize,
	mov	r4, #0	@ k,
	ldr	ip, [ip, #268]	@ tmp147, <variable>.scalingListSize
	add	r2, r3, r8, asl #1	@, tmp213, MatrixId, tmp211,
	cmp	ip, #64	@ tmp147,
	movcs	ip, #64	@ CoefNum,
	mov	r8, r2, asl #4	@ tmp214, tmp213,
	mov	r3, ip, lsr #2	@ pretmp.2273, CoefNum,
.L408:
	cmp	r4, r3	@ k, pretmp.2273
	ldmcsfd	sp, {r4, r5, r6, r7, r8, sl, fp, sp, pc}	@
	cmp	ip, #0	@ CoefNum,
	beq	.L408	@,
	add	r2, r8, r4	@ tmp184, tmp214, k
	ldr	r6, [r1, #0]	@ tmp203,* pScalingListCoef
	add	r5, r2, #138	@ tmp185, tmp184,
	tst	ip, #1	@ CoefNum,
	mov	r2, #0	@ i,
	add	r5, r0, r5, asl #2	@, tmp188, pHevcCtx, tmp185,
	ldr	r7, [r5, #4]	@ tmp202, <variable>.qmatrix
	orr	r6, r7, r6	@ tmp204, tmp202, tmp203
	str	r6, [r5, #4]	@ tmp204, <variable>.qmatrix
	beq	.L410	@,
.L407:
	add	r2, r2, #1	@ tmp221, i,
	cmp	ip, r2	@ CoefNum, tmp221
	bls	.L408	@,
	add	r7, r8, r4	@ tmp154, tmp214, k
	ldr	sl, [r1, r2, asl #2]	@ tmp163,* pScalingListCoef
	add	r5, r7, #138	@ tmp155, tmp154,
	and	r6, r2, #3	@ D.46383, tmp221,
	cmp	r6, #3	@ D.46383,
	add	r2, r2, #1	@ i, tmp221,
	add	r5, r0, r5, asl #2	@, tmp158, pHevcCtx, tmp155,
	addeq	r4, r4, #1	@ k, k,
	mov	r6, r6, asl #3	@ tmp161, D.46383,
	ldr	r7, [r5, #4]	@ tmp176, <variable>.qmatrix
	orr	r6, r7, sl, asl r6	@, tmp177, tmp176, tmp163,
	add	sl, r8, r4	@ tmp244, tmp214, k
	str	r6, [r5, #4]	@ tmp177, <variable>.qmatrix
	add	r5, sl, #138	@ tmp245, tmp244,
	and	r7, r2, #3	@ D.46383, i,
	ldr	sl, [r1, r2, asl #2]	@ tmp251,* pScalingListCoef
	add	r5, r0, r5, asl #2	@, tmp247, pHevcCtx, tmp245,
	cmp	r7, #3	@ D.46383,
	mov	r6, r7, asl #3	@ tmp250, D.46383,
	addeq	r4, r4, #1	@ k, k,
	ldr	r7, [r5, #4]	@ tmp253, <variable>.qmatrix
	orr	r6, r7, sl, asl r6	@, tmp254, tmp253, tmp251,
	str	r6, [r5, #4]	@ tmp254, <variable>.qmatrix
	b	.L407	@
.L410:
	mov	r2, #1	@ i,
	cmp	ip, r2	@ CoefNum, i
	bls	.L408	@,
	ldr	r7, [r1, #4]	@ tmp235,
	orr	r6, r6, r7, asl #8	@, tmp238, tmp204, tmp235,
	str	r6, [r5, #4]	@ tmp238, <variable>.qmatrix
	b	.L407	@
	.fnend
	.size	HEVC_CalScalingList, .-HEVC_CalScalingList
	.align	2
	.global	HEVC_FindNaluArraySlot
	.type	HEVC_FindNaluArraySlot, %function
HEVC_FindNaluArraySlot:
	.fnstart
.LFB1662:
	@ args = 0, pretend = 0, frame = 0
	@ frame_needed = 1, uses_anonymous_args = 0
	.movsp ip
	mov	ip, sp	@,
	stmfd	sp!, {r3, r4, r5, r6, r7, r8, fp, ip, lr, pc}	@,
	.pad #4
	.save {r3, r4, r5, r6, r7, r8, fp, ip, lr}
	.setfp fp, ip, #-4
	sub	fp, ip, #4	@,,
	push	{lr}
	bl	__gnu_mcount_nc
	ldr	ip, [r0, #140]	@ Pos, <variable>.NalArrayPos
	movw	r4, #:lower16:-1689489505	@ tmp163,
	movt	r4, #:upper16:-1689489505	@ tmp163,
	mov	r5, #211	@ tmp164,
	mov	r6, #100	@ tmp166,
	umull	r7, r1, r4, ip	@, tmp139, tmp163, Pos
	movw	r3, #:lower16:2358472	@ tmp147,
	movt	r3, #:upper16:2358472	@ tmp147,
	mov	r2, r1, lsr #7	@ Pos, tmp139,
	mls	r2, r5, r2, ip	@ Pos, tmp164, Pos, Pos
	mla	r1, r6, r2, r0	@ tmp146, tmp166, Pos, pHevcCtx
	add	r3, r1, r3	@ tmp147, tmp146, tmp147
	ldr	r1, [r3, #8]	@ <variable>.is_valid, <variable>.is_valid
	cmp	r1, #0	@ <variable>.is_valid,
	movne	r1, #1	@ i,
	bne	.L413	@,
	b	.L412	@
.L426:
	mls	r2, r5, r8, ip	@ Pos, tmp164, Pos, D.47193
	movw	r3, #:lower16:2358472	@ tmp147,
	movt	r3, #:upper16:2358472	@ tmp147,
	mla	ip, r6, r2, r0	@ tmp192, tmp166, Pos, pHevcCtx
	add	r3, ip, r3	@ tmp147, tmp192, tmp147
	ldr	ip, [r3, #8]	@ <variable>.is_valid, <variable>.is_valid
	cmp	ip, #0	@ <variable>.is_valid,
	beq	.L412	@,
	cmp	r1, #211	@ i,
	beq	.L425	@,
.L413:
	add	r2, r1, r2	@ D.47193, i, Pos
	add	ip, r1, #1	@ tmp167, i,
	movw	r3, #:lower16:2358472	@ tmp147,
	movt	r3, #:upper16:2358472	@ tmp147,
	umull	r1, r8, r4, r2	@, tmp173, tmp163, D.47193
	add	r1, ip, #1	@ i, tmp167,
	mov	r7, r8, lsr #7	@ Pos, tmp173,
	mls	r2, r5, r7, r2	@ Pos, tmp164, Pos, D.47193
	add	ip, ip, r2	@ D.47193, tmp167, Pos
	umull	r7, r8, r4, ip	@, tmp185, tmp163, D.47193
	mla	r7, r6, r2, r0	@ tmp180, tmp166, Pos, pHevcCtx
	add	r3, r7, r3	@ tmp147, tmp180, tmp147
	mov	r8, r8, lsr #7	@ Pos, tmp185,
	ldr	r7, [r3, #8]	@ <variable>.is_valid, <variable>.is_valid
	cmp	r7, #0	@ <variable>.is_valid,
	bne	.L426	@,
.L412:
	cmp	r2, #210	@ D.47204,
	str	r2, [r0, #140]	@ D.47204, <variable>.NalArrayPos
	movls	r1, #1	@ tmp159,
	strls	r1, [r3, #8]	@ tmp159, <variable>.is_valid
	bhi	.L424	@,
	mov	r0, r2	@, D.47204
	ldmfd	sp, {r3, r4, r5, r6, r7, r8, fp, sp, pc}	@
.L425:
	str	r2, [r0, #140]	@ Pos, <variable>.NalArrayPos
.L424:
	mvn	r2, #0	@ D.47204,
	mov	r0, r2	@, D.47204
	ldmfd	sp, {r3, r4, r5, r6, r7, r8, fp, sp, pc}	@
	.fnend
	.size	HEVC_FindNaluArraySlot, .-HEVC_FindNaluArraySlot
	.align	2
	.global	HEVC_IsOutDPB
	.type	HEVC_IsOutDPB, %function
HEVC_IsOutDPB:
	.fnstart
.LFB1667:
	@ args = 0, pretend = 0, frame = 0
	@ frame_needed = 1, uses_anonymous_args = 0
	.movsp ip
	mov	ip, sp	@,
	stmfd	sp!, {r3, r4, fp, ip, lr, pc}	@,
	.pad #4
	.save {r3, r4, fp, ip, lr}
	.setfp fp, ip, #-4
	sub	fp, ip, #4	@,,
	push	{lr}
	bl	__gnu_mcount_nc
	cmp	r1, #0	@ pFrameStore
	beq	.L428	@,
	movw	r3, #:lower16:1960372	@ tmp141,
	movt	r3, #:upper16:1960372	@ tmp141,
	ldr	r4, [r0, r3]	@ D.47349, <variable>.DPB.used_size
	cmp	r4, #0	@ D.47349,
	beq	.L428	@,
	movw	ip, #:lower16:1960392	@ tmp142,
	movt	ip, #:upper16:1960392	@ tmp142,
	ldr	r2, [r0, ip]	@ <variable>.DPB.fs, <variable>.DPB.fs
	cmp	r2, r1	@ <variable>.DPB.fs, pFrameStore
	beq	.L429	@,
	tst	r4, #1	@ D.47349,
	movw	r3, #:lower16:1960396	@ ivtmp.2349,
	movt	r3, #:upper16:1960396	@ ivtmp.2349,
	mov	ip, #0	@ i,
	add	r3, r0, r3	@ ivtmp.2349, pHevcCtx, ivtmp.2349
	bne	.L430	@,
	ldr	r2, [r3], #4	@ D.47346, <variable>.DPB.fs
	mov	ip, #1	@ i,
	cmp	r2, r1	@ D.47346, pFrameStore
	bne	.L430	@,
.L429:
	mov	r0, #0	@ D.47344,
	ldmfd	sp, {r3, r4, fp, sp, pc}	@
.L431:
	ldr	r0, [r2], #4	@ D.47346, <variable>.DPB.fs
	cmp	r0, r1	@ D.47346, pFrameStore
	beq	.L429	@,
	ldr	r0, [r3, #4]	@ D.47346, <variable>.DPB.fs
	add	r3, r2, #4	@ ivtmp.2349, tmp150,
	cmp	r0, r1	@ D.47346, pFrameStore
	beq	.L429	@,
.L430:
	add	r0, ip, #1	@ tmp149, i,
	mov	r2, r3	@ tmp150, ivtmp.2349
	cmp	r0, r4	@ tmp149, D.47349
	add	ip, r0, #1	@ i, tmp149,
	bcc	.L431	@,
.L428:
	mov	r0, #1	@ D.47344,
	ldmfd	sp, {r3, r4, fp, sp, pc}	@
	.fnend
	.size	HEVC_IsOutDPB, .-HEVC_IsOutDPB
	.align	2
	.global	HEVC_IsNewPicNal
	.type	HEVC_IsNewPicNal, %function
HEVC_IsNewPicNal:
	.fnstart
.LFB1671:
	@ args = 0, pretend = 0, frame = 0
	@ frame_needed = 1, uses_anonymous_args = 0
	.movsp ip
	mov	ip, sp	@,
	stmfd	sp!, {fp, ip, lr, pc}	@,
	.pad #4
	.save {fp, ip, lr}
	.setfp fp, ip, #-4
	sub	fp, ip, #4	@,,
	push	{lr}
	bl	__gnu_mcount_nc
	mov	r0, #0	@,
	ldmfd	sp, {fp, sp, pc}	@
	.fnend
	.size	HEVC_IsNewPicNal, .-HEVC_IsNewPicNal
	.align	2
	.global	HEVC_FrameStoreRefFlg
	.type	HEVC_FrameStoreRefFlg, %function
HEVC_FrameStoreRefFlg:
	.fnstart
.LFB1678:
	@ args = 0, pretend = 0, frame = 0
	@ frame_needed = 1, uses_anonymous_args = 0
	.movsp ip
	mov	ip, sp	@,
	stmfd	sp!, {fp, ip, lr, pc}	@,
	.pad #4
	.save {fp, ip, lr}
	.setfp fp, ip, #-4
	sub	fp, ip, #4	@,,
	push	{lr}
	bl	__gnu_mcount_nc
	ldrb	r0, [r0, #1]	@ zero_extendqisi2	@ <variable>.is_reference, <variable>.is_reference
	subs	r0, r0, #0	@, <variable>.is_reference,
	movne	r0, #1	@
	ldmfd	sp, {fp, sp, pc}	@
	.fnend
	.size	HEVC_FrameStoreRefFlg, .-HEVC_FrameStoreRefFlg
	.align	2
	.global	HEVC_GetPicStreamSize
	.type	HEVC_GetPicStreamSize, %function
HEVC_GetPicStreamSize:
	.fnstart
.LFB1687:
	@ args = 0, pretend = 0, frame = 0
	@ frame_needed = 1, uses_anonymous_args = 0
	.movsp ip
	mov	ip, sp	@,
	stmfd	sp!, {fp, ip, lr, pc}	@,
	.pad #4
	.save {fp, ip, lr}
	.setfp fp, ip, #-4
	sub	fp, ip, #4	@,,
	push	{lr}
	bl	__gnu_mcount_nc
	movw	r3, #:lower16:2139520	@ tmp138,
	movt	r3, #:upper16:2139520	@ tmp138,
	ldr	r3, [r0, r3]	@ pHevcSliceParam, <variable>.DecPicPara.pFirstSlice
	cmp	r3, #0	@ pHevcSliceParam,
	moveq	r0, r3	@ TotalSize, pHevcSliceParam
	ldmeqfd	sp, {fp, sp, pc}	@
	mov	r0, #0	@ TotalSize,
.L446:
	ldmia	r3, {r1, r2}	@ phole ldm
	ldr	r3, [r3, #1292]	@ pHevcSliceParam, <variable>.pNextSlice
	add	ip, r1, r2	@ tmp139, <variable>.valid_bitlen, <variable>.valid_bitlen
	add	r2, ip, #7	@ tmp142, tmp139,
	cmp	r3, #0	@ pHevcSliceParam,
	add	r0, r0, r2, lsr #3	@, TotalSize, TotalSize, tmp142,
	bne	.L446	@,
	ldmfd	sp, {fp, sp, pc}	@
	.fnend
	.size	HEVC_GetPicStreamSize, .-HEVC_GetPicStreamSize
	.align	2
	.global	HEVCDEC_GetImageWidth
	.type	HEVCDEC_GetImageWidth, %function
HEVCDEC_GetImageWidth:
	.fnstart
.LFB1689:
	@ args = 0, pretend = 0, frame = 0
	@ frame_needed = 1, uses_anonymous_args = 0
	.movsp ip
	mov	ip, sp	@,
	stmfd	sp!, {fp, ip, lr, pc}	@,
	.pad #4
	.save {fp, ip, lr}
	.setfp fp, ip, #-4
	sub	fp, ip, #4	@,,
	push	{lr}
	bl	__gnu_mcount_nc
	movw	r3, #:lower16:2044528	@ tmp143,
	movw	r1, #:lower16:2044448	@ tmp144,
	movt	r3, #:upper16:2044528	@ tmp143,
	movt	r1, #:upper16:2044448	@ tmp144,
	ldr	ip, [r0, r3]	@ D.47849, <variable>.CurrSPS.min_cb_sizeY
	ldr	r2, [r0, r1]	@ <variable>.CurrSPS.pic_width_in_luma_samples, <variable>.CurrSPS.pic_width_in_luma_samples
	rsb	r3, ip, #0	@ tmp142, D.47849
	add	r1, ip, r2	@ tmp139, D.47849, <variable>.CurrSPS.pic_width_in_luma_samples
	sub	r0, r1, #1	@ tmp141, tmp139,
	and	r0, r0, r3	@, tmp141, tmp142
	ldmfd	sp, {fp, sp, pc}	@
	.fnend
	.size	HEVCDEC_GetImageWidth, .-HEVCDEC_GetImageWidth
	.align	2
	.global	HEVCDEC_GetImageHeight
	.type	HEVCDEC_GetImageHeight, %function
HEVCDEC_GetImageHeight:
	.fnstart
.LFB1690:
	@ args = 0, pretend = 0, frame = 0
	@ frame_needed = 1, uses_anonymous_args = 0
	.movsp ip
	mov	ip, sp	@,
	stmfd	sp!, {fp, ip, lr, pc}	@,
	.pad #4
	.save {fp, ip, lr}
	.setfp fp, ip, #-4
	sub	fp, ip, #4	@,,
	push	{lr}
	bl	__gnu_mcount_nc
	movw	r3, #:lower16:2044528	@ tmp143,
	movw	r1, #:lower16:2044452	@ tmp144,
	movt	r3, #:upper16:2044528	@ tmp143,
	movt	r1, #:upper16:2044452	@ tmp144,
	ldr	ip, [r0, r3]	@ D.47859, <variable>.CurrSPS.min_cb_sizeY
	ldr	r2, [r0, r1]	@ <variable>.CurrSPS.pic_height_in_luma_samples, <variable>.CurrSPS.pic_height_in_luma_samples
	rsb	r3, ip, #0	@ tmp142, D.47859
	add	r1, ip, r2	@ tmp139, D.47859, <variable>.CurrSPS.pic_height_in_luma_samples
	sub	r0, r1, #1	@ tmp141, tmp139,
	and	r0, r0, r3	@, tmp141, tmp142
	ldmfd	sp, {fp, sp, pc}	@
	.fnend
	.size	HEVCDEC_GetImageHeight, .-HEVCDEC_GetImageHeight
	.align	2
	.global	HEVC_GetScalingListDefaultAddress
	.type	HEVC_GetScalingListDefaultAddress, %function
HEVC_GetScalingListDefaultAddress:
	.fnstart
.LFB1653:
	@ args = 0, pretend = 0, frame = 0
	@ frame_needed = 1, uses_anonymous_args = 0
	.movsp ip
	mov	ip, sp	@,
	stmfd	sp!, {fp, ip, lr, pc}	@,
	.pad #4
	.save {fp, ip, lr}
	.setfp fp, ip, #-4
	sub	fp, ip, #4	@,,
	push	{lr}
	bl	__gnu_mcount_nc
	cmp	r0, #3	@ sizeId,
	ldrls	pc, [pc, r0, asl #2]	@ sizeId
	b	.L454	@
.L459:
	.word	.L455
	.word	.L457
	.word	.L457
	.word	.L458
.L457:
	ldr	r3, .L465	@ tmp148,
	cmp	r1, #2	@ matrixId,
	sub	r0, r3, #256	@ tmp149, tmp148,
	movls	r0, r3	@ src, tmp148
	ldmfd	sp, {fp, sp, pc}	@
.L458:
	ldr	r2, .L465	@ tmp150,
	cmp	r1, #0	@ matrixId,
	sub	r0, r2, #256	@ tmp151, tmp150,
	moveq	r0, r2	@ src, tmp150
	ldmfd	sp, {fp, sp, pc}	@
.L455:
	movw	r0, #:lower16:.LANCHOR0	@ src,
	movt	r0, #:upper16:.LANCHOR0	@ src,
	ldmfd	sp, {fp, sp, pc}	@
.L454:
	mov	r0, #1	@,
	movw	r1, #:lower16:.LC0	@,
	movt	r1, #:upper16:.LC0	@,
	bl	dprint_vfmw	@
	mov	r0, #0	@ src,
	ldmfd	sp, {fp, sp, pc}	@
.L466:
	.align	2
.L465:
	.word	.LANCHOR0+320
	.fnend
	.size	HEVC_GetScalingListDefaultAddress, .-HEVC_GetScalingListDefaultAddress
	.align	2
	.global	HEVC_IsNewPic
	.type	HEVC_IsNewPic, %function
HEVC_IsNewPic:
	.fnstart
.LFB1644:
	@ args = 0, pretend = 0, frame = 0
	@ frame_needed = 1, uses_anonymous_args = 0
	.movsp ip
	mov	ip, sp	@,
	stmfd	sp!, {r4, r5, r6, fp, ip, lr, pc}	@,
	.pad #4
	.save {r4, r5, r6, fp, ip, lr}
	.setfp fp, ip, #-4
	sub	fp, ip, #4	@,,
	.pad #20
	sub	sp, sp, #20	@,,
	push	{lr}
	bl	__gnu_mcount_nc
	ldr	r4, [r0, #192]	@ prephitmp.2519, <variable>.PocRandomAccess
	mov	r3, r0	@ pHevcCtx, pHevcCtx
	cmn	r4, #-2147483647	@ prephitmp.2519,
	beq	.L468	@,
	movw	r0, #:lower16:1960196	@ tmp153,
	movt	r0, #:upper16:1960196	@ tmp153,
	ldr	r2, [r3, r0]	@ <variable>.pCurrNal, <variable>.pCurrNal
	ldr	r2, [r2, #16]	@ prephitmp.2518, <variable>.nal_unit_type
.L469:
	cmp	r2, #21	@ prephitmp.2518,
	cmpne	r2, #16	@, prephitmp.2518,
	beq	.L471	@,
	cmp	r2, #18	@ prephitmp.2518,
	beq	.L471	@,
	cmp	r2, #17	@ prephitmp.2518,
	beq	.L471	@,
	sub	r1, r2, #19	@ tmp177, prephitmp.2518,
	cmp	r1, #1	@ tmp177,
	movls	r4, #-2147483647	@ tmp178,
	strls	r4, [r3, #192]	@ tmp178, <variable>.PocRandomAccess
.L473:
	movw	r2, #:lower16:2125408	@ tmp179,
	movt	r2, #:upper16:2125408	@ tmp179,
	ldr	ip, [r3, r2]	@ D.45968, <variable>.CurrSlice.poc
	cmp	ip, r4	@ D.45968, prephitmp.2519
	bge	.L474	@,
.L492:
	movw	r5, #:lower16:1960196	@ tmp181,
	movt	r5, #:upper16:1960196	@ tmp181,
	ldr	r1, [r3, r5]	@ <variable>.pCurrNal, <variable>.pCurrNal
	ldr	r5, [r1, #16]	@ D.45947, <variable>.nal_unit_type
	sub	r0, r5, #8	@ tmp182, D.45947,
	cmp	r0, #1	@ tmp182,
	bls	.L488	@,
.L474:
	ldrb	r4, [r3, #2]	@ zero_extendqisi2	@ D.45977, <variable>.bNoRaslOutputFlag
	cmp	r4, #0	@ D.45977,
	beq	.L475	@,
	movw	r1, #:lower16:1960196	@ tmp186,
	movt	r1, #:upper16:1960196	@ tmp186,
	ldr	r0, [r3, r1]	@ <variable>.pCurrNal, <variable>.pCurrNal
	ldr	r5, [r0, #16]	@ temp.2537, <variable>.nal_unit_type
	sub	r2, r5, #8	@ tmp187, temp.2537,
	cmp	r2, #1	@ tmp187,
	bls	.L489	@,
.L475:
	ldrb	r4, [r3, #7]	@ zero_extendqisi2	@ D.45984, <variable>.PrevRAPIsBLA
	cmp	r4, #0	@ D.45984,
	beq	.L476	@,
	ldr	r5, [r3, #196]	@ D.45987, <variable>.PocCRA
	cmp	ip, r5	@ D.45968, D.45987
	bge	.L476	@,
	movw	r6, #:lower16:1960196	@ tmp191,
	movt	r6, #:upper16:1960196	@ tmp191,
	ldr	r0, [r3, r6]	@ <variable>.pCurrNal, <variable>.pCurrNal
	ldr	r6, [r0, #16]	@ temp.2540, <variable>.nal_unit_type
	sub	r2, r6, #8	@ tmp192, temp.2540,
	cmp	r2, #1	@ tmp192,
	bls	.L490	@,
.L476:
	movw	r1, #:lower16:2125363	@ tmp195,
	movt	r1, #:upper16:2125363	@ tmp195,
	ldrb	r2, [r3, r1]	@ zero_extendqisi2	@ <variable>.CurrSlice.dependent_slice_segment_flag, <variable>.CurrSlice.dependent_slice_segment_flag
	cmp	r2, #0	@ <variable>.CurrSlice.dependent_slice_segment_flag,
	bne	.L477	@,
	movw	r0, #:lower16:1960196	@ tmp198,
	movt	r0, #:upper16:1960196	@ tmp198,
	ldr	r1, [r3, r0]	@ <variable>.pCurrNal, <variable>.pCurrNal
	ldr	r1, [r1, #16]	@ temp.2543, <variable>.nal_unit_type
	sub	r0, r1, #19	@ tmp199, temp.2543,
	cmp	r0, #1	@ tmp199,
	bls	.L486	@,
	cmp	r1, #21	@ temp.2543,
	beq	.L486	@,
	sub	r1, r1, #16	@ tmp204, temp.2543,
	cmp	r1, #2	@ tmp204,
	strls	ip, [r3, #196]	@ D.45968, <variable>.PocCRA
	movls	r2, #1	@ tmp205,
	strlsb	r2, [r3, #7]	@ tmp205, <variable>.PrevRAPIsBLA
.L477:
	ldr	r1, [r3, #208]	@ D.46008, <variable>.TotalSliceNum
	movw	ip, #:lower16:2125361	@ tmp207,
	movt	ip, #:upper16:2125361	@ tmp207,
	cmp	r1, #0	@ D.46008,
	ldrb	r0, [r3, ip]	@ zero_extendqisi2	@ ret, <variable>.CurrSlice.first_slice_segment_in_pic_flag
	bne	.L480	@,
.L493:
	movw	r2, #:lower16:2125436	@ tmp208,
	movt	r2, #:upper16:2125436	@ tmp208,
	ldr	r1, [r3, #264]	@ <variable>.prev_pic_parameter_set_id, <variable>.prev_pic_parameter_set_id
	ldr	r2, [r3, r2]	@ prephitmp.2545, <variable>.CurrSlice.pic_parameter_set_id
	cmp	r1, r2	@ <variable>.prev_pic_parameter_set_id, prephitmp.2545
	beq	.L491	@,
.L482:
	mov	r0, #1	@ ret,
.L470:
	sub	sp, fp, #24
	ldmfd	sp, {r4, r5, r6, fp, sp, pc}
.L471:
	cmn	r4, #-2147483647	@ prephitmp.2519,
	bne	.L473	@,
	movw	r0, #:lower16:2125408	@ tmp176,
	movw	r2, #:lower16:2125408	@ tmp179,
	movt	r0, #:upper16:2125408	@ tmp176,
	movt	r2, #:upper16:2125408	@ tmp179,
	ldr	r4, [r3, r0]	@ prephitmp.2519, <variable>.CurrSlice.poc
	ldr	ip, [r3, r2]	@ D.45968, <variable>.CurrSlice.poc
	cmp	ip, r4	@ D.45968, prephitmp.2519
	str	r4, [r3, #192]	@ prephitmp.2519, <variable>.PocRandomAccess
	bge	.L474	@,
	b	.L492	@
.L480:
	movw	ip, #3688	@ tmp212,
	movw	r2, #:lower16:2125436	@ tmp209,
	mla	r1, ip, r1, r3	@ tmp213, tmp212, D.46008, pHevcCtx
	movt	r2, #:upper16:2125436	@ tmp209,
	ldr	r2, [r3, r2]	@ prephitmp.2545, <variable>.CurrSlice.pic_parameter_set_id
	add	r1, r1, #2408448	@ tmp214, tmp213,
	add	ip, r1, #248	@ tmp214, tmp214,
	ldr	r1, [ip, #4]	@ <variable>.pic_parameter_set_id, <variable>.pic_parameter_set_id
	cmp	r2, r1	@ prephitmp.2545, <variable>.pic_parameter_set_id
	ldr	r1, [r3, #264]	@ <variable>.prev_pic_parameter_set_id, <variable>.prev_pic_parameter_set_id
	movne	r0, #1	@ ret,
	cmp	r1, r2	@ <variable>.prev_pic_parameter_set_id, prephitmp.2545
	bne	.L482	@,
.L491:
	movw	r2, #:lower16:2125408	@ tmp217,
	movt	r2, #:upper16:2125408	@ tmp217,
	ldr	ip, [r3, #244]	@ <variable>.prev_poc, <variable>.prev_poc
	ldr	r3, [r3, r2]	@ <variable>.CurrSlice.poc, <variable>.CurrSlice.poc
	cmp	ip, r3	@ <variable>.prev_poc, <variable>.CurrSlice.poc
	bne	.L482	@,
	b	.L470	@
.L468:
	movw	r2, #:lower16:1960196	@ tmp155,
	movt	r2, #:upper16:1960196	@ tmp155,
	ldr	ip, [r0, r2]	@ <variable>.pCurrNal, <variable>.pCurrNal
	ldr	r2, [ip, #16]	@ prephitmp.2518, <variable>.nal_unit_type
	cmp	r2, #21	@ prephitmp.2518,
	cmpne	r2, #16	@, prephitmp.2518,
	movne	r1, #0	@, flag
	moveq	r1, #1	@, flag
	cmp	r2, #18	@ prephitmp.2518,
	orreq	r1, r1, #1	@,, flag.2531, flag
	cmp	r2, #17	@ prephitmp.2518,
	orreq	r1, r1, #1	@,, flag.2532, flag.2531
	cmp	r2, #19	@ prephitmp.2518,
	orreq	r1, r1, #1	@,, flag.2533, flag.2532
	cmp	r2, #20	@ prephitmp.2518,
	orreq	r1, r1, #1	@,, tmp168, flag.2533
	cmp	r1, #0	@ tmp168,
	bne	.L469	@,
	mov	r0, #2	@ ret,
	b	.L470	@
.L488:
	mov	r0, #1	@,
	movw	r1, #:lower16:.LC1	@,
	movw	r2, #:lower16:.LANCHOR1	@,
	movt	r1, #:upper16:.LC1	@,
	movt	r2, #:upper16:.LANCHOR1	@,
	movw	r3, #8553	@,
	str	ip, [sp, #0]	@ D.45968,
	stmib	sp, {r4, r5}	@ phole stm
	bl	dprint_vfmw	@
	mov	r0, #2	@ ret,
	b	.L470	@
.L489:
	mov	r0, #1	@,
	movw	r1, #:lower16:.LC2	@,
	movw	r2, #:lower16:.LANCHOR1	@,
	movt	r1, #:upper16:.LC2	@,
	movt	r2, #:upper16:.LANCHOR1	@,
	movw	r3, #8561	@,
	str	ip, [sp, #0]	@ D.45968,
	stmib	sp, {r4, r5}	@ phole stm
	bl	dprint_vfmw	@
	mov	r0, #2	@ ret,
	b	.L470	@
.L486:
	ldr	r1, [r3, #208]	@ D.46008, <variable>.TotalSliceNum
	str	ip, [r3, #196]	@ D.45968, <variable>.PocCRA
	movw	ip, #:lower16:2125361	@ tmp207,
	cmp	r1, #0	@ D.46008,
	movt	ip, #:upper16:2125361	@ tmp207,
	strb	r2, [r3, #7]	@ <variable>.CurrSlice.dependent_slice_segment_flag, <variable>.PrevRAPIsBLA
	ldrb	r0, [r3, ip]	@ zero_extendqisi2	@ ret, <variable>.CurrSlice.first_slice_segment_in_pic_flag
	bne	.L480	@,
	b	.L493	@
.L490:
	mov	r0, #1	@,
	movw	r1, #:lower16:.LC3	@,
	movw	r2, #:lower16:.LANCHOR1	@,
	movt	r1, #:upper16:.LC3	@,
	movt	r2, #:upper16:.LANCHOR1	@,
	movw	r3, #8571	@,
	stmia	sp, {r4, ip}	@ phole stm
	str	r5, [sp, #8]	@ D.45987,
	str	r6, [sp, #12]	@ temp.2540,
	bl	dprint_vfmw	@
	mov	r0, #2	@ ret,
	b	.L470	@
	.fnend
	.size	HEVC_IsNewPic, .-HEVC_IsNewPic
	.align	2
	.global	HEVC_VpsSpsPpsCheck
	.type	HEVC_VpsSpsPpsCheck, %function
HEVC_VpsSpsPpsCheck:
	.fnstart
.LFB1643:
	@ args = 0, pretend = 0, frame = 0
	@ frame_needed = 1, uses_anonymous_args = 0
	.movsp ip
	mov	ip, sp	@,
	stmfd	sp!, {fp, ip, lr, pc}	@,
	.pad #4
	.save {fp, ip, lr}
	.setfp fp, ip, #-4
	sub	fp, ip, #4	@,,
	push	{lr}
	bl	__gnu_mcount_nc
	movw	r1, #:lower16:2125436	@ tmp141,
	movt	r1, #:upper16:2125436	@ tmp141,
	ldr	r3, [r0, #156]	@ <variable>.MaxPpsNum, <variable>.MaxPpsNum
	ldr	r2, [r0, r1]	@ D.45900, <variable>.CurrSlice.pic_parameter_set_id
	cmp	r2, r3	@ D.45900, <variable>.MaxPpsNum
	bge	.L503	@,
	movw	r3, #7704	@ tmp146,
	movw	ip, #:lower16:1960184	@ tmp144,
	mul	r1, r3, r2	@ tmp145, tmp146, D.45900
	movt	ip, #:upper16:1960184	@ tmp144,
	ldr	r3, [r0, ip]	@ <variable>.pPPS, <variable>.pPPS
	add	ip, r1, r3	@ pPPS, tmp145, <variable>.pPPS
	ldrb	r3, [r1, r3]	@ zero_extendqisi2	@ <variable>.valid, <variable>.valid
	cmp	r3, #0	@ <variable>.valid,
	beq	.L504	@,
	ldr	r2, [ip, #32]	@ D.45913, <variable>.seq_parameter_set_id
	ldr	r1, [r0, #152]	@ <variable>.MaxSpsNum, <variable>.MaxSpsNum
	cmp	r2, r1	@ D.45913, <variable>.MaxSpsNum
	bge	.L505	@,
	movw	ip, #:lower16:1960180	@ tmp152,
	movt	ip, #:upper16:1960180	@ tmp152,
	movw	r1, #36364	@ tmp154,
	ldr	r3, [r0, ip]	@ <variable>.pSPS, <variable>.pSPS
	mla	r3, r1, r2, r3	@ pSPS, tmp154, D.45913, <variable>.pSPS
	ldrb	ip, [r3, #1]	@ zero_extendqisi2	@ <variable>.valid, <variable>.valid
	cmp	ip, #0	@ <variable>.valid,
	beq	.L506	@,
	ldr	r2, [r3, #52]	@ D.45925, <variable>.video_parameter_set_id
	ldr	r3, [r0, #148]	@ <variable>.MaxVpsNum, <variable>.MaxVpsNum
	cmp	r2, r3	@ D.45925, <variable>.MaxVpsNum
	bcs	.L507	@,
	movw	r3, #23196	@ tmp163,
	movw	ip, #:lower16:1960176	@ tmp161,
	mul	r1, r3, r2	@ tmp162, tmp163, D.45925
	movt	ip, #:upper16:1960176	@ tmp161,
	ldr	r3, [r0, ip]	@ <variable>.pVPS, <variable>.pVPS
	ldrb	ip, [r1, r3]	@ zero_extendqisi2	@ <variable>.valid, <variable>.valid
	cmp	ip, #0	@ <variable>.valid,
	movne	r0, #0	@ D.45905,
	ldmnefd	sp, {fp, sp, pc}	@
	mov	r0, #1	@,
	movw	r1, #:lower16:.LC9	@,
	movt	r1, #:upper16:.LC9	@,
	bl	dprint_vfmw	@
	mvn	r0, #0	@ D.45905,
	ldmfd	sp, {fp, sp, pc}	@
.L503:
	mov	r0, #1	@,
	movw	r1, #:lower16:.LC4	@,
	movt	r1, #:upper16:.LC4	@,
	bl	dprint_vfmw	@
	mvn	r0, #0	@ D.45905,
	ldmfd	sp, {fp, sp, pc}	@
.L504:
	mov	r0, #1	@,
	movw	r1, #:lower16:.LC5	@,
	movt	r1, #:upper16:.LC5	@,
	bl	dprint_vfmw	@
	mvn	r0, #0	@ D.45905,
	ldmfd	sp, {fp, sp, pc}	@
.L505:
	mov	r0, #1	@,
	movw	r1, #:lower16:.LC6	@,
	movt	r1, #:upper16:.LC6	@,
	bl	dprint_vfmw	@
	mvn	r0, #0	@ D.45905,
	ldmfd	sp, {fp, sp, pc}	@
.L506:
	mov	r0, #1	@,
	movw	r1, #:lower16:.LC7	@,
	movt	r1, #:upper16:.LC7	@,
	bl	dprint_vfmw	@
	mvn	r0, #0	@ D.45905,
	ldmfd	sp, {fp, sp, pc}	@
.L507:
	mov	r0, #1	@,
	movw	r1, #:lower16:.LC8	@,
	movt	r1, #:upper16:.LC8	@,
	bl	dprint_vfmw	@
	mvn	r0, #0	@ D.45905,
	ldmfd	sp, {fp, sp, pc}	@
	.fnend
	.size	HEVC_VpsSpsPpsCheck, .-HEVC_VpsSpsPpsCheck
	.align	2
	.global	HEVC_CalcStreamBits
	.type	HEVC_CalcStreamBits, %function
HEVC_CalcStreamBits:
	.fnstart
.LFB1642:
	@ args = 0, pretend = 0, frame = 0
	@ frame_needed = 1, uses_anonymous_args = 0
	.movsp ip
	mov	ip, sp	@,
	stmfd	sp!, {r3, r4, r5, r6, fp, ip, lr, pc}	@,
	.pad #4
	.save {r3, r4, r5, r6, fp, ip, lr}
	.setfp fp, ip, #-4
	sub	fp, ip, #4	@,,
	push	{lr}
	bl	__gnu_mcount_nc
	movw	r3, #:lower16:1960196	@ tmp164,
	movt	r3, #:upper16:1960196	@ tmp164,
	ldr	r1, [r0, r3]	@ temp.2643, <variable>.pCurrNal
	ldrb	r3, [r1, #1]	@ zero_extendqisi2	@ temp.2644, <variable>.nal_used_segment
	cmp	r3, #0	@ temp.2644,
	moveq	ip, r3	@ code_len_byte, temp.2644
	beq	.L510	@,
	mov	r2, #1	@ i,
	cmp	r2, r3	@ i, temp.2644
	sub	r4, r3, #1	@ tmp394, temp.2644,
	ldr	ip, [r1, #48]	@ code_len_byte, <variable>.bitstream_length
	and	r5, r4, r2	@ tmp396, tmp394,
	add	r4, r1, #28	@ ivtmp.2608, temp.2643,
	bcs	.L510	@,
	cmp	r5, #0	@ tmp396,
	beq	.L511	@,
	ldr	r5, [r4, #48]	@ <variable>.bitstream_length, <variable>.bitstream_length
	mov	r2, #2	@ i,
	cmp	r2, r3	@ i, temp.2644
	add	r4, r1, #56	@ ivtmp.2608, temp.2643,
	add	ip, ip, r5	@ code_len_byte, code_len_byte, <variable>.bitstream_length
	bcs	.L510	@,
.L511:
	ldr	r6, [r4, #48]	@ <variable>.bitstream_length, <variable>.bitstream_length
	add	r2, r2, #2	@ i, i,
	ldr	r5, [r4, #76]	@ <variable>.bitstream_length, <variable>.bitstream_length
	cmp	r2, r3	@ i, temp.2644
	add	ip, ip, r6	@ code_len_byte, code_len_byte, <variable>.bitstream_length
	add	r4, r4, #56	@ ivtmp.2608, ivtmp.2608,
	add	ip, ip, r5	@ code_len_byte, code_len_byte, <variable>.bitstream_length
	bcc	.L511	@,
.L510:
	movw	r2, #:lower16:1960172	@ tmp174,
	movt	r2, #:upper16:1960172	@ tmp174,
	rsb	r5, r3, r3, asl #3	@, tmp169, temp.2644, temp.2644,
	movw	r3, #:lower16:1960196	@ tmp177,
	ldr	r4, [r0, r2]	@ <variable>.pBS, <variable>.pBS
	movt	r3, #:upper16:1960196	@ tmp177,
	add	r6, r1, r5, asl #2	@, tmp171, temp.2643, tmp169,
	ldr	r5, [r4, #24]	@ <variable>.TotalPos, <variable>.TotalPos
	and	r4, r5, #7	@ tmp176, <variable>.TotalPos,
	str	r4, [r6, #60]	@ tmp176, <variable>.bitsoffset
	ldr	r5, [r0, r3]	@ D.45845, <variable>.pCurrNal
	ldr	r1, [r0, r2]	@ <variable>.pBS, <variable>.pBS
	ldrb	r6, [r5, #1]	@ zero_extendqisi2	@ temp.2609, <variable>.nal_used_segment
	ldr	r1, [r1, #24]	@ <variable>.TotalPos, <variable>.TotalPos
	rsb	r4, r6, r6, asl #3	@, tmp181, temp.2609, temp.2609,
	cmp	r1, #0	@ <variable>.TotalPos,
	add	r6, r1, #7	@ tmp190, <variable>.TotalPos,
	add	r4, r5, r4, asl #2	@, tmp183, D.45845, tmp181,
	movlt	r1, r6	@ <variable>.TotalPos, tmp190
	ldr	r5, [r4, #52]	@ <variable>.stream_phy_addr, <variable>.stream_phy_addr
	add	r1, r5, r1, asr #3	@, tmp199, <variable>.stream_phy_addr, <variable>.TotalPos,
	rsb	r1, ip, r1	@ tmp201, code_len_byte, tmp199
	str	r1, [r4, #64]	@ tmp201, <variable>.bytespos
	ldr	r1, [r0, r3]	@ temp.2612, <variable>.pCurrNal
	ldr	r4, [r0, r2]	@ <variable>.pBS, <variable>.pBS
	ldrb	r2, [r1, #1]	@ zero_extendqisi2	@ temp.2614, <variable>.nal_used_segment
	ldr	r4, [r4, #24]	@ <variable>.TotalPos, <variable>.TotalPos
	rsb	r2, r2, r2, asl #3	@, tmp206, temp.2614, temp.2614,
	add	r2, r1, r2, asl #2	@, tmp208, temp.2612, tmp206,
	ldr	r1, [r2, #48]	@ <variable>.bitstream_length, <variable>.bitstream_length
	add	ip, ip, r1	@ tmp217, code_len_byte, <variable>.bitstream_length
	rsb	ip, r4, ip, asl #3	@, tmp223, <variable>.TotalPos, tmp217,
	str	ip, [r2, #56]	@ tmp223, <variable>.valid_bitlen
	ldr	ip, [r0, r3]	@ temp.2618, <variable>.pCurrNal
	ldrb	r1, [ip, #1]	@ zero_extendqisi2	@ temp.2620, <variable>.nal_used_segment
	rsb	r2, r1, r1, asl #3	@, tmp228, temp.2620, temp.2620,
	add	r2, ip, r2, asl #2	@, tmp230, temp.2618, tmp228,
	ldr	r1, [r2, #64]	@ <variable>.bytespos, <variable>.bytespos
	ldr	ip, [r2, #60]	@ <variable>.bitsoffset, <variable>.bitsoffset
	and	r1, r1, #3	@ tmp239, <variable>.bytespos,
	add	r1, ip, r1, asl #3	@, tmp250, <variable>.bitsoffset, tmp239,
	str	r1, [r2, #60]	@ tmp250, <variable>.bitsoffset
	ldr	r1, [r0, r3]	@ temp.2622, <variable>.pCurrNal
	ldrb	ip, [r1, #1]	@ zero_extendqisi2	@ temp.2624, <variable>.nal_used_segment
	rsb	r2, ip, ip, asl #3	@, tmp255, temp.2624, temp.2624,
	add	r2, r1, r2, asl #2	@, tmp257, temp.2622, tmp255,
	ldr	ip, [r2, #64]	@ <variable>.bytespos, <variable>.bytespos
	bic	r1, ip, #3	@ tmp267, <variable>.bytespos,
	str	r1, [r2, #64]	@ tmp267, <variable>.bytespos
	ldr	r1, [r0, r3]	@ temp.2626, <variable>.pCurrNal
	ldr	r2, [r1, #8]	@ temp.2627, <variable>.nal_segment
	sub	ip, r2, #1	@ prephitmp.2586, temp.2627,
	cmp	ip, #1	@ prephitmp.2586,
	bhi	.L528	@,
	ldrb	r4, [r1, #1]	@ zero_extendqisi2	@ <variable>.nal_used_segment, <variable>.nal_used_segment
	add	r4, r4, #1	@ tmp271, <variable>.nal_used_segment,
	cmp	r2, r4	@ temp.2627, tmp271
	bls	.L514	@,
	mov	ip, #1	@ i.2638,
	mov	r4, #0	@ tmp392,
.L515:
	rsb	r2, ip, ip, asl #3	@, tmp275, i.2638, i.2638,
	add	ip, ip, #1	@ i.2638, i.2638,
	mov	r2, r2, asl #2	@ tmp276, tmp275,
	add	r6, r2, r1	@ tmp277, tmp276, temp.2626
	str	r4, [r6, #60]	@ tmp392, <variable>.bitsoffset
	ldr	r1, [r0, r3]	@ temp.2632, <variable>.pCurrNal
	add	r6, r2, r1	@ tmp286, tmp276, temp.2632
	ldr	r5, [r6, #52]	@ <variable>.stream_phy_addr, <variable>.stream_phy_addr
	str	r5, [r6, #64]	@ <variable>.stream_phy_addr, <variable>.bytespos
	ldr	r1, [r0, r3]	@ temp.2633, <variable>.pCurrNal
	add	r1, r2, r1	@ tmp302, tmp276, temp.2633
	ldr	r6, [r1, #48]	@ <variable>.bitstream_length, <variable>.bitstream_length
	mov	r5, r6, asl #3	@ tmp312, <variable>.bitstream_length,
	str	r5, [r1, #56]	@ tmp312, <variable>.valid_bitlen
	ldr	r6, [r0, r3]	@ temp.2635, <variable>.pCurrNal
	add	r1, r2, r6	@ tmp319, tmp276, temp.2635
	ldr	r5, [r1, #64]	@ <variable>.bytespos, <variable>.bytespos
	ldr	r6, [r1, #60]	@ <variable>.bitsoffset, <variable>.bitsoffset
	and	r5, r5, #15	@ tmp328, <variable>.bytespos,
	add	r5, r6, r5, asl #3	@, tmp339, <variable>.bitsoffset, tmp328,
	str	r5, [r1, #60]	@ tmp339, <variable>.bitsoffset
	ldr	r1, [r0, r3]	@ temp.2636, <variable>.pCurrNal
	add	r2, r2, r1	@ tmp346, tmp276, temp.2636
	ldr	r1, [r2, #64]	@ <variable>.bytespos, <variable>.bytespos
	bic	r1, r1, #15	@ tmp356, <variable>.bytespos,
	str	r1, [r2, #64]	@ tmp356, <variable>.bytespos
	ldr	r1, [r0, r3]	@ temp.2626, <variable>.pCurrNal
	ldr	r2, [r1, #8]	@ D.45874, <variable>.nal_segment
	cmp	r2, ip	@ D.45874, i.2638
	bhi	.L515	@,
	sub	ip, r2, #1	@ prephitmp.2586, D.45874,
.L514:
	rsb	ip, ip, ip, asl #3	@, tmp361, prephitmp.2586, prephitmp.2586,
	ldr	r2, [r1, #12]	@ <variable>.nal_trail_zero_bit_num, <variable>.nal_trail_zero_bit_num
	movw	r3, #:lower16:1960196	@ tmp375,
	movt	r3, #:upper16:1960196	@ tmp375,
	add	r1, r1, ip, asl #2	@, tmp363, temp.2626, tmp361,
	ldr	ip, [r1, #56]	@ <variable>.valid_bitlen, <variable>.valid_bitlen
	rsb	r2, r2, ip	@ tmp374, <variable>.nal_trail_zero_bit_num, <variable>.valid_bitlen
	str	r2, [r1, #56]	@ tmp374, <variable>.valid_bitlen
	ldr	r2, [r0, r3]	@ temp.2639, <variable>.pCurrNal
	ldrb	r3, [r2, #1]	@ zero_extendqisi2	@ i.2621, <variable>.nal_used_segment
	ldr	ip, [r2, #8]	@ <variable>.nal_segment, <variable>.nal_segment
	cmp	ip, r3	@ <variable>.nal_segment, i.2621
	ldmlsfd	sp, {r3, r4, r5, r6, fp, sp, pc}	@
	movw	r1, #:lower16:2124840	@ tmp391,
	movt	r1, #:upper16:2124840	@ tmp391,
.L519:
	rsb	r4, r3, r3, asl #3	@, tmp380, i.2621, i.2621,
	ldr	r5, [r0, r1]	@ <variable>.CurrPic.stream_base_addr, <variable>.CurrPic.stream_base_addr
	add	r3, r3, #1	@ i.2621, i.2621,
	add	r4, r2, r4, asl #2	@, tmp382, temp.2639, tmp380,
	ldr	r4, [r4, #64]	@ temp.2642, <variable>.bytespos
	cmp	r4, r5	@ temp.2642, <variable>.CurrPic.stream_base_addr
	strcc	r4, [r0, r1]	@ temp.2642, <variable>.CurrPic.stream_base_addr
	ldrcc	ip, [r2, #8]	@ <variable>.nal_segment, <variable>.nal_segment
	cmp	ip, r3	@ <variable>.nal_segment, i.2621
	bhi	.L519	@,
	ldmfd	sp, {r3, r4, r5, r6, fp, sp, pc}	@
.L528:
	movw	r1, #:lower16:.LC10	@,
	mov	r0, #0	@,
	movt	r1, #:upper16:.LC10	@,
	bl	dprint_vfmw	@
	ldmfd	sp, {r3, r4, r5, r6, fp, sp, pc}	@
	.fnend
	.size	HEVC_CalcStreamBits, .-HEVC_CalcStreamBits
	.align	2
	.global	HEVC_GetMinPOC
	.type	HEVC_GetMinPOC, %function
HEVC_GetMinPOC:
	.fnstart
.LFB1640:
	@ args = 0, pretend = 0, frame = 0
	@ frame_needed = 1, uses_anonymous_args = 0
	.movsp ip
	mov	ip, sp	@,
	stmfd	sp!, {r3, r4, r5, r6, r7, r8, fp, ip, lr, pc}	@,
	.pad #4
	.save {r3, r4, r5, r6, r7, r8, fp, ip, lr}
	.setfp fp, ip, #-4
	sub	fp, ip, #4	@,,
	push	{lr}
	bl	__gnu_mcount_nc
	movw	r8, #:lower16:1960372	@ tmp143,
	movw	r7, #:lower16:1960368	@ tmp144,
	movt	r8, #:upper16:1960372	@ tmp143,
	movt	r7, #:upper16:1960368	@ tmp144,
	mov	r5, r0	@ pHevcCtx, pHevcCtx
	mvn	r3, #-2147483648	@ tmp142,
	mov	r6, r2	@ pos, pos
	mov	r0, #0	@ tmp141,
	str	r0, [r2, #0]	@ tmp141,* pos
	str	r3, [r1, #0]	@ tmp142,* poc
	mov	r4, r1	@ poc, poc
	ldr	r2, [r5, r8]	@ prephitmp.2659, <variable>.DPB.used_size
	ldr	r3, [r5, r7]	@ D.45786, <variable>.DPB.size
	cmp	r2, r3	@ prephitmp.2659, D.45786
	bhi	.L536	@,
	cmp	r2, #0	@ prephitmp.2659,
	ldmeqfd	sp, {r3, r4, r5, r6, r7, r8, fp, sp, pc}	@
.L537:
	movw	r2, #:lower16:1960392	@ ivtmp.2673,
	movt	r2, #:upper16:1960392	@ ivtmp.2673,
	movw	ip, #:lower16:1960372	@ tmp154,
	add	r2, r5, r2	@ ivtmp.2673, pHevcCtx, ivtmp.2673
	movt	ip, #:upper16:1960372	@ tmp154,
	mov	r3, #0	@ i,
.L533:
	ldr	r1, [r2, #0]	@ tmp149, <variable>.DPB.fs
	add	r2, r2, #4	@ ivtmp.2673, ivtmp.2673,
	ldr	r0, [r4, #0]	@ tmp150,* poc
	ldr	r1, [r1, #12]	@ D.45793, <variable>.poc
	cmp	r0, r1	@ tmp150, D.45793
	strgt	r1, [r4, #0]	@ D.45793,* poc
	strgt	r3, [r6, #0]	@ i,* pos
	add	r3, r3, #1	@ i, i,
	ldr	r1, [r5, ip]	@ <variable>.DPB.used_size, <variable>.DPB.used_size
	cmp	r1, r3	@ <variable>.DPB.used_size, i
	bhi	.L533	@,
	ldmfd	sp, {r3, r4, r5, r6, r7, r8, fp, sp, pc}	@
.L536:
	mov	r0, #1	@,
	movw	r1, #:lower16:.LC11	@,
	movt	r1, #:upper16:.LC11	@,
	bl	dprint_vfmw	@
	ldr	r2, [r5, r7]	@ prephitmp.2659, <variable>.DPB.size
	cmp	r2, #0	@ prephitmp.2659,
	str	r2, [r5, r8]	@ prephitmp.2659, <variable>.DPB.used_size
	bne	.L537	@,
	ldmfd	sp, {r3, r4, r5, r6, r7, r8, fp, sp, pc}	@
	.fnend
	.size	HEVC_GetMinPOC, .-HEVC_GetMinPOC
	.align	2
	.global	HEVC_RemoveApcStore
	.type	HEVC_RemoveApcStore, %function
HEVC_RemoveApcStore:
	.fnstart
.LFB1605:
	@ args = 0, pretend = 0, frame = 0
	@ frame_needed = 1, uses_anonymous_args = 0
	.movsp ip
	mov	ip, sp	@,
	stmfd	sp!, {r3, r4, r5, r6, fp, ip, lr, pc}	@,
	.pad #4
	.save {r3, r4, r5, r6, fp, ip, lr}
	.setfp fp, ip, #-4
	sub	fp, ip, #4	@,,
	push	{lr}
	bl	__gnu_mcount_nc
	movw	r4, #:lower16:490098	@ tmp137,
	movt	r4, #:upper16:490098	@ tmp137,
	mov	r5, r0	@ pHevcCtx, pHevcCtx
	add	r4, r1, r4	@ tmp137, pos, tmp137
	ldr	r2, [r0, r4, asl #2]	@ tmp139, <variable>.DPB.fs
	ldr	r3, [r2, #28]	@ D.44562, <variable>.apc_idc
	cmp	r3, #16	@ D.44562,
	ldmeqfd	sp, {r3, r4, r5, r6, fp, sp, pc}	@
	movw	r0, #:lower16:490168	@ tmp140,
	movt	r0, #:upper16:490168	@ tmp140,
	add	r6, r3, r0	@ tmp140, D.44562, tmp140
	mov	lr, #0	@ tmp142,
	movw	ip, #:lower16:490184	@ tmp146,
	movt	ip, #:upper16:490184	@ tmp146,
	str	lr, [r5, r6, asl #2]	@ tmp142, <variable>.APC.is_used
	movw	r3, #:lower16:490200	@ tmp153,
	ldr	r6, [r2, #28]	@ <variable>.apc_idc, <variable>.apc_idc
	movt	r3, #:upper16:490200	@ tmp153,
	mov	r0, #13	@,
	movw	r1, #:lower16:.LC12	@,
	add	ip, r6, ip	@ tmp146, <variable>.apc_idc, tmp146
	movt	r1, #:upper16:.LC12	@,
	str	lr, [r5, ip, asl #2]	@ tmp142, <variable>.APC.idc
	ldr	ip, [r2, #28]	@ <variable>.apc_idc, <variable>.apc_idc
	add	r3, ip, r3	@ tmp153, <variable>.apc_idc, tmp153
	str	lr, [r5, r3, asl #2]	@ tmp142, <variable>.APC.poc
	ldr	ip, [r2, #24]	@ <variable>.pmv_address_idc, <variable>.pmv_address_idc
	add	r3, ip, #520	@ tmp160, <variable>.pmv_address_idc,
	add	ip, r3, #2	@ tmp160, tmp160,
	add	r3, r5, ip, asl #2	@, tmp165, pHevcCtx, tmp160,
	str	lr, [r3, #4]	@ tmp142, <variable>.PmvStoreUsedFlag
	ldr	r3, [r2, #24]	@, <variable>.pmv_address_idc
	ldr	r2, [r2, #28]	@, <variable>.apc_idc
	bl	dprint_vfmw	@
	ldr	ip, [r5, r4, asl #2]	@ tmp175, <variable>.DPB.fs
	movw	r3, #:lower16:1960668	@ tmp177,
	movt	r3, #:upper16:1960668	@ tmp177,
	mov	r1, #16	@ tmp176,
	str	r1, [ip, #28]	@ tmp176, <variable>.apc_idc
	ldr	r0, [r5, r3]	@ <variable>.APC.used_size, <variable>.APC.used_size
	sub	r2, r0, #1	@ tmp180, <variable>.APC.used_size,
	str	r2, [r5, r3]	@ tmp180, <variable>.APC.used_size
	ldmfd	sp, {r3, r4, r5, r6, fp, sp, pc}	@
	.fnend
	.size	HEVC_RemoveApcStore, .-HEVC_RemoveApcStore
	.align	2
	.global	HEVC_RemoveUnusedApcStore
	.type	HEVC_RemoveUnusedApcStore, %function
HEVC_RemoveUnusedApcStore:
	.fnstart
.LFB1606:
	@ args = 0, pretend = 0, frame = 0
	@ frame_needed = 1, uses_anonymous_args = 0
	.movsp ip
	mov	ip, sp	@,
	stmfd	sp!, {r4, r5, r6, r7, fp, ip, lr, pc}	@,
	.pad #4
	.save {r4, r5, r6, r7, fp, ip, lr}
	.setfp fp, ip, #-4
	sub	fp, ip, #4	@,,
	push	{lr}
	bl	__gnu_mcount_nc
	movw	r7, #:lower16:1960372	@ tmp137,
	movt	r7, #:upper16:1960372	@ tmp137,
	mov	r6, r0	@ pHevcCtx, pHevcCtx
	ldr	r3, [r0, r7]	@ <variable>.DPB.used_size, <variable>.DPB.used_size
	cmp	r3, #0	@ <variable>.DPB.used_size,
	ldmeqfd	sp, {r4, r5, r6, r7, fp, sp, pc}	@
	movw	r5, #:lower16:1960392	@ ivtmp.2738,
	mov	r1, #0	@ i.669,
	movt	r5, #:upper16:1960392	@ ivtmp.2738,
	mov	r4, r1	@ i, i.669
	add	r5, r0, r5	@ ivtmp.2738, pHevcCtx, ivtmp.2738
	b	.L544	@
.L543:
	ldr	ip, [r6, r7]	@ <variable>.DPB.used_size, <variable>.DPB.used_size
	mov	r1, r4	@ i.669, i
	cmp	ip, r4	@ <variable>.DPB.used_size, i
	bls	.L547	@,
.L544:
	ldr	r2, [r5, #0]	@ tmp140, <variable>.DPB.fs
	add	r4, r4, #1	@ i, i,
	add	r5, r5, #4	@ ivtmp.2738, ivtmp.2738,
	ldrb	r0, [r2, #1]	@ zero_extendqisi2	@ <variable>.is_reference, <variable>.is_reference
	cmp	r0, #0	@ <variable>.is_reference,
	bne	.L543	@,
	mov	r0, r6	@, pHevcCtx
	bl	HEVC_RemoveApcStore	@
	ldr	ip, [r6, r7]	@ <variable>.DPB.used_size, <variable>.DPB.used_size
	mov	r1, r4	@ i.669, i
	cmp	ip, r4	@ <variable>.DPB.used_size, i
	bhi	.L544	@,
.L547:
	ldmfd	sp, {r4, r5, r6, r7, fp, sp, pc}	@
	.fnend
	.size	HEVC_RemoveUnusedApcStore, .-HEVC_RemoveUnusedApcStore
	.align	2
	.global	HEVC_RepairList
	.type	HEVC_RepairList, %function
HEVC_RepairList:
	.fnstart
.LFB1597:
	@ args = 0, pretend = 0, frame = 16
	@ frame_needed = 1, uses_anonymous_args = 0
	.movsp ip
	mov	ip, sp	@,
	stmfd	sp!, {r4, r5, r6, r7, r8, r9, sl, fp, ip, lr, pc}	@,
	.pad #4
	.save {r4, r5, r6, r7, r8, r9, sl, fp, ip, lr}
	.setfp fp, ip, #-4
	sub	fp, ip, #4	@,,
	.pad #28
	sub	sp, sp, #28	@,,
	push	{lr}
	bl	__gnu_mcount_nc
	movw	r3, #:lower16:2125420	@ tmp158,
	movt	r3, #:upper16:2125420	@ tmp158,
	mov	sl, r0	@ pHevcCtx, pHevcCtx
	ldr	r3, [r0, r3]	@ D.44176, <variable>.CurrSlice.slice_type
	cmp	r3, #1	@ D.44176,
	beq	.L551	@,
	cmp	r3, #2	@ D.44176,
	beq	.L552	@,
	cmp	r3, #0	@ D.44176,
	moveq	ip, #2	@,
	streq	ip, [fp, #-48]	@, %sfp
	bne	.L581	@,
.L554:
	movw	r8, #:lower16:2125520	@ ivtmp.2795,
	movw	r9, #:lower16:1960200	@ ivtmp.2798,
	movt	r8, #:upper16:2125520	@ ivtmp.2795,
	movt	r9, #:upper16:1960200	@ ivtmp.2798,
	mov	r4, #0	@ pRepairPic.2806,
	movw	ip, #:lower16:1960188	@ tmp211,
	add	r8, sl, r8	@ ivtmp.2795, pHevcCtx, ivtmp.2795
	add	r9, sl, r9	@ ivtmp.2798, pHevcCtx, ivtmp.2798
	movt	ip, #:upper16:1960188	@ tmp211,
	mov	r7, r4	@ i_list, pRepairPic.2806
	movw	r1, #:lower16:2124852	@,
	movt	r1, #:upper16:2124852	@,
	str	r1, [fp, #-60]	@, %sfp
.L568:
	ldr	r2, [r8, #0]	@ tmp205, <variable>.CurrSlice.listXsize
	cmp	r2, #0	@ tmp205,
	beq	.L555	@,
	ldr	r3, [r9, #0]	@ pRepairPic.2807, <variable>.pListX
	cmp	r3, #0	@ pRepairPic.2807,
	movne	r6, r3	@ pRepairPic, pRepairPic.2807
	movne	r0, #0	@ found,
	bne	.L557	@,
	add	r5, r7, r7, asl #4	@, tmp167, i_list, i_list,
	movw	r6, #:lower16:1960200	@ tmp169,
	tst	r2, #1	@ tmp205,
	movt	r6, #:upper16:1960200	@ tmp169,
	mov	r5, r5, asl #2	@ tmp168, tmp167,
	mov	r1, r3	@ i, pRepairPic.2807
	add	r0, r5, r6	@ tmp169, tmp168, tmp169
	add	r0, sl, r0	@ ivtmp.2792, pHevcCtx, tmp169
	bne	.L558	@,
	ldr	r6, [r0, #4]!	@ pRepairPic, <variable>.pListX
	mov	r1, #1	@ i,
	cmp	r6, #0	@ pRepairPic,
	beq	.L558	@,
	b	.L578	@
.L560:
	ldr	r6, [r0, #4]!	@ pRepairPic, <variable>.pListX
	cmp	r6, #0	@ pRepairPic,
	bne	.L578	@,
	ldr	r6, [r0, #4]!	@ pRepairPic, <variable>.pListX
	add	r1, r1, #1	@ i, i,
	cmp	r6, #0	@ pRepairPic,
	bne	.L578	@,
.L558:
	add	r1, r1, #1	@ i, i,
	cmp	r2, r1	@ tmp205, i
	bhi	.L560	@,
	mov	r6, r4	@ pRepairPic, pRepairPic.2806
	mov	r1, #1	@ prephitmp.2758,
	mov	r0, #255	@ found,
.L559:
	cmp	r6, #0	@ pRepairPic,
	orreq	r1, r1, #1	@,, tmp175, prephitmp.2758
	cmp	r1, #0	@ tmp175,
	beq	.L561	@,
	ldr	r1, [sl, ip]	@ <variable>.pstExtraData, <variable>.pstExtraData
	ldr	r1, [r1, #12]	@ <variable>.s32DecOrderOutput, <variable>.s32DecOrderOutput
	cmp	r1, #2	@ <variable>.s32DecOrderOutput,
	bne	.L562	@,
	ldr	r6, [fp, #-60]	@, %sfp
	ldr	r4, [sl, r6]	@ <variable>.CurrPic.frame_store, <variable>.CurrPic.frame_store
	add	r6, r4, #36	@ pRepairPic, <variable>.CurrPic.frame_store,
.L561:
	add	r1, r7, r7, asl #4	@, tmp186, i_list, i_list,
	movw	r5, #:lower16:1960204	@ tmp188,
	movt	r5, #:upper16:1960204	@ tmp188,
	sxtb	r0, r0	@, found
	mov	r1, r1, asl #2	@ tmp187, tmp186,
	str	r0, [fp, #-52]	@, %sfp
	add	r5, r1, r5	@ tmp188, tmp187, tmp188
	mov	r4, #0	@ i.2802,
	add	r5, sl, r5	@ ivtmp.2780, pHevcCtx, tmp188
	str	ip, [fp, #-56]	@ tmp211, %sfp
	b	.L565	@
.L563:
	add	r4, r4, #1	@ i.2802, i.2802,
	add	r5, r5, #4	@ ivtmp.2780, ivtmp.2780,
	cmp	r2, r4	@ tmp205, i.2802
	bls	.L579	@,
.L582:
	ldr	r3, [r5, #-4]	@ pRepairPic.2807, <variable>.pListX
.L565:
	cmp	r3, #0	@ pRepairPic.2807,
	bne	.L563	@,
	ldr	ip, [fp, #-52]	@, %sfp
	mov	r3, r7	@, i_list
	ldr	r2, .L583	@,
	mov	r0, #1	@,
	movw	r1, #:lower16:.LC15	@,
	movt	r1, #:upper16:.LC15	@,
	str	r4, [sp, #0]	@ i.2802,
	add	r4, r4, #1	@ i.2802, i.2802,
	str	ip, [sp, #4]	@,
	bl	dprint_vfmw	@
	ldr	r2, [r8, #0]	@ tmp205, <variable>.CurrSlice.listXsize
	str	r6, [r5, #-4]	@ pRepairPic, <variable>.pListX
	add	r5, r5, #4	@ ivtmp.2780, ivtmp.2780,
	cmp	r2, r4	@ tmp205, i.2802
	bhi	.L582	@,
.L579:
	ldr	r2, [fp, #-48]	@, %sfp
	add	r7, r7, #1	@ i_list, i_list,
	ldr	ip, [fp, #-56]	@ tmp211, %sfp
	add	r8, r8, #4	@ ivtmp.2795, ivtmp.2795,
	cmp	r7, r2	@ i_list,
	add	r9, r9, #68	@ ivtmp.2798, ivtmp.2798,
	bcc	.L567	@,
.L552:
	mov	r0, #0	@ D.44178,
.L553:
	sub	sp, fp, #40
	ldmfd	sp, {r4, r5, r6, r7, r8, r9, sl, fp, sp, pc}
.L555:
	ldr	r3, [sl, ip]	@ <variable>.pstExtraData, <variable>.pstExtraData
	add	r7, r7, #1	@ i_list, i_list,
	ldr	r3, [r3, #12]	@ <variable>.s32DecOrderOutput, <variable>.s32DecOrderOutput
	cmp	r3, #2	@ <variable>.s32DecOrderOutput,
	ldreq	r1, [fp, #-60]	@, %sfp
	moveq	r2, #1	@,
	streq	r2, [r8, #0]	@, <variable>.CurrSlice.listXsize
	movne	r6, r4	@ pRepairPic, pRepairPic.2806
	moveq	r6, r4	@ pRepairPic, pRepairPic.2806
	add	r8, r8, #4	@ ivtmp.2795, ivtmp.2795,
	ldreq	r3, [sl, r1]	@ <variable>.CurrPic.frame_store, <variable>.CurrPic.frame_store
	addeq	r3, r3, #36	@ tmp201, <variable>.CurrPic.frame_store,
	streq	r3, [r9, #0]	@ tmp201, <variable>.pListX
	add	r9, r9, #68	@ ivtmp.2798, ivtmp.2798,
	ldr	r2, [fp, #-48]	@, %sfp
	cmp	r7, r2	@ i_list,
	bcs	.L552	@,
.L567:
	mov	r4, r6	@ pRepairPic.2806, pRepairPic
	b	.L568	@
.L578:
	uxtb	r0, r1	@ found, i
.L557:
	cmp	r0, #255	@ found,
	movne	r1, #0	@, prephitmp.2758
	moveq	r1, #1	@, prephitmp.2758
	b	.L559	@
.L581:
	mov	r0, #1	@,
	movw	r1, #:lower16:.LC13	@,
	ldr	r2, .L583	@,
	movt	r1, #:upper16:.LC13	@,
	bl	dprint_vfmw	@
	mvn	r0, #0	@ D.44178,
	b	.L553	@
.L551:
	str	r3, [fp, #-48]	@ D.44176, %sfp
	b	.L554	@
.L562:
	mov	r3, r7	@, i_list
	mov	r0, #1	@,
	movw	r1, #:lower16:.LC14	@,
	ldr	r2, .L583	@,
	movt	r1, #:upper16:.LC14	@,
	bl	dprint_vfmw	@
	mvn	r0, #0	@ D.44178,
	b	.L553	@
.L584:
	.align	2
.L583:
	.word	.LANCHOR1+16
	.fnend
	.size	HEVC_RepairList, .-HEVC_RepairList
	.align	2
	.global	HEVC_CheckListX
	.type	HEVC_CheckListX, %function
HEVC_CheckListX:
	.fnstart
.LFB1589:
	@ args = 0, pretend = 0, frame = 0
	@ frame_needed = 1, uses_anonymous_args = 0
	.movsp ip
	mov	ip, sp	@,
	stmfd	sp!, {r4, r5, fp, ip, lr, pc}	@,
	.pad #4
	.save {r4, r5, fp, ip, lr}
	.setfp fp, ip, #-4
	sub	fp, ip, #4	@,,
	push	{lr}
	bl	__gnu_mcount_nc
	movw	r2, #:lower16:2125363	@ tmp147,
	movt	r2, #:upper16:2125363	@ tmp147,
	ldrb	r1, [r0, r2]	@ zero_extendqisi2	@ <variable>.CurrSlice.dependent_slice_segment_flag, <variable>.CurrSlice.dependent_slice_segment_flag
	cmp	r1, #0	@ <variable>.CurrSlice.dependent_slice_segment_flag,
	movweq	r1, #:lower16:2125360	@ pSlice,
	movwne	r1, #:lower16:2129048	@ pSlice,
	movteq	r1, #:upper16:2125360	@ pSlice,
	movtne	r1, #:upper16:2129048	@ pSlice,
	add	r3, r0, r1	@ pSlice, pHevcCtx, pSlice
	ldr	r4, [r3, #160]	@ list0size, <variable>.listXsize
	ldr	r5, [r3, #164]	@ list1size, <variable>.listXsize
	cmp	r4, #16	@ list0size,
	bhi	.L628	@,
	cmp	r5, #16	@ list1size,
	bhi	.L590	@,
	cmp	r4, #0	@ list0size,
	beq	.L591	@,
	movw	ip, #:lower16:1960200	@ tmp152,
	movt	ip, #:upper16:1960200	@ tmp152,
	ldr	r2, [r0, ip]	@ temp.2845, <variable>.pListX
	cmp	r2, #0	@ temp.2845,
	beq	.L593	@,
	ldr	r2, [r2, #32]	@ <variable>.frame_store, <variable>.frame_store
	cmp	r2, #0	@ <variable>.frame_store,
	beq	.L595	@,
	tst	r4, #1	@ list0size,
	movw	r3, #:lower16:1960204	@ ivtmp.2839,
	movt	r3, #:upper16:1960204	@ ivtmp.2839,
	mov	r2, #0	@ i,
	add	r3, r0, r3	@ ivtmp.2839, pHevcCtx, ivtmp.2839
	bne	.L597	@,
	ldr	r1, [r3, #0]	@ D.43555, <variable>.pListX
	mov	r2, #1	@ i,
	cmp	r1, #0	@ D.43555,
	beq	.L593	@,
	ldr	r1, [r1, #32]	@ <variable>.frame_store, <variable>.frame_store
	add	r3, r3, #4	@ ivtmp.2839, ivtmp.2839,
	cmp	r1, #0	@ <variable>.frame_store,
	bne	.L597	@,
.L595:
	mov	r0, #0	@,
	movw	r1, #:lower16:.LC19	@,
	movt	r1, #:upper16:.LC19	@,
	bl	dprint_vfmw	@
	mvn	r0, #0	@ D.43550,
	ldmfd	sp, {r4, r5, fp, sp, pc}	@
.L598:
	ldr	r1, [r3, #0]	@ D.43555, <variable>.pListX
	cmp	r1, #0	@ D.43555,
	beq	.L593	@,
	ldr	r1, [r1, #32]	@ <variable>.frame_store, <variable>.frame_store
	cmp	r1, #0	@ <variable>.frame_store,
	beq	.L595	@,
	ldr	r1, [r3, #4]	@ D.43555, <variable>.pListX
	add	r2, r2, #1	@ i, i,
	add	r3, ip, #4	@ ivtmp.2839, tmp175,
	cmp	r1, #0	@ D.43555,
	beq	.L593	@,
	ldr	ip, [r1, #32]	@ <variable>.frame_store, <variable>.frame_store
	cmp	ip, #0	@ <variable>.frame_store,
	beq	.L595	@,
.L597:
	add	r2, r2, #1	@ i, i,
	add	ip, r3, #4	@ tmp175, ivtmp.2839,
	cmp	r4, r2	@ list0size, i
	bhi	.L598	@,
.L591:
	cmp	r5, #0	@ list1size,
	beq	.L599	@,
	movw	ip, #:lower16:1960268	@ tmp159,
	movt	ip, #:upper16:1960268	@ tmp159,
	ldr	r2, [r0, ip]	@ temp.2843, <variable>.pListX
	cmp	r2, #0	@ temp.2843,
	beq	.L601	@,
	ldr	r2, [r2, #32]	@ <variable>.frame_store, <variable>.frame_store
	cmp	r2, #0	@ <variable>.frame_store,
	beq	.L603	@,
	tst	r5, #1	@ list1size,
	movw	r3, #:lower16:1960272	@ ivtmp.2834,
	movt	r3, #:upper16:1960272	@ ivtmp.2834,
	mov	r2, #0	@ i.2842,
	add	r3, r0, r3	@ ivtmp.2834, pHevcCtx, ivtmp.2834
	bne	.L605	@,
	ldr	r1, [r3, #0]	@ D.43563, <variable>.pListX
	mov	r2, #1	@ i.2842,
	cmp	r1, #0	@ D.43563,
	beq	.L601	@,
	ldr	r0, [r1, #32]	@ <variable>.frame_store, <variable>.frame_store
	add	r3, r3, #4	@ ivtmp.2834, ivtmp.2834,
	cmp	r0, #0	@ <variable>.frame_store,
	bne	.L605	@,
.L603:
	mov	r0, #0	@,
	movw	r1, #:lower16:.LC21	@,
	movt	r1, #:upper16:.LC21	@,
	bl	dprint_vfmw	@
	mvn	r0, #0	@ D.43550,
	ldmfd	sp, {r4, r5, fp, sp, pc}	@
.L606:
	ldr	r1, [r3, #0]	@ D.43563, <variable>.pListX
	cmp	r1, #0	@ D.43563,
	beq	.L601	@,
	ldr	r1, [r1, #32]	@ <variable>.frame_store, <variable>.frame_store
	cmp	r1, #0	@ <variable>.frame_store,
	beq	.L603	@,
	ldr	r1, [r3, #4]	@ D.43563, <variable>.pListX
	add	r2, r2, #1	@ i.2842, i.2842,
	add	r3, r0, #4	@ ivtmp.2834, tmp169,
	cmp	r1, #0	@ D.43563,
	beq	.L601	@,
	ldr	ip, [r1, #32]	@ <variable>.frame_store, <variable>.frame_store
	cmp	ip, #0	@ <variable>.frame_store,
	beq	.L603	@,
.L605:
	add	r2, r2, #1	@ i.2842, i.2842,
	add	r0, r3, #4	@ tmp169, ivtmp.2834,
	cmp	r5, r2	@ list1size, i.2842
	bhi	.L606	@,
.L599:
	mov	r0, #0	@ D.43550,
	ldmfd	sp, {r4, r5, fp, sp, pc}	@
.L593:
	mov	r0, #0	@,
	movw	r1, #:lower16:.LC18	@,
	movt	r1, #:upper16:.LC18	@,
	bl	dprint_vfmw	@
	mvn	r0, #0	@ D.43550,
	ldmfd	sp, {r4, r5, fp, sp, pc}	@
.L601:
	mov	r0, #0	@,
	movw	r1, #:lower16:.LC20	@,
	movt	r1, #:upper16:.LC20	@,
	bl	dprint_vfmw	@
	mvn	r0, #0	@ D.43550,
	ldmfd	sp, {r4, r5, fp, sp, pc}	@
.L628:
	mov	r2, r4	@, list0size
	mov	r0, #0	@,
	movw	r1, #:lower16:.LC16	@,
	mov	r3, #17	@,
	movt	r1, #:upper16:.LC16	@,
	bl	dprint_vfmw	@
	mvn	r0, #0	@ D.43550,
	ldmfd	sp, {r4, r5, fp, sp, pc}	@
.L590:
	mov	r2, r5	@, list1size
	mov	r0, #0	@,
	movw	r1, #:lower16:.LC17	@,
	mov	r3, #17	@,
	movt	r1, #:upper16:.LC17	@,
	bl	dprint_vfmw	@
	mvn	r0, #0	@ D.43550,
	ldmfd	sp, {r4, r5, fp, sp, pc}	@
	.fnend
	.size	HEVC_CheckListX, .-HEVC_CheckListX
	.align	2
	.global	HEVC_CtbTsAddrToRsAddr
	.type	HEVC_CtbTsAddrToRsAddr, %function
HEVC_CtbTsAddrToRsAddr:
	.fnstart
.LFB1586:
	@ args = 0, pretend = 0, frame = 544
	@ frame_needed = 1, uses_anonymous_args = 0
	.movsp ip
	mov	ip, sp	@,
	stmfd	sp!, {r4, r5, r6, r7, r8, r9, sl, fp, ip, lr, pc}	@,
	.pad #4
	.save {r4, r5, r6, r7, r8, r9, sl, fp, ip, lr}
	.setfp fp, ip, #-4
	sub	fp, ip, #4	@,,
	.pad #548
	sub	sp, sp, #548	@,,
	push	{lr}
	bl	__gnu_mcount_nc
	movw	r2, #:lower16:2117117	@ tmp164,
	movt	r2, #:upper16:2117117	@ tmp164,
	ldrb	r3, [r0, r2]	@ zero_extendqisi2	@ <variable>.CurrPPS.tiles_enabled_flag, <variable>.CurrPPS.tiles_enabled_flag
	cmp	r3, #0	@ <variable>.CurrPPS.tiles_enabled_flag,
	moveq	r0, r1	@ CtbAddrRs, CtbAddrTs
	beq	.L631	@,
	movw	r2, #:lower16:2044448	@ tmp166,
	movt	r2, #:upper16:2044448	@ tmp166,
	movw	lr, #:lower16:2117176	@ tmp168,
	movt	lr, #:upper16:2117176	@ tmp168,
	ldr	r3, [r0, r2]	@, <variable>.CurrSPS.pic_width_in_luma_samples
	movw	ip, #:lower16:2117172	@ tmp170,
	ldr	r8, [r0, lr]	@ <variable>.CurrPPS.num_tile_rows, <variable>.CurrPPS.num_tile_rows
	movt	ip, #:upper16:2117172	@ tmp170,
	movw	lr, #:lower16:2044524	@ tmp167,
	movt	lr, #:upper16:2044524	@ tmp167,
	ldr	r6, [r0, ip]	@ <variable>.CurrPPS.num_tile_columns, <variable>.CurrPPS.num_tile_columns
	subs	r8, r8, #1	@ D.43240, <variable>.CurrPPS.num_tile_rows,
	str	r3, [fp, #-584]	@, %sfp
	ldr	ip, [r0, lr]	@, <variable>.CurrSPS.log2_ctb_sizeY
	sub	r6, r6, #1	@ D.43242, <variable>.CurrPPS.num_tile_columns,
	str	ip, [fp, #-588]	@, %sfp
	bmi	.L632	@,
	movw	r5, #:lower16:2117964	@ ivtmp.2891,
	movt	r5, #:upper16:2117964	@ ivtmp.2891,
	add	r2, r0, r5	@ ivtmp.2891, pHevcCtx, ivtmp.2891
	sub	r3, fp, #568	@ ivtmp.2895,,
	cmp	r8, #1	@ D.43240,
	and	r5, r8, #1	@ tmp229, D.43240,
	ldr	r4, [r2], #4	@ tmp174, <variable>.CurrPPS.row_bd
	add	ip, r3, #4	@ ivtmp.2895, ivtmp.2895,
	mov	lr, #1	@ idx,
	sub	r4, r4, #1	@ tmp175, tmp174,
	str	r4, [r3, #12]	@ tmp175, pTileInfo.row_height_minus1
	blt	.L632	@,
	cmp	r5, #0	@ tmp229,
	beq	.L633	@,
	ldr	r3, [r2], #4	@ tmp264, <variable>.CurrPPS.row_bd
	mov	lr, #2	@ idx,
	cmp	r8, lr	@ D.43240, idx
	sub	r3, r3, #1	@ tmp265, tmp264,
	str	r3, [ip, #12]	@ tmp265, pTileInfo.row_height_minus1
	add	ip, ip, #4	@ ivtmp.2895, ivtmp.2895,
	blt	.L632	@,
.L633:
	mov	r3, r2	@ tmp231, ivtmp.2891
	add	lr, lr, #2	@ idx, idx,
	ldr	r5, [r3], #4	@ tmp236, <variable>.CurrPPS.row_bd
	add	r4, ip, #4	@ tmp232, ivtmp.2895,
	cmp	r8, lr	@ D.43240, idx
	sub	r5, r5, #1	@ tmp237, tmp236,
	str	r5, [ip, #12]	@ tmp237, pTileInfo.row_height_minus1
	ldr	r5, [r2, #4]	@ tmp241, <variable>.CurrPPS.row_bd
	add	ip, r4, #4	@ ivtmp.2895, tmp232,
	add	r2, r3, #4	@ ivtmp.2891, tmp231,
	sub	r3, r5, #1	@ tmp242, tmp241,
	str	r3, [r4, #12]	@ tmp242, pTileInfo.row_height_minus1
	bge	.L633	@,
.L632:
	cmp	r6, #0	@ D.43242,
	blt	.L634	@,
	movw	r2, #:lower16:2117708	@ ivtmp.2884,
	movt	r2, #:upper16:2117708	@ ivtmp.2884,
	add	r2, r0, r2	@ ivtmp.2884, pHevcCtx, ivtmp.2884
	sub	r3, fp, #568	@ ivtmp.2888,,
	cmp	r6, #1	@ D.43242,
	and	r4, r6, #1	@ tmp224, D.43242,
	ldr	lr, [r2], #4	@ tmp178, <variable>.CurrPPS.column_bd
	add	r0, r3, #4	@ ivtmp.2888, ivtmp.2888,
	mov	ip, #1	@ idx.2897,
	sub	lr, lr, #1	@ tmp179, tmp178,
	str	lr, [r3, #268]	@ tmp179, pTileInfo.column_width_minus1
	blt	.L634	@,
	cmp	r4, #0	@ tmp224,
	beq	.L635	@,
	ldr	lr, [r2], #4	@ tmp262, <variable>.CurrPPS.column_bd
	mov	ip, #2	@ idx.2897,
	cmp	r6, ip	@ D.43242, idx.2897
	sub	r3, lr, #1	@ tmp263, tmp262,
	str	r3, [r0, #268]	@ tmp263, pTileInfo.column_width_minus1
	add	r0, r0, #4	@ ivtmp.2888, ivtmp.2888,
	blt	.L634	@,
.L635:
	mov	r3, r2	@ tmp226, ivtmp.2884
	add	ip, ip, #2	@ idx.2897, idx.2897,
	ldr	r4, [r3], #4	@ tmp246, <variable>.CurrPPS.column_bd
	add	lr, r0, #4	@ tmp227, ivtmp.2888,
	cmp	r6, ip	@ D.43242, idx.2897
	sub	r4, r4, #1	@ tmp247, tmp246,
	str	r4, [r0, #268]	@ tmp247, pTileInfo.column_width_minus1
	ldr	r4, [r2, #4]	@ tmp251, <variable>.CurrPPS.column_bd
	add	r0, lr, #4	@ ivtmp.2888, tmp227,
	add	r2, r3, #4	@ ivtmp.2884, tmp226,
	sub	r3, r4, #1	@ tmp252, tmp251,
	str	r3, [lr, #268]	@ tmp252, pTileInfo.column_width_minus1
	bge	.L635	@,
.L634:
	cmp	r8, #0	@ D.43240,
	blt	.L636	@,
	ldr	sl, [fp, #-300]	@ pTileInfo.column_width_minus1, pTileInfo.column_width_minus1
	mov	r0, #0	@,
	sub	r9, fp, #568	@ ivtmp.2876,,
	str	r8, [fp, #-580]	@ D.43240, %sfp
	add	sl, sl, #1	@ TileWidthInCtb.2902, pTileInfo.column_width_minus1,
	mov	r3, r0	@ tile_y,
	mov	r7, r0	@ NextTileCtbAddrInTS.2901, tile_y
	mov	r2, r0	@ TileCtbAddrInTS, NextTileCtbAddrInTS.2901
	mov	lr, r0	@ TileHeightInCtb, TileCtbAddrInTS
	mov	r4, r0	@ TileWidthInCtb, TileHeightInCtb
	mov	r8, r0	@ tile_y, tile_y
	str	r0, [fp, #-576]	@, %sfp
.L637:
	cmp	r6, #0	@ D.43242,
	movlt	r3, r7	@ NextTileCtbAddrInTS, NextTileCtbAddrInTS.2901
	movlt	r5, #0	@ AbsWidthInCtb,
	blt	.L643	@,
	ldr	r5, [r9, #12]	@ tmp184, pTileInfo.row_height_minus1
	add	lr, r5, #1	@ TileHeightInCtb, tmp184,
	mla	r3, sl, lr, r7	@ NextTileCtbAddrInTS, TileWidthInCtb.2902, TileHeightInCtb, NextTileCtbAddrInTS.2901
	cmp	r1, r3	@ CtbAddrTs, NextTileCtbAddrInTS
	blt	.L644	@,
	tst	r6, #1	@ D.43242,
	mov	r5, #0	@ AbsWidthInCtb,
	sub	r2, fp, #568	@ ivtmp.2896,,
	mov	r4, sl	@ TileWidthInCtb, TileWidthInCtb.2902
	mov	r0, r5	@ tile_x, AbsWidthInCtb
	beq	.L645	@,
	mov	r0, #1	@ tile_x,
	cmp	r6, r0	@ D.43242, tile_x
	mov	r5, sl	@ AbsWidthInCtb, TileWidthInCtb.2902
	blt	.L667	@,
	ldr	r4, [fp, #-296]	@ tmp259, pTileInfo.column_width_minus1
	sub	ip, fp, #568	@,,
	add	r2, ip, #4	@ ivtmp.2896,,
	add	r4, r4, r0	@ TileWidthInCtb, tmp259,
	mla	ip, r4, lr, r3	@ NextTileCtbAddrInTS.2898, TileWidthInCtb, TileHeightInCtb, NextTileCtbAddrInTS
	cmp	ip, r1	@ NextTileCtbAddrInTS.2898, CtbAddrTs
	bgt	.L665	@,
	mov	r7, r3	@ NextTileCtbAddrInTS.2901, NextTileCtbAddrInTS
	mov	r3, ip	@ NextTileCtbAddrInTS, NextTileCtbAddrInTS.2898
	b	.L645	@
.L640:
	ldr	r7, [r2, #272]	@ tmp182, pTileInfo.column_width_minus1
	add	r2, ip, #4	@ ivtmp.2896, tmp221,
	add	r4, r7, #1	@ TileWidthInCtb, tmp182,
	mla	r7, r4, lr, r3	@ NextTileCtbAddrInTS.2898, TileWidthInCtb, TileHeightInCtb, NextTileCtbAddrInTS
	cmp	r7, r1	@ NextTileCtbAddrInTS.2898, CtbAddrTs
	bgt	.L665	@,
	ldr	ip, [ip, #272]	@ tmp255, pTileInfo.column_width_minus1
	add	r5, r5, r4	@ AbsWidthInCtb, AbsWidthInCtb, TileWidthInCtb
	mov	r3, r7	@ NextTileCtbAddrInTS, NextTileCtbAddrInTS.2898
	add	r4, ip, #1	@ TileWidthInCtb, tmp255,
	mla	ip, r4, lr, r3	@ NextTileCtbAddrInTS.2898, TileWidthInCtb, TileHeightInCtb, NextTileCtbAddrInTS
	cmp	ip, r1	@ NextTileCtbAddrInTS.2898, CtbAddrTs
	bgt	.L665	@,
	mov	r3, ip	@ NextTileCtbAddrInTS, NextTileCtbAddrInTS.2898
.L645:
	add	r0, r0, #1	@ tmp222, tile_x,
	add	r5, r5, r4	@ AbsWidthInCtb, AbsWidthInCtb, TileWidthInCtb
	cmp	r6, r0	@ D.43242, tmp222
	add	ip, r2, #4	@ tmp221, ivtmp.2896,
	add	r0, r0, #1	@ tile_x, tmp222,
	bge	.L640	@,
.L667:
	mov	r2, r7	@ TileCtbAddrInTS, NextTileCtbAddrInTS.2901
.L643:
	cmp	r3, r1	@ NextTileCtbAddrInTS, CtbAddrTs
	bgt	.L641	@,
	ldr	ip, [fp, #-576]	@, %sfp
	add	r8, r8, #1	@ tile_y, tile_y,
	add	r9, r9, #4	@ ivtmp.2876, ivtmp.2876,
	add	r0, ip, lr	@,, TileHeightInCtb
	ldr	ip, [fp, #-580]	@, %sfp
	str	r0, [fp, #-576]	@, %sfp
	cmp	ip, r8	@, tile_y
	blt	.L641	@,
	mov	r7, r3	@ NextTileCtbAddrInTS.2901, NextTileCtbAddrInTS
	b	.L637	@
.L644:
	mov	r2, r7	@ TileCtbAddrInTS, NextTileCtbAddrInTS.2901
	mov	r5, #0	@ AbsWidthInCtb,
.L639:
	mov	r4, sl	@ TileWidthInCtb, TileWidthInCtb.2902
.L641:
	cmp	r4, #0	@ TileWidthInCtb,
	beq	.L636	@,
	rsb	r7, r2, r1	@ D.43267, TileCtbAddrInTS, CtbAddrTs
	ldr	lr, [fp, #-588]	@, %sfp
	mov	r1, r4	@, TileWidthInCtb
	mov	r6, #1	@ tmp187,
	mov	r0, r7	@, D.43267
	mov	r6, r6, asl lr	@ ctb_size_y, tmp187,
	bl	__aeabi_idivmod	@
	mov	r0, r7	@, D.43267
	add	r5, r1, r5	@ tmp194,, AbsWidthInCtb
	mov	r1, r4	@, TileWidthInCtb
	bl	__aeabi_idiv	@
	ldr	r2, [fp, #-576]	@, %sfp
	mov	r1, r6	@, ctb_size_y
	add	r4, r0, r2	@ tmp199,,
	ldr	r0, [fp, #-584]	@, %sfp
	bl	__aeabi_idivmod	@
	ldr	r0, [fp, #-584]	@, %sfp
	subs	r7, r1, #0	@ tmp207,,
	movne	r7, #1	@ tmp207
	mov	r1, r6	@, ctb_size_y
	bl	__aeabi_idiv	@
	add	r1, r7, r0	@ tmp212, tmp207,
	mla	r0, r1, r4, r5	@ CtbAddrRs, tmp212, tmp199, tmp194
.L631:
	sub	sp, fp, #40
	ldmfd	sp, {r4, r5, r6, r7, r8, r9, sl, fp, sp, pc}
.L665:
	mov	r2, r3	@ TileCtbAddrInTS, NextTileCtbAddrInTS
	mov	sl, r4	@ TileWidthInCtb.2902, TileWidthInCtb
	b	.L639	@
.L636:
	mov	r0, #1	@,
	movw	r1, #:lower16:.LC22	@,
	movt	r1, #:upper16:.LC22	@,
	bl	dprint_vfmw	@
	mvn	r0, #0	@ CtbAddrRs,
	b	.L631	@
	.fnend
	.size	HEVC_CtbTsAddrToRsAddr, .-HEVC_CtbTsAddrToRsAddr
	.align	2
	.global	HEVC_GetUnRefPicWithMinPoc
	.type	HEVC_GetUnRefPicWithMinPoc, %function
HEVC_GetUnRefPicWithMinPoc:
	.fnstart
.LFB1572:
	@ args = 0, pretend = 0, frame = 0
	@ frame_needed = 1, uses_anonymous_args = 0
	.movsp ip
	mov	ip, sp	@,
	stmfd	sp!, {r4, r5, fp, ip, lr, pc}	@,
	.pad #4
	.save {r4, r5, fp, ip, lr}
	.setfp fp, ip, #-4
	sub	fp, ip, #4	@,,
	.pad #8
	sub	sp, sp, #8	@,,
	push	{lr}
	bl	__gnu_mcount_nc
	movw	r2, #:lower16:1960372	@ tmp145,
	movt	r2, #:upper16:1960372	@ tmp145,
	mvn	r4, #0	@ tmp144,
	str	r4, [r1, #0]	@ tmp144,* pos
	ldr	r3, [r0, r2]	@ D.41571, <variable>.DPB.used_size
	cmp	r3, #16	@ D.41571,
	bhi	.L677	@,
	cmp	r3, #0	@ D.41571,
	beq	.L679	@,
	movw	lr, #:lower16:1960392	@ ivtmp.2933,
	movt	lr, #:upper16:1960392	@ ivtmp.2933,
	add	lr, r0, lr	@ ivtmp.2933, pHevcCtx, ivtmp.2933
	mvn	r4, #-2147483648	@ poc.2937,
	mov	r3, #0	@ i,
.L684:
	ldr	r5, [lr, #0]	@ D.41577, <variable>.DPB.fs
	ldr	ip, [r5, #12]	@ poc, <variable>.poc
	cmp	ip, r4	@ poc, poc.2937
	bge	.L681	@,
	ldr	r5, [r5, #0]	@ tmp152,* D.41577
	bic	r5, r5, #-16777216	@ tmp150, tmp152,
	bic	r5, r5, #255	@ tmp150, tmp150,
	cmp	r5, #0	@ tmp150,
	streq	r3, [r1, #0]	@ i,* pos
	beq	.L682	@,
.L681:
	mov	ip, r4	@ poc, poc.2937
.L682:
	ldr	r5, [r0, r2]	@ <variable>.DPB.used_size, <variable>.DPB.used_size
	add	r3, r3, #1	@ i, i,
	add	lr, lr, #4	@ ivtmp.2933, ivtmp.2933,
	mov	r4, ip	@ poc.2937, poc
	cmp	r5, r3	@ <variable>.DPB.used_size, i
	bhi	.L684	@,
	ldr	r3, [r1, #0]	@ D.41586,* pos
	cmn	r3, #1	@ D.41586,
	beq	.L679	@,
	mov	r0, #1	@,
	movw	r1, #:lower16:.LC25	@,
	ldr	r2, .L687	@,
	movt	r1, #:upper16:.LC25	@,
	str	ip, [sp, #0]	@ poc,
	bl	dprint_vfmw	@
	mov	r0, #0	@ D.41575,
.L680:
	sub	sp, fp, #20
	ldmfd	sp, {r4, r5, fp, sp, pc}
.L677:
	mov	r0, #1	@,
	movw	r1, #:lower16:.LC23	@,
	ldr	r2, .L687	@,
	movt	r1, #:upper16:.LC23	@,
	bl	dprint_vfmw	@
	mov	r0, r4	@ D.41575, tmp144
	b	.L680	@
.L679:
	mov	r0, #1	@,
	movw	r1, #:lower16:.LC24	@,
	ldr	r2, .L687	@,
	movt	r1, #:upper16:.LC24	@,
	bl	dprint_vfmw	@
	mvn	r0, #0	@ D.41575,
	b	.L680	@
.L688:
	.align	2
.L687:
	.word	.LANCHOR1+32
	.fnend
	.size	HEVC_GetUnRefPicWithMinPoc, .-HEVC_GetUnRefPicWithMinPoc
	.align	2
	.global	HEVC_VPSEqual
	.type	HEVC_VPSEqual, %function
HEVC_VPSEqual:
	.fnstart
.LFB1546:
	@ args = 0, pretend = 0, frame = 16
	@ frame_needed = 1, uses_anonymous_args = 0
	.movsp ip
	mov	ip, sp	@,
	stmfd	sp!, {r4, r5, r6, r7, r8, r9, sl, fp, ip, lr, pc}	@,
	.pad #4
	.save {r4, r5, r6, r7, r8, r9, sl, fp, ip, lr}
	.setfp fp, ip, #-4
	sub	fp, ip, #4	@,,
	.pad #20
	sub	sp, sp, #20	@,,
	push	{lr}
	bl	__gnu_mcount_nc
	subs	r9, r0, #0	@ pVPS1, pVPS1
	beq	.L723	@,
	cmp	r1, #0	@ pVPS2,
	beq	.L724	@,
	ldr	r8, [r9, #12]	@ <variable>.vps_reserved_three_2bits, <variable>.vps_reserved_three_2bits
	movw	ip, #12712	@ tmp204,
	ldr	r7, [r1, #12]	@ <variable>.vps_reserved_three_2bits, <variable>.vps_reserved_three_2bits
	movw	r0, #12436	@ tmp210,
	ldr	r5, [r9, #16]	@ <variable>.vps_max_layers_minus1, <variable>.vps_max_layers_minus1
	movw	r2, #12708	@ tmp216,
	ldr	r4, [r1, #16]	@ <variable>.vps_max_layers_minus1, <variable>.vps_max_layers_minus1
	mov	r3, #0	@ i,
	ldr	r6, [r9, #20]	@ D.39664, <variable>.vps_max_sub_layers_minus1
	cmp	r8, r7	@ <variable>.vps_reserved_three_2bits, <variable>.vps_reserved_three_2bits
	cmpeq	r5, r4	@, <variable>.vps_max_layers_minus1, <variable>.vps_max_layers_minus1
	ldr	sl, [r1, #20]	@ <variable>.vps_max_sub_layers_minus1, <variable>.vps_max_sub_layers_minus1
	ldrb	r5, [r1, #1]	@ zero_extendqisi2	@ <variable>.vps_temporal_id_nesting_flag, <variable>.vps_temporal_id_nesting_flag
	ldrb	r7, [r9, #1]	@ zero_extendqisi2	@ <variable>.vps_temporal_id_nesting_flag, <variable>.vps_temporal_id_nesting_flag
	movne	r4, #0	@, equal.3016
	moveq	r4, #1	@, equal.3016
	ldr	r8, [r1, #24]	@ <variable>.vps_reserved_0xffff_16bits, <variable>.vps_reserved_0xffff_16bits
	cmp	r6, sl	@ D.39664, <variable>.vps_max_sub_layers_minus1
	movne	sl, #0	@, equal.3017
	andeq	sl, r4, #1	@,, equal.3017, equal.3016
	ldr	r4, [r9, #24]	@ <variable>.vps_reserved_0xffff_16bits, <variable>.vps_reserved_0xffff_16bits
	cmp	r7, r5	@ <variable>.vps_temporal_id_nesting_flag, <variable>.vps_temporal_id_nesting_flag
	movne	r7, #0	@, equal.3018
	andeq	r7, sl, #1	@,, equal.3018, equal.3017
	ldr	r5, [r9, #8]	@ <variable>.video_parameter_set_id, <variable>.video_parameter_set_id
	ldr	sl, [r1, #8]	@ <variable>.video_parameter_set_id, <variable>.video_parameter_set_id
	cmp	r4, r8	@ <variable>.vps_reserved_0xffff_16bits, <variable>.vps_reserved_0xffff_16bits
	movne	r7, #0	@, equal.3019
	andeq	r7, r7, #1	@,, equal.3019, equal.3018
	ldr	r4, [r1, ip]	@ <variable>.profile_tier_level.general_profile_space, <variable>.profile_tier_level.general_profile_space
	ldr	ip, [r9, ip]	@ <variable>.profile_tier_level.general_profile_space, <variable>.profile_tier_level.general_profile_space
	cmp	r5, sl	@ <variable>.video_parameter_set_id, <variable>.video_parameter_set_id
	movne	r7, #0	@, equal.3020
	andeq	r7, r7, #1	@,, equal.3020, equal.3019
	ldrb	r8, [r1, r0]	@ zero_extendqisi2	@ <variable>.profile_tier_level.general_tier_flag, <variable>.profile_tier_level.general_tier_flag
	ldrb	r5, [r9, r0]	@ zero_extendqisi2	@ <variable>.profile_tier_level.general_tier_flag, <variable>.profile_tier_level.general_tier_flag
	cmp	ip, r4	@ <variable>.profile_tier_level.general_profile_space, <variable>.profile_tier_level.general_profile_space
	movne	r4, #0	@, equal.3021
	andeq	r4, r7, #1	@,, equal.3021, equal.3020
	ldr	r0, [r1, r2]	@ <variable>.profile_tier_level.general_profile_idc, <variable>.profile_tier_level.general_profile_idc
	ldr	ip, [r9, r2]	@ <variable>.profile_tier_level.general_profile_idc, <variable>.profile_tier_level.general_profile_idc
	cmp	r5, r8	@ <variable>.profile_tier_level.general_tier_flag, <variable>.profile_tier_level.general_tier_flag
	movne	r2, #0	@, equal.3022
	andeq	r2, r4, #1	@,, equal.3022, equal.3021
	cmp	ip, r0	@ <variable>.profile_tier_level.general_profile_idc, <variable>.profile_tier_level.general_profile_idc
	movne	r0, #0	@, equal
	andeq	r0, r2, #1	@,, equal, equal.3022
.L693:
	add	r2, r3, #1	@ tmp322, i,
	add	r7, r9, r3	@ tmp222, pVPS1, i
	add	r5, r1, r3	@ tmp225, pVPS2, i
	add	ip, r9, r2	@ tmp325, pVPS1, tmp322
	add	r3, r5, #12416	@ tmp227, tmp225,
	add	sl, r1, r2	@ tmp328, pVPS2, tmp322
	add	r4, r7, #12416	@ tmp224, tmp222,
	add	r8, ip, #12416	@ tmp326, tmp325,
	add	r7, sl, #12416	@ tmp329, tmp328,
	ldrb	sl, [r3, #21]	@ zero_extendqisi2	@ tmp230, <variable>.profile_tier_level.general_profile_compatibility_flag
	ldrb	r5, [r4, #21]	@ zero_extendqisi2	@ tmp229, <variable>.profile_tier_level.general_profile_compatibility_flag
	add	r3, r2, #1	@ i, tmp322,
	ldrb	ip, [r8, #21]	@ zero_extendqisi2	@ tmp331, <variable>.profile_tier_level.general_profile_compatibility_flag
	ldrb	r2, [r7, #21]	@ zero_extendqisi2	@ tmp332, <variable>.profile_tier_level.general_profile_compatibility_flag
	cmp	r5, sl	@ tmp229, tmp230
	movne	r0, #0	@, equal
	andeq	r0, r0, #1	@,, equal, equal
	cmp	ip, r2	@ tmp331, tmp332
	movne	r0, #0	@, equal
	andeq	r0, r0, #1	@,, equal, equal
	cmp	r3, #32	@ i,
	bne	.L693	@,
	movw	ip, #12471	@ tmp244,
	movw	r5, #12470	@ tmp232,
	ldrb	sl, [r1, ip]	@ zero_extendqisi2	@, <variable>.profile_tier_level.general_non_packed_constraint_flag
	movw	r4, #12469	@ tmp238,
	ldrb	r7, [r1, r5]	@ zero_extendqisi2	@ <variable>.profile_tier_level.general_interlaced_source_flag, <variable>.profile_tier_level.general_interlaced_source_flag
	movw	r3, #12472	@ tmp250,
	ldrb	r2, [r1, r4]	@ zero_extendqisi2	@ <variable>.profile_tier_level.general_progressive_source_flag, <variable>.profile_tier_level.general_progressive_source_flag
	sub	r6, r6, #1	@ D.39714, D.39664,
	ldrb	r8, [r9, r5]	@ zero_extendqisi2	@ <variable>.profile_tier_level.general_interlaced_source_flag, <variable>.profile_tier_level.general_interlaced_source_flag
	mov	r5, #1	@ i.3030,
	ldrb	r4, [r9, r4]	@ zero_extendqisi2	@ <variable>.profile_tier_level.general_progressive_source_flag, <variable>.profile_tier_level.general_progressive_source_flag
	str	sl, [fp, #-48]	@, %sfp
	and	sl, r6, r5	@, D.39714,
	cmp	r8, r7	@ <variable>.profile_tier_level.general_interlaced_source_flag, <variable>.profile_tier_level.general_interlaced_source_flag
	cmpeq	r4, r2	@, <variable>.profile_tier_level.general_progressive_source_flag, <variable>.profile_tier_level.general_progressive_source_flag
	str	sl, [fp, #-56]	@, %sfp
	ldrb	sl, [r1, r3]	@ zero_extendqisi2	@ <variable>.profile_tier_level.general_frame_only_constraint_flag, <variable>.profile_tier_level.general_frame_only_constraint_flag
	add	r2, r9, #4	@ ivtmp.2996, pVPS1,
	ldrb	r4, [r9, r3]	@ zero_extendqisi2	@ <variable>.profile_tier_level.general_frame_only_constraint_flag, <variable>.profile_tier_level.general_frame_only_constraint_flag
	movne	r7, #0	@, equal.3023
	moveq	r7, #1	@, equal.3023
	ldrb	ip, [r9, ip]	@ zero_extendqisi2	@ <variable>.profile_tier_level.general_non_packed_constraint_flag, <variable>.profile_tier_level.general_non_packed_constraint_flag
	ldr	r3, [fp, #-48]	@, %sfp
	cmp	ip, r3	@ <variable>.profile_tier_level.general_non_packed_constraint_flag,
	movne	r8, #0	@, equal.3024
	andeq	r8, r7, #1	@,, equal.3024, equal.3023
	add	r3, r1, #4	@ ivtmp.2998, pVPS2,
	cmp	r4, sl	@ <variable>.profile_tier_level.general_frame_only_constraint_flag, <variable>.profile_tier_level.general_frame_only_constraint_flag
	movne	r8, #0	@, equal.3024
	andeq	r8, r8, #1	@,, equal.3024, equal.3024
	str	r8, [fp, #-52]	@ equal.3024, %sfp
	ldrb	r7, [r9, #7]	@ zero_extendqisi2	@, <variable>.vps_sub_layer_ordering_info_present_flag
	str	r7, [fp, #-60]	@, %sfp
	ldr	r8, [r9, #84]	@, <variable>.vps_num_reorder_pics
	ldr	sl, [r1, #84]	@, <variable>.vps_num_reorder_pics
	ldr	ip, [r9, #52]	@, <variable>.vps_max_dec_pic_buffering
	ldr	r4, [r1, #52]	@, <variable>.vps_max_dec_pic_buffering
	ldrb	r7, [r1, #7]	@ zero_extendqisi2	@ <variable>.vps_sub_layer_ordering_info_present_flag, <variable>.vps_sub_layer_ordering_info_present_flag
	cmp	r8, sl	@,
	cmpeq	ip, r4	@,,
	ldr	r4, [fp, #-52]	@ equal.3026, %sfp
	movne	r8, #0	@,
	moveq	r8, #1	@,
	str	r8, [fp, #-48]	@, %sfp
	ldr	r8, [fp, #-60]	@, %sfp
	ldr	sl, [r9, #116]	@ tmp269, <variable>.vps_max_latency_increase
	cmp	r8, r7	@, <variable>.vps_sub_layer_ordering_info_present_flag
	movne	r4, #0	@, equal.3026
	andeq	r4, r4, #1	@,, equal.3026, equal.3026
	ldr	ip, [fp, #-48]	@ equal.3028, %sfp
	and	r0, r4, r0	@ equal.3029, equal.3026, equal
	ldr	r4, [r1, #116]	@, <variable>.vps_max_latency_increase
	cmp	sl, r4	@ tmp269,
	movne	ip, #0	@, equal.3028
	andeq	ip, ip, #1	@,, equal.3028, equal.3028
	cmp	r5, r6	@ i.3030, D.39714
	and	r0, r0, ip	@ equal.3029, equal.3029, equal.3028
	bhi	.L716	@,
	ldr	sl, [fp, #-56]	@, %sfp
	cmp	sl, #0	@,
	beq	.L722	@,
	ldr	sl, [r3, #116]	@, <variable>.vps_max_latency_increase
	mov	r5, #2	@ i.3030,
	ldr	r8, [r2, #84]	@ tmp380, <variable>.vps_num_reorder_pics
	ldr	r7, [r2, #52]	@ tmp383, <variable>.vps_max_dec_pic_buffering
	ldr	r4, [r2, #116]	@ tmp387, <variable>.vps_max_latency_increase
	add	r2, r2, #4	@ ivtmp.2996, ivtmp.2996,
	str	sl, [fp, #-48]	@, %sfp
	ldr	ip, [r3, #52]	@, <variable>.vps_max_dec_pic_buffering
	ldr	sl, [r3, #84]	@, <variable>.vps_num_reorder_pics
	add	r3, r3, #4	@ ivtmp.2998, ivtmp.2998,
	cmp	r8, sl	@ tmp380,
	cmpeq	r7, ip	@, tmp383,
	ldr	r8, [fp, #-48]	@, %sfp
	movne	r7, #0	@, equal.3027
	moveq	r7, #1	@, equal.3027
	cmp	r4, r8	@ tmp387,
	movne	ip, #0	@, equal.3028
	andeq	ip, r7, #1	@,, equal.3028, equal.3027
	cmp	r5, r6	@ i.3030, D.39714
	and	r0, r0, ip	@ equal.3029, equal.3029, equal.3028
	bhi	.L716	@,
.L722:
	str	r6, [fp, #-48]	@ D.39714, %sfp
	str	r9, [fp, #-56]	@ pVPS1, %sfp
	str	r1, [fp, #-60]	@ pVPS2, %sfp
.L694:
	add	ip, r2, #4	@ tmp320, ivtmp.2996,
	add	r1, r3, #4	@ tmp321, ivtmp.2998,
	ldr	r6, [r2, #84]	@ tmp338, <variable>.vps_num_reorder_pics
	add	r5, r5, #2	@ i.3030, i.3030,
	ldr	r4, [r3, #84]	@ tmp339, <variable>.vps_num_reorder_pics
	ldr	r8, [r2, #52]	@ tmp341, <variable>.vps_max_dec_pic_buffering
	ldr	r7, [r3, #52]	@ tmp342, <variable>.vps_max_dec_pic_buffering
	ldr	r9, [r1, #84]	@, <variable>.vps_num_reorder_pics
	cmp	r6, r4	@ tmp338, tmp339
	cmpeq	r8, r7	@, tmp341, tmp342
	ldr	sl, [ip, #52]	@ tmp356, <variable>.vps_max_dec_pic_buffering
	ldr	r7, [r3, #116]	@ tmp346, <variable>.vps_max_latency_increase
	ldr	r6, [ip, #84]	@, <variable>.vps_num_reorder_pics
	movne	r4, #0	@, equal.3027
	moveq	r4, #1	@, equal.3027
	ldr	r3, [r1, #52]	@, <variable>.vps_max_dec_pic_buffering
	ldr	r8, [r2, #116]	@ tmp345, <variable>.vps_max_latency_increase
	add	r2, ip, #4	@ ivtmp.2996, tmp320,
	cmp	r6, r9	@,
	cmpeq	sl, r3	@, tmp356,
	ldr	r9, [ip, #116]	@ tmp360, <variable>.vps_max_latency_increase
	add	r3, r1, #4	@ ivtmp.2998, tmp321,
	ldr	r1, [r1, #116]	@ tmp361, <variable>.vps_max_latency_increase
	movne	sl, #0	@, equal.3027
	moveq	sl, #1	@, equal.3027
	cmp	r8, r7	@ tmp345, tmp346
	movne	r4, #0	@, equal.3028
	andeq	r4, r4, #1	@,, equal.3028, equal.3027
	and	r6, r0, r4	@ equal.3029, equal.3029, equal.3028
	ldr	r4, [fp, #-48]	@, %sfp
	cmp	r9, r1	@ tmp360, tmp361
	movne	sl, #0	@, equal.3028
	andeq	sl, sl, #1	@,, equal.3028, equal.3027
	cmp	r5, r4	@ i.3030,
	and	r0, r6, sl	@ equal.3029, equal.3029, equal.3028
	bls	.L694	@,
	ldr	r9, [fp, #-56]	@ pVPS1, %sfp
	ldr	r1, [fp, #-60]	@ pVPS2, %sfp
.L716:
	ldr	r6, [r9, #32]	@, <variable>.vps_num_layer_sets_minus1
	str	r6, [fp, #-48]	@, %sfp
	ldr	ip, [r9, #28]	@ D.39715, <variable>.vps_max_layer_id
	ldr	r3, [r1, #28]	@ <variable>.vps_max_layer_id, <variable>.vps_max_layer_id
	ldr	r2, [r1, #32]	@ <variable>.vps_num_layer_sets_minus1, <variable>.vps_num_layer_sets_minus1
	cmp	r6, r2	@, <variable>.vps_num_layer_sets_minus1
	cmpeq	ip, r3	@, D.39715, <variable>.vps_max_layer_id
	movne	r3, #0	@, equal.3031
	moveq	r3, #1	@, equal.3031
	cmp	r6, #0	@,
	and	r0, r3, r0	@ equal.3032, equal.3031, equal.3029
	strne	r9, [fp, #-52]	@ pVPS1, %sfp
	movne	r3, #1	@ i.3033,
	movne	r9, r1	@ pVPS2, pVPS2
	beq	.L695	@,
.L696:
	add	r1, r3, #36	@ tmp282, i.3033,
	ldr	r8, [fp, #-52]	@, %sfp
	mov	r2, #1	@ j,
	and	sl, ip, r2	@ tmp313, D.39715,
	mov	r6, r1, asl #2	@ tmp283, tmp282,
	add	r7, r8, r6	@ tmp284,, tmp283
	add	r5, r9, r6	@ tmp287, pVPS2, tmp283
	add	r1, r5, #4	@ ivtmp.2987, tmp287,
	add	r4, r7, #4	@ ivtmp.2984, tmp284,
	ldr	r6, [r7, #4]	@ tmp374, <variable>.layer_id_included_flag
	add	r8, r4, #4	@ ivtmp.2984, ivtmp.2984,
	ldr	r5, [r5, #4]	@ tmp375, <variable>.layer_id_included_flag
	add	r7, r1, #4	@ ivtmp.2987, ivtmp.2987,
	cmp	r6, r5	@ tmp374, tmp375
	movne	r0, #0	@, equal.3032
	andeq	r0, r0, #1	@,, equal.3032, equal.3032
	cmp	r2, ip	@ j, D.39715
	bhi	.L717	@,
	cmp	sl, #0	@ tmp313,
	beq	.L697	@,
	ldr	r4, [r4, #4]	@ tmp377, <variable>.layer_id_included_flag
	mov	r2, #2	@ j,
	ldr	r1, [r1, #4]	@ tmp378, <variable>.layer_id_included_flag
	add	r8, r8, #4	@ ivtmp.2984, ivtmp.2984,
	add	r7, r7, #4	@ ivtmp.2987, ivtmp.2987,
	cmp	r4, r1	@ tmp377, tmp378
	movne	r0, #0	@, equal.3032
	andeq	r0, r0, #1	@,, equal.3032, equal.3032
	cmp	r2, ip	@ j, D.39715
	bhi	.L717	@,
.L697:
	mov	r4, r8	@ tmp315, ivtmp.2984
	mov	r1, r7	@ tmp316, ivtmp.2987
	ldr	r6, [r4], #4	@ tmp279, <variable>.layer_id_included_flag
	add	r2, r2, #2	@ j, j,
	ldr	r5, [r1], #4	@ tmp280, <variable>.layer_id_included_flag
	ldr	sl, [r8, #4]	@ tmp368, <variable>.layer_id_included_flag
	add	r8, r4, #4	@ ivtmp.2984, tmp315,
	ldr	r4, [r7, #4]	@ tmp369, <variable>.layer_id_included_flag
	cmp	r6, r5	@ tmp279, tmp280
	movne	r0, #0	@, equal.3032
	andeq	r0, r0, #1	@,, equal.3032, equal.3032
	add	r7, r1, #4	@ ivtmp.2987, tmp316,
	cmp	sl, r4	@ tmp368, tmp369
	movne	r0, #0	@, equal.3032
	andeq	r0, r0, #1	@,, equal.3032, equal.3032
	cmp	r2, ip	@ j, D.39715
	bls	.L697	@,
.L717:
	ldr	r7, [fp, #-48]	@, %sfp
	add	r3, r3, #1	@ i.3033, i.3033,
	cmp	r3, r7	@ i.3033,
	bls	.L696	@,
	mov	r1, r9	@ pVPS2, pVPS2
	ldr	r9, [fp, #-52]	@ pVPS1, %sfp
.L695:
	ldrb	ip, [r9, #6]	@ zero_extendqisi2	@ D.39727, <variable>.vps_timing_info_present_flag
	ldrb	r2, [r1, #6]	@ zero_extendqisi2	@ <variable>.vps_timing_info_present_flag, <variable>.vps_timing_info_present_flag
	cmp	r2, ip	@ <variable>.vps_timing_info_present_flag, D.39727
	movne	r0, #0	@, equal.3013
	andeq	r0, r0, #1	@,, equal.3013, equal.3032
	cmp	ip, #0	@ D.39727,
	beq	.L698	@,
	ldr	r2, [r1, #40]	@ <variable>.vps_time_scale, <variable>.vps_time_scale
	ldr	r6, [r9, #40]	@ <variable>.vps_time_scale, <variable>.vps_time_scale
	ldr	r5, [r9, #36]	@ <variable>.vps_num_units_in_tick, <variable>.vps_num_units_in_tick
	ldr	r4, [r1, #36]	@ <variable>.vps_num_units_in_tick, <variable>.vps_num_units_in_tick
	ldrb	r3, [r9, #5]	@ zero_extendqisi2	@ D.39738, <variable>.vps_poc_proportional_to_timing_flag
	cmp	r6, r2	@ <variable>.vps_time_scale, <variable>.vps_time_scale
	cmpeq	r5, r4	@, <variable>.vps_num_units_in_tick, <variable>.vps_num_units_in_tick
	ldrb	ip, [r1, #5]	@ zero_extendqisi2	@ <variable>.vps_poc_proportional_to_timing_flag, <variable>.vps_poc_proportional_to_timing_flag
	movne	r2, #0	@, equal.3034
	moveq	r2, #1	@, equal.3034
	cmp	ip, r3	@ <variable>.vps_poc_proportional_to_timing_flag, D.39738
	movne	r2, #0	@, equal.3035
	andeq	r2, r2, #1	@,, equal.3035, equal.3034
	cmp	r3, #0	@ D.39738,
	and	r0, r2, r0	@ equal.3012, equal.3035, equal.3013
	bne	.L725	@,
.L699:
	ldr	r2, [r9, #48]	@ <variable>.vps_num_hrd_parameters, <variable>.vps_num_hrd_parameters
	ldr	ip, [r1, #48]	@ <variable>.vps_num_hrd_parameters, <variable>.vps_num_hrd_parameters
	cmp	r2, ip	@ <variable>.vps_num_hrd_parameters, <variable>.vps_num_hrd_parameters
	movne	r0, #0	@, equal.3013
	andeq	r0, r0, #1	@,, equal.3013, equal.3012
.L698:
	cmp	r0, #0	@ equal.3013,
	movne	r0, #0	@, ret,
	mvneq	r0, #0	@, ret,
.L691:
	sub	sp, fp, #40
	ldmfd	sp, {r4, r5, r6, r7, r8, r9, sl, fp, sp, pc}
.L725:
	ldr	ip, [r9, #44]	@ <variable>.vps_num_ticks_poc_diff_one_minus1, <variable>.vps_num_ticks_poc_diff_one_minus1
	ldr	r3, [r1, #44]	@ <variable>.vps_num_ticks_poc_diff_one_minus1, <variable>.vps_num_ticks_poc_diff_one_minus1
	cmp	ip, r3	@ <variable>.vps_num_ticks_poc_diff_one_minus1, <variable>.vps_num_ticks_poc_diff_one_minus1
	movne	r0, #0	@, equal.3012
	andeq	r0, r0, #1	@,, equal.3012, equal.3012
	b	.L699	@
.L724:
	mov	r0, r1	@, pVPS2
	movw	r2, #:lower16:.LC27	@,
	movw	r1, #:lower16:.LC26	@,
	movt	r2, #:upper16:.LC27	@,
	movt	r1, #:upper16:.LC26	@,
	movw	r3, #1290	@,
	bl	dprint_vfmw	@
	mvn	r0, #0	@ ret,
	b	.L691	@
.L723:
	movw	r1, #:lower16:.LC26	@,
	movw	r2, #:lower16:.LC27	@,
	movt	r1, #:upper16:.LC26	@,
	movt	r2, #:upper16:.LC27	@,
	movw	r3, #1289	@,
	bl	dprint_vfmw	@
	mvn	r0, #0	@ ret,
	b	.L691	@
	.fnend
	.size	HEVC_VPSEqual, .-HEVC_VPSEqual
	.align	2
	.global	HEVC_PrintAPCState
	.type	HEVC_PrintAPCState, %function
HEVC_PrintAPCState:
	.fnstart
.LFB1534:
	@ args = 0, pretend = 0, frame = 0
	@ frame_needed = 1, uses_anonymous_args = 0
	.movsp ip
	mov	ip, sp	@,
	stmfd	sp!, {r4, r5, fp, ip, lr, pc}	@,
	.pad #4
	.save {r4, r5, fp, ip, lr}
	.setfp fp, ip, #-4
	sub	fp, ip, #4	@,,
	.pad #8
	sub	sp, sp, #8	@,,
	push	{lr}
	bl	__gnu_mcount_nc
	movw	r1, #:lower16:.LC28	@,
	mov	r4, r0	@ pHevcCtx, pHevcCtx
	movt	r1, #:upper16:.LC28	@,
	mov	r0, #1	@,
	movw	r5, #:lower16:1960736	@ tmp241,
	bl	dprint_vfmw	@
	movw	r1, #:lower16:1960668	@ tmp238,
	movw	r3, #:lower16:1960664	@ tmp239,
	movt	r1, #:upper16:1960668	@ tmp238,
	movt	r3, #:upper16:1960664	@ tmp239,
	mov	r0, #1	@,
	ldr	r2, [r4, r1]	@, <variable>.APC.used_size
	movw	r1, #:lower16:.LC29	@,
	ldr	r3, [r4, r3]	@, <variable>.APC.size
	movt	r1, #:upper16:.LC29	@,
	bl	dprint_vfmw	@
	movt	r5, #:upper16:1960736	@ tmp241,
	movw	r0, #:lower16:1960800	@ tmp242,
	movt	r0, #:upper16:1960800	@ tmp242,
	ldr	lr, [r4, r5]	@ <variable>.APC.idc, <variable>.APC.idc
	movw	r2, #:lower16:1960672	@ tmp240,
	ldr	ip, [r4, r0]	@ <variable>.APC.poc, <variable>.APC.poc
	movt	r2, #:upper16:1960672	@ tmp240,
	movw	r5, #:lower16:.LC30	@ pretmp.3049,
	movt	r5, #:upper16:.LC30	@ pretmp.3049,
	ldr	r3, [r4, r2]	@ <variable>.APC.is_used, <variable>.APC.is_used
	mov	r0, #1	@,
	mov	r1, r5	@, pretmp.3049
	mov	r2, #0	@,
	str	lr, [sp, #0]	@ <variable>.APC.idc,
	str	ip, [sp, #4]	@ <variable>.APC.poc,
	bl	dprint_vfmw	@
	movw	r1, #:lower16:1960740	@ tmp244,
	movw	r2, #:lower16:1960804	@ tmp245,
	movt	r1, #:upper16:1960740	@ tmp244,
	movt	r2, #:upper16:1960804	@ tmp245,
	movw	r3, #:lower16:1960676	@ tmp243,
	movt	r3, #:upper16:1960676	@ tmp243,
	ldr	lr, [r4, r1]	@ <variable>.APC.idc, <variable>.APC.idc
	mov	r0, #1	@,
	ldr	ip, [r4, r2]	@ <variable>.APC.poc, <variable>.APC.poc
	mov	r1, r5	@, pretmp.3049
	ldr	r3, [r4, r3]	@ <variable>.APC.is_used, <variable>.APC.is_used
	mov	r2, r0	@,
	str	lr, [sp, #0]	@ <variable>.APC.idc,
	str	ip, [sp, #4]	@ <variable>.APC.poc,
	bl	dprint_vfmw	@
	movw	r2, #:lower16:1960744	@ tmp247,
	movw	r0, #:lower16:1960808	@ tmp248,
	movt	r2, #:upper16:1960744	@ tmp247,
	movt	r0, #:upper16:1960808	@ tmp248,
	movw	r1, #:lower16:1960680	@ tmp246,
	movt	r1, #:upper16:1960680	@ tmp246,
	ldr	lr, [r4, r2]	@ <variable>.APC.idc, <variable>.APC.idc
	mov	r2, #2	@,
	ldr	ip, [r4, r0]	@ <variable>.APC.poc, <variable>.APC.poc
	mov	r0, #1	@,
	ldr	r3, [r4, r1]	@ <variable>.APC.is_used, <variable>.APC.is_used
	mov	r1, r5	@, pretmp.3049
	str	lr, [sp, #0]	@ <variable>.APC.idc,
	str	ip, [sp, #4]	@ <variable>.APC.poc,
	bl	dprint_vfmw	@
	movw	r2, #:lower16:1960748	@ tmp250,
	movw	r0, #:lower16:1960812	@ tmp251,
	movt	r2, #:upper16:1960748	@ tmp250,
	movt	r0, #:upper16:1960812	@ tmp251,
	movw	r3, #:lower16:1960684	@ tmp249,
	movt	r3, #:upper16:1960684	@ tmp249,
	ldr	lr, [r4, r2]	@ <variable>.APC.idc, <variable>.APC.idc
	mov	r1, r5	@, pretmp.3049
	ldr	ip, [r4, r0]	@ <variable>.APC.poc, <variable>.APC.poc
	mov	r2, #3	@,
	ldr	r3, [r4, r3]	@ <variable>.APC.is_used, <variable>.APC.is_used
	mov	r0, #1	@,
	str	lr, [sp, #0]	@ <variable>.APC.idc,
	str	ip, [sp, #4]	@ <variable>.APC.poc,
	bl	dprint_vfmw	@
	movw	r2, #:lower16:1960752	@ tmp253,
	movw	r0, #:lower16:1960816	@ tmp254,
	movt	r2, #:upper16:1960752	@ tmp253,
	movt	r0, #:upper16:1960816	@ tmp254,
	movw	r1, #:lower16:1960688	@ tmp252,
	movt	r1, #:upper16:1960688	@ tmp252,
	ldr	lr, [r4, r2]	@ <variable>.APC.idc, <variable>.APC.idc
	mov	r2, #4	@,
	ldr	ip, [r4, r0]	@ <variable>.APC.poc, <variable>.APC.poc
	mov	r0, #1	@,
	ldr	r3, [r4, r1]	@ <variable>.APC.is_used, <variable>.APC.is_used
	mov	r1, r5	@, pretmp.3049
	str	lr, [sp, #0]	@ <variable>.APC.idc,
	str	ip, [sp, #4]	@ <variable>.APC.poc,
	bl	dprint_vfmw	@
	movw	r2, #:lower16:1960756	@ tmp256,
	movw	r0, #:lower16:1960820	@ tmp257,
	movt	r2, #:upper16:1960756	@ tmp256,
	movt	r0, #:upper16:1960820	@ tmp257,
	movw	r3, #:lower16:1960692	@ tmp255,
	movt	r3, #:upper16:1960692	@ tmp255,
	ldr	lr, [r4, r2]	@ <variable>.APC.idc, <variable>.APC.idc
	mov	r1, r5	@, pretmp.3049
	ldr	ip, [r4, r0]	@ <variable>.APC.poc, <variable>.APC.poc
	mov	r2, #5	@,
	ldr	r3, [r4, r3]	@ <variable>.APC.is_used, <variable>.APC.is_used
	mov	r0, #1	@,
	str	lr, [sp, #0]	@ <variable>.APC.idc,
	str	ip, [sp, #4]	@ <variable>.APC.poc,
	bl	dprint_vfmw	@
	movw	r2, #:lower16:1960760	@ tmp259,
	movw	r0, #:lower16:1960824	@ tmp260,
	movt	r2, #:upper16:1960760	@ tmp259,
	movt	r0, #:upper16:1960824	@ tmp260,
	movw	r1, #:lower16:1960696	@ tmp258,
	movt	r1, #:upper16:1960696	@ tmp258,
	ldr	lr, [r4, r2]	@ <variable>.APC.idc, <variable>.APC.idc
	mov	r2, #6	@,
	ldr	ip, [r4, r0]	@ <variable>.APC.poc, <variable>.APC.poc
	mov	r0, #1	@,
	ldr	r3, [r4, r1]	@ <variable>.APC.is_used, <variable>.APC.is_used
	mov	r1, r5	@, pretmp.3049
	str	lr, [sp, #0]	@ <variable>.APC.idc,
	str	ip, [sp, #4]	@ <variable>.APC.poc,
	bl	dprint_vfmw	@
	movw	r2, #:lower16:1960764	@ tmp262,
	movw	r0, #:lower16:1960828	@ tmp263,
	movt	r2, #:upper16:1960764	@ tmp262,
	movt	r0, #:upper16:1960828	@ tmp263,
	movw	r3, #:lower16:1960700	@ tmp261,
	movt	r3, #:upper16:1960700	@ tmp261,
	ldr	lr, [r4, r2]	@ <variable>.APC.idc, <variable>.APC.idc
	mov	r1, r5	@, pretmp.3049
	ldr	ip, [r4, r0]	@ <variable>.APC.poc, <variable>.APC.poc
	mov	r2, #7	@,
	ldr	r3, [r4, r3]	@ <variable>.APC.is_used, <variable>.APC.is_used
	mov	r0, #1	@,
	str	lr, [sp, #0]	@ <variable>.APC.idc,
	str	ip, [sp, #4]	@ <variable>.APC.poc,
	bl	dprint_vfmw	@
	movw	r2, #:lower16:1960768	@ tmp265,
	movw	r0, #:lower16:1960832	@ tmp266,
	movt	r2, #:upper16:1960768	@ tmp265,
	movt	r0, #:upper16:1960832	@ tmp266,
	movw	r1, #:lower16:1960704	@ tmp264,
	movt	r1, #:upper16:1960704	@ tmp264,
	ldr	lr, [r4, r2]	@ <variable>.APC.idc, <variable>.APC.idc
	mov	r2, #8	@,
	ldr	ip, [r4, r0]	@ <variable>.APC.poc, <variable>.APC.poc
	mov	r0, #1	@,
	ldr	r3, [r4, r1]	@ <variable>.APC.is_used, <variable>.APC.is_used
	mov	r1, r5	@, pretmp.3049
	str	lr, [sp, #0]	@ <variable>.APC.idc,
	str	ip, [sp, #4]	@ <variable>.APC.poc,
	bl	dprint_vfmw	@
	movw	r2, #:lower16:1960772	@ tmp268,
	movw	r0, #:lower16:1960836	@ tmp269,
	movt	r2, #:upper16:1960772	@ tmp268,
	movt	r0, #:upper16:1960836	@ tmp269,
	movw	r3, #:lower16:1960708	@ tmp267,
	movt	r3, #:upper16:1960708	@ tmp267,
	ldr	lr, [r4, r2]	@ <variable>.APC.idc, <variable>.APC.idc
	mov	r1, r5	@, pretmp.3049
	ldr	ip, [r4, r0]	@ <variable>.APC.poc, <variable>.APC.poc
	mov	r2, #9	@,
	ldr	r3, [r4, r3]	@ <variable>.APC.is_used, <variable>.APC.is_used
	mov	r0, #1	@,
	str	lr, [sp, #0]	@ <variable>.APC.idc,
	str	ip, [sp, #4]	@ <variable>.APC.poc,
	bl	dprint_vfmw	@
	movw	r2, #:lower16:1960776	@ tmp271,
	movw	r0, #:lower16:1960840	@ tmp272,
	movt	r2, #:upper16:1960776	@ tmp271,
	movt	r0, #:upper16:1960840	@ tmp272,
	movw	r1, #:lower16:1960712	@ tmp270,
	movt	r1, #:upper16:1960712	@ tmp270,
	ldr	lr, [r4, r2]	@ <variable>.APC.idc, <variable>.APC.idc
	mov	r2, #10	@,
	ldr	ip, [r4, r0]	@ <variable>.APC.poc, <variable>.APC.poc
	mov	r0, #1	@,
	ldr	r3, [r4, r1]	@ <variable>.APC.is_used, <variable>.APC.is_used
	mov	r1, r5	@, pretmp.3049
	str	lr, [sp, #0]	@ <variable>.APC.idc,
	str	ip, [sp, #4]	@ <variable>.APC.poc,
	bl	dprint_vfmw	@
	movw	r2, #:lower16:1960780	@ tmp274,
	movw	r0, #:lower16:1960844	@ tmp275,
	movt	r2, #:upper16:1960780	@ tmp274,
	movt	r0, #:upper16:1960844	@ tmp275,
	movw	r3, #:lower16:1960716	@ tmp273,
	movt	r3, #:upper16:1960716	@ tmp273,
	ldr	lr, [r4, r2]	@ <variable>.APC.idc, <variable>.APC.idc
	mov	r1, r5	@, pretmp.3049
	ldr	ip, [r4, r0]	@ <variable>.APC.poc, <variable>.APC.poc
	mov	r2, #11	@,
	ldr	r3, [r4, r3]	@ <variable>.APC.is_used, <variable>.APC.is_used
	mov	r0, #1	@,
	str	lr, [sp, #0]	@ <variable>.APC.idc,
	str	ip, [sp, #4]	@ <variable>.APC.poc,
	bl	dprint_vfmw	@
	movw	r2, #:lower16:1960784	@ tmp277,
	movw	r0, #:lower16:1960848	@ tmp278,
	movt	r2, #:upper16:1960784	@ tmp277,
	movt	r0, #:upper16:1960848	@ tmp278,
	movw	r1, #:lower16:1960720	@ tmp276,
	movt	r1, #:upper16:1960720	@ tmp276,
	ldr	lr, [r4, r2]	@ <variable>.APC.idc, <variable>.APC.idc
	mov	r2, #12	@,
	ldr	ip, [r4, r0]	@ <variable>.APC.poc, <variable>.APC.poc
	mov	r0, #1	@,
	ldr	r3, [r4, r1]	@ <variable>.APC.is_used, <variable>.APC.is_used
	mov	r1, r5	@, pretmp.3049
	str	lr, [sp, #0]	@ <variable>.APC.idc,
	str	ip, [sp, #4]	@ <variable>.APC.poc,
	bl	dprint_vfmw	@
	movw	r2, #:lower16:1960788	@ tmp280,
	movw	r0, #:lower16:1960852	@ tmp281,
	movt	r2, #:upper16:1960788	@ tmp280,
	movt	r0, #:upper16:1960852	@ tmp281,
	movw	r3, #:lower16:1960724	@ tmp279,
	movt	r3, #:upper16:1960724	@ tmp279,
	ldr	lr, [r4, r2]	@ <variable>.APC.idc, <variable>.APC.idc
	mov	r1, r5	@, pretmp.3049
	ldr	ip, [r4, r0]	@ <variable>.APC.poc, <variable>.APC.poc
	mov	r2, #13	@,
	ldr	r3, [r4, r3]	@ <variable>.APC.is_used, <variable>.APC.is_used
	mov	r0, #1	@,
	str	lr, [sp, #0]	@ <variable>.APC.idc,
	str	ip, [sp, #4]	@ <variable>.APC.poc,
	bl	dprint_vfmw	@
	movw	r2, #:lower16:1960792	@ tmp283,
	movw	r0, #:lower16:1960856	@ tmp284,
	movt	r2, #:upper16:1960792	@ tmp283,
	movt	r0, #:upper16:1960856	@ tmp284,
	movw	r1, #:lower16:1960728	@ tmp282,
	movt	r1, #:upper16:1960728	@ tmp282,
	ldr	lr, [r4, r2]	@ <variable>.APC.idc, <variable>.APC.idc
	mov	r2, #14	@,
	ldr	ip, [r4, r0]	@ <variable>.APC.poc, <variable>.APC.poc
	mov	r0, #1	@,
	ldr	r3, [r4, r1]	@ <variable>.APC.is_used, <variable>.APC.is_used
	mov	r1, r5	@, pretmp.3049
	str	lr, [sp, #0]	@ <variable>.APC.idc,
	str	ip, [sp, #4]	@ <variable>.APC.poc,
	bl	dprint_vfmw	@
	movw	r2, #:lower16:1960796	@ tmp286,
	movw	r0, #:lower16:1960860	@ tmp287,
	movt	r2, #:upper16:1960796	@ tmp286,
	movt	r0, #:upper16:1960860	@ tmp287,
	movw	r3, #:lower16:1960732	@ tmp285,
	movt	r3, #:upper16:1960732	@ tmp285,
	ldr	lr, [r4, r0]	@ <variable>.APC.poc, <variable>.APC.poc
	mov	r1, r5	@, pretmp.3049
	ldr	ip, [r4, r2]	@ <variable>.APC.idc, <variable>.APC.idc
	mov	r0, #1	@,
	ldr	r3, [r4, r3]	@ <variable>.APC.is_used, <variable>.APC.is_used
	mov	r2, #15	@,
	stmia	sp, {ip, lr}	@ phole stm
	bl	dprint_vfmw	@
	movw	r1, #:lower16:.LC31	@,
	mov	r0, #1	@,
	movt	r1, #:upper16:.LC31	@,
	bl	dprint_vfmw	@
	sub	sp, fp, #20
	ldmfd	sp, {r4, r5, fp, sp, pc}
	.fnend
	.size	HEVC_PrintAPCState, .-HEVC_PrintAPCState
	.align	2
	.global	HEVC_PrintFrameStoreState
	.type	HEVC_PrintFrameStoreState, %function
HEVC_PrintFrameStoreState:
	.fnstart
.LFB1533:
	@ args = 0, pretend = 0, frame = 0
	@ frame_needed = 1, uses_anonymous_args = 0
	.movsp ip
	mov	ip, sp	@,
	stmfd	sp!, {r4, r5, r6, fp, ip, lr, pc}	@,
	.pad #4
	.save {r4, r5, r6, fp, ip, lr}
	.setfp fp, ip, #-4
	sub	fp, ip, #4	@,,
	.pad #20
	sub	sp, sp, #20	@,,
	push	{lr}
	bl	__gnu_mcount_nc
	movw	r1, #:lower16:.LC32	@,
	mov	r6, r0	@ pHevcCtx, pHevcCtx
	movt	r1, #:upper16:.LC32	@,
	mov	r0, #1	@,
	bl	dprint_vfmw	@
	ldr	r3, [r6, #168]	@ <variable>.TotalFsNum, <variable>.TotalFsNum
	cmp	r3, #0	@ <variable>.TotalFsNum,
	beq	.L729	@,
	movw	r4, #:lower16:4306732	@ ivtmp.3143,
	movt	r4, #:upper16:4306732	@ ivtmp.3143,
	add	r4, r6, r4	@ ivtmp.3143, pHevcCtx, ivtmp.3143
	mov	r5, #0	@ i,
.L730:
	ldr	r0, [r4, #-280]	@ <variable>.eFrameStoreState, <variable>.eFrameStoreState
	add	r2, r5, r5, asl #3	@, tmp144, i, i,
	movw	ip, #:lower16:4306448	@ tmp146,
	movt	ip, #:upper16:4306448	@ tmp146,
	mov	r1, r2, asl #6	@ tmp145, tmp144,
	mov	r2, r5	@, i
	str	r0, [sp, #0]	@ <variable>.eFrameStoreState,
	add	r3, r1, ip	@ tmp146, tmp145, tmp146
	ldrb	lr, [r4, #-283]	@ zero_extendqisi2	@ <variable>.is_reference, <variable>.is_reference
	add	r3, r6, r3	@, pHevcCtx, tmp146
	mov	r0, #1	@,
	movw	r1, #:lower16:.LC33	@,
	movt	r1, #:upper16:.LC33	@,
	add	r5, r5, r0	@ i, i,
	str	lr, [sp, #4]	@ <variable>.is_reference,
	ldrb	ip, [r4, #-282]	@ zero_extendqisi2	@ <variable>.is_displayed, <variable>.is_displayed
	str	ip, [sp, #8]	@ <variable>.is_displayed,
	bl	dprint_vfmw	@
	ldr	r3, [r4, #0]	@, <variable>.fs_image.p_usrdat
	mov	r2, #0	@,
	mov	r0, #1	@,
	movw	r1, #:lower16:.LC34	@,
	movt	r1, #:upper16:.LC34	@,
	bl	dprint_vfmw	@
	mov	r0, #1	@,
	ldr	r3, [r4, #4]	@, <variable>.fs_image.p_usrdat
	mov	r2, r0	@,
	movw	r1, #:lower16:.LC34	@,
	movt	r1, #:upper16:.LC34	@,
	bl	dprint_vfmw	@
	ldr	r3, [r4, #8]	@, <variable>.fs_image.p_usrdat
	mov	r2, #2	@,
	mov	r0, #1	@,
	movw	r1, #:lower16:.LC34	@,
	movt	r1, #:upper16:.LC34	@,
	bl	dprint_vfmw	@
	ldr	r3, [r4, #12]	@, <variable>.fs_image.p_usrdat
	mov	r2, #3	@,
	mov	r0, #1	@,
	movw	r1, #:lower16:.LC34	@,
	movt	r1, #:upper16:.LC34	@,
	bl	dprint_vfmw	@
	mov	r0, #1	@,
	movw	r1, #:lower16:.LC35	@,
	movt	r1, #:upper16:.LC35	@,
	bl	dprint_vfmw	@
	ldr	r0, [r6, #168]	@ <variable>.TotalFsNum, <variable>.TotalFsNum
	add	r4, r4, #576	@ ivtmp.3143, ivtmp.3143,
	cmp	r0, r5	@ <variable>.TotalFsNum, i
	bhi	.L730	@,
.L729:
	movw	r1, #:lower16:.LC36	@,
	mov	r0, #1	@,
	movt	r1, #:upper16:.LC36	@,
	bl	dprint_vfmw	@
	sub	sp, fp, #24
	ldmfd	sp, {r4, r5, r6, fp, sp, pc}
	.fnend
	.size	HEVC_PrintFrameStoreState, .-HEVC_PrintFrameStoreState
	.align	2
	.global	HEVC_PrintNaluArraySlot
	.type	HEVC_PrintNaluArraySlot, %function
HEVC_PrintNaluArraySlot:
	.fnstart
.LFB1531:
	@ args = 0, pretend = 0, frame = 0
	@ frame_needed = 1, uses_anonymous_args = 0
	.movsp ip
	mov	ip, sp	@,
	stmfd	sp!, {r4, r5, r6, r7, r8, r9, sl, fp, ip, lr, pc}	@,
	.pad #4
	.save {r4, r5, r6, r7, r8, r9, sl, fp, ip, lr}
	.setfp fp, ip, #-4
	sub	fp, ip, #4	@,,
	.pad #12
	sub	sp, sp, #12	@,,
	push	{lr}
	bl	__gnu_mcount_nc
	movw	r6, #:lower16:2358480	@ ivtmp.3186,
	movt	r6, #:upper16:2358480	@ ivtmp.3186,
	mov	r7, r0	@ pHevcCtx, pHevcCtx
	add	r6, r0, r6	@ ivtmp.3186, pHevcCtx, ivtmp.3186
	movw	r1, #:lower16:.LC37	@,
	mov	r0, #1	@,
	movt	r1, #:upper16:.LC37	@,
	bl	dprint_vfmw	@
	ldr	ip, [r6], #100	@ <variable>.is_valid, <variable>.is_valid
	movw	r3, #:lower16:2358444	@,
	movt	r3, #:upper16:2358444	@,
	add	r3, r7, r3	@, pHevcCtx,
	mov	r2, #0	@,
	mov	r0, #1	@,
	movw	r1, #:lower16:.LC38	@,
	movt	r1, #:upper16:.LC38	@,
	str	ip, [sp, #0]	@ <variable>.is_valid,
	bl	dprint_vfmw	@
	mov	r0, #1	@,
	movw	r1, #:lower16:.LC35	@,
	movt	r1, #:upper16:.LC35	@,
	movw	sl, #:lower16:-858993459	@ tmp166,
	bl	dprint_vfmw	@
	movt	sl, #:upper16:-858993459	@ tmp166,
	mov	r9, #100	@ tmp162,
	mov	r4, #1	@ Pos,
	b	.L735	@
.L734:
	mla	r1, r9, r5, r7	@ tmp192, tmp162, tmp168, pHevcCtx
	ldr	lr, [r6, #100]	@ <variable>.is_valid, <variable>.is_valid
	movw	r6, #:lower16:2358444	@,
	movt	r6, #:upper16:2358444	@,
	mov	r2, r5	@, tmp168
	mov	r0, #1	@,
	add	r3, r1, r6	@, tmp192,
	movw	r1, #:lower16:.LC38	@,
	movt	r1, #:upper16:.LC38	@,
	str	lr, [sp, #0]	@ <variable>.is_valid,
	bl	dprint_vfmw	@
	umull	r2, r3, sl, r5	@, tmp196, tmp166, tmp168
	mov	r4, r3, lsr #3	@ tmp197, tmp196,
	add	r2, r4, r4, asl #2	@, tmp199, tmp197, tmp197,
	cmp	r5, r2, asl #1	@ tmp168, tmp199,
	beq	.L744	@,
	add	r4, r5, #1	@ Pos, tmp168,
	add	r6, r8, #100	@ ivtmp.3186, tmp169,
	cmp	r4, #211	@ Pos,
	beq	.L745	@,
.L735:
	mla	ip, r9, r4, r7	@ tmp175, tmp162, Pos, pHevcCtx
	ldr	lr, [r6, #0]	@ <variable>.is_valid, <variable>.is_valid
	movw	r8, #:lower16:2358444	@,
	movt	r8, #:upper16:2358444	@,
	mov	r2, r4	@, Pos
	mov	r0, #1	@,
	add	r3, ip, r8	@, tmp175,
	movw	r1, #:lower16:.LC38	@,
	movt	r1, #:upper16:.LC38	@,
	str	lr, [sp, #0]	@ <variable>.is_valid,
	bl	dprint_vfmw	@
	umull	r2, ip, sl, r4	@, tmp180, tmp166, Pos
	add	r5, r4, #1	@ tmp168, Pos,
	add	r8, r6, #100	@ tmp169, ivtmp.3186,
	mov	r1, ip, lsr #3	@ tmp181, tmp180,
	add	r0, r1, r1, asl #2	@, tmp183, tmp181, tmp181,
	cmp	r4, r0, asl #1	@ Pos, tmp183,
	bne	.L734	@,
	movw	r1, #:lower16:.LC35	@,
	mov	r0, #1	@,
	movt	r1, #:upper16:.LC35	@,
	bl	dprint_vfmw	@
	b	.L734	@
.L744:
	movw	r1, #:lower16:.LC35	@,
	mov	r0, #1	@,
	movt	r1, #:upper16:.LC35	@,
	add	r4, r5, #1	@ Pos, tmp168,
	bl	dprint_vfmw	@
	cmp	r4, #211	@ Pos,
	add	r6, r8, #100	@ ivtmp.3186, tmp169,
	bne	.L735	@,
.L745:
	mov	r0, #1	@,
	movw	r1, #:lower16:.LC35	@,
	movt	r1, #:upper16:.LC35	@,
	bl	dprint_vfmw	@
	movw	r1, #:lower16:.LC39	@,
	mov	r0, #1	@,
	movt	r1, #:upper16:.LC39	@,
	bl	dprint_vfmw	@
	sub	sp, fp, #40
	ldmfd	sp, {r4, r5, r6, r7, r8, r9, sl, fp, sp, pc}
	.fnend
	.size	HEVC_PrintNaluArraySlot, .-HEVC_PrintNaluArraySlot
	.align	2
	.global	HEVCGetDar
	.type	HEVCGetDar, %function
HEVCGetDar:
	.fnstart
.LFB1530:
	@ args = 4, pretend = 0, frame = 0
	@ frame_needed = 1, uses_anonymous_args = 0
	.movsp ip
	mov	ip, sp	@,
	stmfd	sp!, {r4, r5, fp, ip, lr, pc}	@,
	.pad #4
	.save {r4, r5, fp, ip, lr}
	.setfp fp, ip, #-4
	sub	fp, ip, #4	@,,
	push	{lr}
	bl	__gnu_mcount_nc
	cmp	r0, #0	@ ar_idc
	mov	ip, r1	@ sar_width, sar_width
	mov	r4, r3	@ img_width, img_width
	beq	.L747	@,
	subs	r3, r0, #255	@ D.38724, ar_idc,
	movne	r3, #1	@ D.38724
	cmp	r0, #255	@ ar_idc,
	cmpne	r0, #16	@, ar_idc,
	bgt	.L747	@,
	cmp	r1, #0	@ sar_width,
	cmpne	r2, #0	@, sar_height,
	beq	.L764	@,
.L748:
	cmp	r0, #1	@ ar_idc,
	moveq	r4, #5	@ final_dar,
	beq	.L750	@,
	cmp	r3, #0	@ D.38724,
	beq	.L751	@,
	movw	r3, #:lower16:.LANCHOR1	@ tmp162,
	movt	r3, #:upper16:.LANCHOR1	@ tmp162,
	add	r2, r3, r0, asl #3	@, tmp171, tmp162, ar_idc,
	mov	r0, r2	@ tmp165, tmp171
	ldr	r2, [r2, #64]	@ sar_height, SarTable
	ldr	ip, [r0, #60]	@ sar_width, SarTable
.L751:
	mov	r1, r2	@, sar_height
	mov	r0, ip, asl #10	@, sar_width,
	bl	__aeabi_idiv	@
	ldr	r1, [fp, #4]	@, img_height
	mov	r5, r0	@ tmp178,
	mov	r0, r4, asl #10	@, img_width,
	bl	__aeabi_idiv	@
	mul	r5, r0, r5	@ tmp184,, tmp178
	add	r3, r5, #1020	@ tmp186, tmp184,
	cmp	r5, #0	@ tmp184,
	add	r2, r3, #3	@ tmp186, tmp186,
	movlt	r5, r2	@ tmp185, tmp186
	mov	r5, r5, asr #10	@ dar, tmp185,
	sub	r0, r5, #2400	@ iftmp.450, dar,
	sub	r1, r5, #2256	@ iftmp.3216, dar,
	sub	ip, r0, #6	@ iftmp.450, iftmp.450,
	sub	r3, r1, #7	@ iftmp.3216, iftmp.3216,
	cmp	ip, #0	@ iftmp.450,
	rsblt	ip, r5, #2400	@ tmp190, dar,
	addlt	ip, ip, #6	@ iftmp.450, tmp190,
	cmp	r3, #0	@ iftmp.3216,
	rsblt	r1, r5, #2256	@ tmp192, dar,
	addlt	r1, r1, #7	@ iftmp.451, tmp192,
	movge	r1, r3	@ iftmp.451, iftmp.3216
	cmp	ip, r1	@ iftmp.450, iftmp.451
	movlt	r4, #4	@ final_dar,
	blt	.L750	@,
	cmp	r3, #0	@ iftmp.3216,
	sub	lr, r5, #1808	@ iftmp.3217, dar,
	rsblt	r3, r5, #2256	@ tmp193, dar,
	sub	r2, lr, #12	@ iftmp.3217, iftmp.3217,
	addlt	r3, r3, #7	@ iftmp.3216, tmp193,
	cmp	r2, #0	@ iftmp.3217,
	rsblt	r1, r5, #1808	@ tmp195, dar,
	addlt	r1, r1, #12	@ iftmp.453, tmp195,
	movge	r1, r2	@ iftmp.453, iftmp.3217
	cmp	r3, r1	@ iftmp.3216, iftmp.453
	movlt	r4, #3	@ final_dar,
	blt	.L750	@,
	cmp	r2, #0	@ iftmp.3217,
	sub	r4, r5, #1360	@ iftmp.455, dar,
	sub	r4, r4, #5	@ iftmp.455, iftmp.455,
	rsblt	r2, r5, #1808	@ tmp196, dar,
	addlt	r2, r2, #12	@ iftmp.3217, tmp196,
	cmp	r4, #0	@ iftmp.455,
	rsblt	r4, r5, #1360	@ tmp198, dar,
	addlt	r4, r4, #5	@ iftmp.455, tmp198,
	cmp	r2, r4	@ iftmp.3217, iftmp.455
	movlt	r4, #2	@ final_dar,
	movge	r4, #1	@ final_dar,
	b	.L750	@
.L764:
	cmp	r0, #255	@ ar_idc,
	bne	.L748	@,
.L747:
	mov	r4, #0	@ final_dar,
.L750:
	mov	r2, r4	@, final_dar
	mov	r0, #22	@,
	movw	r1, #:lower16:.LC40	@,
	movt	r1, #:upper16:.LC40	@,
	bl	dprint_vfmw	@
	mov	r0, r4	@, final_dar
	ldmfd	sp, {r4, r5, fp, sp, pc}	@
	.fnend
	.size	HEVCGetDar, .-HEVCGetDar
	.align	2
	.global	HEVC_CalcTileMap
	.type	HEVC_CalcTileMap, %function
HEVC_CalcTileMap:
	.fnstart
.LFB1587:
	@ args = 0, pretend = 0, frame = 32
	@ frame_needed = 1, uses_anonymous_args = 0
	.movsp ip
	mov	ip, sp	@,
	stmfd	sp!, {r4, r5, r6, r7, r8, r9, sl, fp, ip, lr, pc}	@,
	.pad #4
	.save {r4, r5, r6, r7, r8, r9, sl, fp, ip, lr}
	.setfp fp, ip, #-4
	sub	fp, ip, #4	@,,
	.pad #36
	sub	sp, sp, #36	@,,
	push	{lr}
	bl	__gnu_mcount_nc
	movw	lr, #:lower16:2139748	@,
	movt	lr, #:upper16:2139748	@,
	mov	r4, r0	@ pHevcCtx, pHevcCtx
	mov	r1, #147456	@,
	add	r0, r0, lr	@, pHevcCtx,
	bl	__memzero	@
	movw	ip, #:lower16:2287204	@,
	movt	ip, #:upper16:2287204	@,
	mov	r1, #36864	@,
	add	r0, r4, ip	@, pHevcCtx,
	movw	r9, #:lower16:2324068	@,
	movt	r9, #:upper16:2324068	@,
	bl	__memzero	@
	add	r0, r4, r9	@, pHevcCtx,
	mov	r1, #32768	@,
	bl	__memzero	@
	movw	r3, #:lower16:2356836	@ tmp158,
	movt	r3, #:upper16:2356836	@ tmp158,
	movw	r1, #:lower16:2044616	@ tmp160,
	movt	r1, #:upper16:2044616	@ tmp160,
	mov	r0, #0	@ tmp159,
	str	r0, [fp, #-52]	@ tmp159, %sfp
	movw	r2, #:lower16:2117176	@ tmp161,
	str	r0, [r4, r3]	@ tmp159, <variable>.DecPicPara.TileNum
	movt	r2, #:upper16:2117176	@ tmp161,
	ldr	r9, [r4, r1]	@ picWidthInCtb, <variable>.CurrSPS.ctb_num_width
	movw	r5, #:lower16:2117964	@,
	ldr	r1, [fp, #-52]	@, %sfp
	movt	r5, #:upper16:2117964	@,
	movw	ip, #:lower16:2117708	@,
	movt	ip, #:upper16:2117708	@,
	add	ip, r4, ip	@, pHevcCtx,
	add	r5, r4, r5	@, pHevcCtx,
	str	r5, [fp, #-48]	@, %sfp
	ldr	r2, [r4, r2]	@ prephitmp.3239, <variable>.CurrPPS.num_tile_rows
	str	ip, [fp, #-56]	@, %sfp
	mov	ip, r1	@ idx,
	str	r1, [fp, #-68]	@, %sfp
.L766:
	ldr	r1, [fp, #-52]	@, %sfp
	cmp	r1, r2	@, prephitmp.3239
	bcs	.L775	@,
	movw	r5, #:lower16:2117172	@ tmp190,
	movt	r5, #:upper16:2117172	@ tmp190,
	ldr	r3, [r4, r5]	@ <variable>.CurrPPS.num_tile_columns, <variable>.CurrPPS.num_tile_columns
	cmp	r3, #0	@ <variable>.CurrPPS.num_tile_columns,
	ldreq	r5, [fp, #-48]	@, %sfp
	ldreq	sl, [r5, #0]	@ tmp198, <variable>.CurrPPS.row_bd
	beq	.L773	@,
	ldr	lr, [fp, #-68]	@, %sfp
	movw	r5, #:lower16:2356836	@,
	movt	r5, #:upper16:2356836	@,
	mov	r2, #0	@,
	ldr	sl, [fp, #-56]	@, %sfp
	mov	r1, #0	@,
	mul	r0, r9, lr	@, picWidthInCtb,
	str	r2, [fp, #-64]	@, %sfp
	ldr	r2, [r4, r5]	@ prephitmp.3237, <variable>.DecPicPara.TileNum
	ldr	r5, [fp, #-48]	@, %sfp
	str	sl, [fp, #-60]	@, %sfp
	ldr	sl, [r5, #0]	@ tmp198, <variable>.CurrPPS.row_bd
	str	r1, [fp, #-72]	@, %sfp
	str	r0, [fp, #-76]	@, %sfp
.L774:
	movw	lr, #:lower16:290508	@ tmp163,
	movt	lr, #:upper16:290508	@ tmp163,
	add	r3, r2, lr	@ tmp163, prephitmp.3237, tmp163
	cmp	sl, #0	@ tmp198,
	add	r2, r4, r3, asl #3	@, tmp167, pHevcCtx, tmp163,
	str	ip, [r2, #4]	@ idx, <variable>.DecPicPara.TileGroup
	ldreq	r5, [fp, #-60]	@, %sfp
	ldreq	r7, [r5, #0]	@ temp.3282, <variable>.CurrPPS.column_bd
	beq	.L767	@,
	ldr	r5, [fp, #-60]	@, %sfp
	ldr	r6, [fp, #-72]	@, %sfp
	ldr	r8, [fp, #-76]	@, %sfp
	ldr	r7, [r5, #0]	@ temp.3282, <variable>.CurrPPS.column_bd
	add	r5, r6, r8	@ ivtmp.3264,,
	mov	r8, #0	@ i,
	mov	r6, r4	@ pHevcCtx, pHevcCtx
.L768:
	cmp	r7, #0	@ temp.3282,
	beq	.L770	@,
	movw	r3, #:lower16:534936	@ tmp172,
	movt	r3, #:upper16:534936	@ tmp172,
	add	r4, ip, r3	@ tmp172, idx, tmp172
	sub	r2, r7, #1	@ tmp217, temp.3282,
	mov	r3, #1	@ j,
	cmp	r7, r3	@ temp.3282, j
	add	r1, r6, r4, asl #2	@, tmp175, pHevcCtx, tmp172,
	and	r0, r2, r3	@ tmp219, tmp217,
	add	r2, r1, #4	@ ivtmp.3260, tmp175,
	add	ip, ip, r3	@ idx, idx,
	str	r5, [r1, #4]	@ ivtmp.3264, <variable>.DecPicPara.TsToRsMap
	add	r1, r2, #4	@ ivtmp.3260, ivtmp.3260,
	bls	.L770	@,
	cmp	r0, #0	@ tmp219,
	beq	.L769	@,
	add	r4, r5, r3	@ tmp230, ivtmp.3264, j
	mov	r3, #2	@ j,
	cmp	r7, r3	@ temp.3282, j
	str	r4, [r2, #4]	@ tmp230, <variable>.DecPicPara.TsToRsMap
	add	ip, ip, #1	@ idx, idx,
	add	r1, r1, #4	@ ivtmp.3260, ivtmp.3260,
	bls	.L770	@,
.L769:
	add	r0, r3, #1	@ tmp221, j,
	add	lr, r5, r3	@ tmp170, ivtmp.3264, j
	add	r3, r0, #1	@ j, tmp221,
	mov	r2, r1	@ tmp222, ivtmp.3260
	cmp	r7, r3	@ temp.3282, j
	str	lr, [r2], #4	@ tmp170, <variable>.DecPicPara.TsToRsMap
	add	r4, r5, r0	@ tmp226, ivtmp.3264, tmp221
	add	ip, ip, #2	@ idx, idx,
	str	r4, [r1, #4]	@ tmp226, <variable>.DecPicPara.TsToRsMap
	add	r1, r2, #4	@ ivtmp.3260, tmp222,
	bhi	.L769	@,
.L770:
	add	r8, r8, #1	@ i, i,
	add	r5, r5, r9	@ ivtmp.3264, ivtmp.3264, picWidthInCtb
	cmp	sl, r8	@ tmp198, i
	bhi	.L768	@,
	mov	r4, r6	@ pHevcCtx, pHevcCtx
.L767:
	movw	r0, #:lower16:2356836	@,
	movt	r0, #:upper16:2356836	@,
	ldr	r3, [fp, #-64]	@, %sfp
	movw	r2, #:lower16:2117172	@,
	ldr	r1, [r4, r0]	@ <variable>.DecPicPara.TileNum, <variable>.DecPicPara.TileNum
	movt	r2, #:upper16:2117172	@,
	add	r5, r3, #1	@,,
	str	r5, [fp, #-64]	@, %sfp
	ldr	lr, [fp, #-64]	@, %sfp
	movw	r3, #:lower16:2324068	@ tmp181,
	ldr	r0, [r4, r2]	@ <variable>.CurrPPS.num_tile_columns, <variable>.CurrPPS.num_tile_columns
	movt	r3, #:upper16:2324068	@ tmp181,
	add	r2, r1, #1	@ prephitmp.3237, <variable>.DecPicPara.TileNum,
	add	r1, r4, r1, asl #3	@, tmp180, pHevcCtx, <variable>.DecPicPara.TileNum,
	cmp	r0, lr	@ <variable>.CurrPPS.num_tile_columns,
	add	lr, r1, r3	@ tmp181, tmp180, tmp181
	movw	r1, #:lower16:2356836	@,
	movt	r1, #:upper16:2356836	@,
	sub	r0, ip, #1	@ tmp182, idx,
	str	r2, [r4, r1]	@ prephitmp.3237, <variable>.DecPicPara.TileNum
	ldr	r5, [fp, #-60]	@, %sfp
	add	r5, r5, #4	@,,
	str	r5, [fp, #-60]	@, %sfp
	str	r0, [lr, #4]	@ tmp182, <variable>.DecPicPara.TileGroup
	ldrhi	r0, [fp, #-72]	@, %sfp
	addhi	r1, r0, r7	@,, temp.3282
	strhi	r1, [fp, #-72]	@, %sfp
	bhi	.L774	@
.L789:
	movw	lr, #:lower16:2117176	@ tmp188,
	movt	lr, #:upper16:2117176	@ tmp188,
	ldr	r2, [r4, lr]	@ prephitmp.3239, <variable>.CurrPPS.num_tile_rows
.L773:
	ldr	lr, [fp, #-68]	@, %sfp
	ldr	r3, [fp, #-52]	@, %sfp
	ldr	r1, [fp, #-48]	@, %sfp
	add	r0, lr, sl	@,, tmp198
	add	r5, r3, #1	@,,
	str	r0, [fp, #-68]	@, %sfp
	str	r5, [fp, #-52]	@, %sfp
	add	r5, r1, #4	@,,
	str	r5, [fp, #-48]	@, %sfp
	b	.L766	@
.L775:
	sub	sp, fp, #40
	ldmfd	sp, {r4, r5, r6, r7, r8, r9, sl, fp, sp, pc}
	.fnend
	.size	HEVC_CalcTileMap, .-HEVC_CalcTileMap
	.align	2
	.global	HEVC_CalcTileInfo
	.type	HEVC_CalcTileInfo, %function
HEVC_CalcTileInfo:
	.fnstart
.LFB1544:
	@ args = 0, pretend = 0, frame = 16
	@ frame_needed = 1, uses_anonymous_args = 0
	.movsp ip
	mov	ip, sp	@,
	stmfd	sp!, {r4, r5, r6, r7, r8, r9, sl, fp, ip, lr, pc}	@,
	.pad #4
	.save {r4, r5, r6, r7, r8, r9, sl, fp, ip, lr}
	.setfp fp, ip, #-4
	sub	fp, ip, #4	@,,
	.pad #28
	sub	sp, sp, #28	@,,
	push	{lr}
	bl	__gnu_mcount_nc
	movw	r5, #:lower16:2117172	@ tmp163,
	movt	r5, #:upper16:2117172	@ tmp163,
	mov	r9, r0	@ pHevcCtx, pHevcCtx
	movw	ip, #:lower16:2044524	@ tmp162,
	movt	ip, #:upper16:2044524	@ tmp162,
	ldr	r4, [r0, r5]	@, <variable>.CurrPPS.num_tile_columns
	movw	r0, #:lower16:2117176	@ tmp164,
	movt	r0, #:upper16:2117176	@ tmp164,
	str	r3, [fp, #-56]	@ TilePosY, %sfp
	sub	lr, r4, #1	@ tmp165,,
	mov	r5, r2	@ TilePosX, TilePosX
	str	r4, [fp, #-48]	@, %sfp
	cmp	lr, #19	@ tmp165,
	ldr	r0, [r9, r0]	@, <variable>.CurrPPS.num_tile_rows
	mov	r4, r1	@ TileId, TileId
	ldr	sl, [r9, ip]	@ D.39422, <variable>.CurrSPS.log2_ctb_sizeY
	str	r0, [fp, #-52]	@, %sfp
	bhi	.L828	@,
	ldr	r2, [fp, #-52]	@, %sfp
	sub	r3, r2, #1	@ tmp170,,
	cmp	r3, #21	@ tmp170,
	bhi	.L829	@,
	mov	r1, #4096	@,
	mov	r0, r4	@, TileId
	bl	__memzero	@
	movw	r8, #:lower16:2117708	@ ivtmp.3338,
	mov	r0, r5	@, TilePosX
	mov	r1, #160	@,
	movt	r8, #:upper16:2117708	@ ivtmp.3338,
	bl	__memzero	@
	mov	r7, #0	@ End,
	ldr	r0, [fp, #-56]	@, %sfp
	mov	r1, #176	@,
	sub	sl, sl, #4	@ pretmp.3301, D.39422,
	add	r8, r9, r8	@ ivtmp.3338, pHevcCtx, ivtmp.3338
	bl	__memzero	@
	mov	r3, r7	@ Start.3344, End
	mov	r1, r7	@ TileX, End
	movw	r0, #511	@ tmp200,
.L799:
	str	r7, [r5, #0]	@ End,* ivtmp.3337
	mov	r3, r3, asl sl	@ idx, Start.3344,
	ldr	r6, [r8, #0]	@ tmp176, <variable>.CurrPPS.column_bd
	add	r7, r7, r6	@ End, End, tmp176
	sub	r2, r7, #1	@ tmp177, End,
	str	r2, [r5, #4]	@ tmp177,
	mov	r6, r7, asl sl	@ D.39464, End,
	cmp	r6, r3	@ D.39464, idx
	ble	.L794	@,
	cmp	r3, r0	@ idx, tmp200
	bhi	.L795	@,
	mvn	lr, r3	@ tmp208, idx
	add	ip, lr, r6	@ tmp207, tmp208, D.39464
	tst	ip, #1	@ tmp207,
	add	r2, r4, r3, asl #2	@, ivtmp.3331, TileId, idx,
	beq	.L797	@,
	str	r1, [r4, r3, asl #2]	@ TileX,* TileId
	add	r3, r3, #1	@ idx, idx,
	cmp	r3, r0	@ idx, tmp200
	add	r2, r2, #4	@ ivtmp.3331, ivtmp.3331,
	bls	.L797	@,
	b	.L795	@
.L798:
	cmp	r3, r0	@ idx, tmp200
	bhi	.L795	@,
	add	r3, r3, #1	@ idx, idx,
	str	r1, [r2, #4]	@ TileX,
	cmp	r3, r0	@ idx, tmp200
	add	r2, ip, #4	@ ivtmp.3331, tmp210,
	bhi	.L795	@,
.L797:
	add	r3, r3, #1	@ idx, idx,
	str	r1, [r2, #0]	@ TileX,* ivtmp.3331
	cmp	r6, r3	@ D.39464, idx
	add	ip, r2, #4	@ tmp210, ivtmp.3331,
	bgt	.L798	@,
.L794:
	ldr	r3, [fp, #-48]	@, %sfp
	add	r1, r1, #1	@ TileX, TileX,
	add	r5, r5, #8	@ ivtmp.3337, ivtmp.3337,
	add	r8, r8, #4	@ ivtmp.3338, ivtmp.3338,
	cmp	r3, r1	@, TileX
	mov	r3, r7	@ Start.3344, End
	bgt	.L799	@,
	ldr	r7, [fp, #-56]	@ ivtmp.3323, %sfp
	mov	r6, #0	@ End.3346,
	movw	r1, #:lower16:2117964	@ ivtmp.3324,
	add	r8, r4, #2048	@ tmp197, TileId,
	movt	r1, #:upper16:2117964	@ ivtmp.3324,
	mov	r3, r6	@ Start, End.3346
	add	r5, r9, r1	@ ivtmp.3324, pHevcCtx, ivtmp.3324
	movw	r0, #511	@ tmp196,
	mov	r1, r6	@ TileY, End.3346
.L805:
	str	r6, [r7, #0]	@ End.3346,* ivtmp.3323
	mov	r3, r3, asl sl	@ idx.3347, Start,
	ldr	r2, [r5, #0]	@ tmp185, <variable>.CurrPPS.row_bd
	add	r6, r6, r2	@ End.3346, End.3346, tmp185
	sub	r4, r6, #1	@ tmp186, End.3346,
	str	r4, [r7, #4]	@ tmp186,
	mov	r4, r6, asl sl	@ temp.3342, End.3346,
	cmp	r4, r3	@ temp.3342, idx.3347
	ble	.L800	@,
	cmp	r3, r0	@ idx.3347, tmp196
	bhi	.L801	@,
	mvn	lr, r3	@ tmp203, idx.3347
	add	ip, lr, r4	@ tmp202, tmp203, temp.3342
	tst	ip, #1	@ tmp202,
	add	r2, r8, r3, asl #2	@, ivtmp.3317, tmp197, idx.3347,
	beq	.L803	@,
	str	r1, [r8, r3, asl #2]	@ TileY,
	add	r3, r3, #1	@ idx.3347, idx.3347,
	cmp	r3, r0	@ idx.3347, tmp196
	add	r2, r2, #4	@ ivtmp.3317, ivtmp.3317,
	bls	.L803	@,
	b	.L801	@
.L804:
	cmp	r3, r0	@ idx.3347, tmp196
	bhi	.L801	@,
	add	r3, r3, #1	@ idx.3347, idx.3347,
	str	r1, [r2, #4]	@ TileY,
	cmp	r3, r0	@ idx.3347, tmp196
	add	r2, ip, #4	@ ivtmp.3317, tmp205,
	bhi	.L801	@,
.L803:
	add	r3, r3, #1	@ idx.3347, idx.3347,
	str	r1, [r2, #0]	@ TileY,* ivtmp.3317
	cmp	r4, r3	@ temp.3342, idx.3347
	add	ip, r2, #4	@ tmp205, ivtmp.3317,
	bgt	.L804	@,
.L800:
	ldr	r4, [fp, #-52]	@, %sfp
	add	r1, r1, #1	@ TileY, TileY,
	add	r7, r7, #8	@ ivtmp.3323, ivtmp.3323,
	add	r5, r5, #4	@ ivtmp.3324, ivtmp.3324,
	cmp	r4, r1	@, TileY
	mov	r3, r6	@ Start, End.3346
	bgt	.L805	@,
	mov	r0, #0	@ D.39428,
	b	.L792	@
.L795:
	mov	r0, #1	@,
	movw	r1, #:lower16:.LC43	@,
	ldr	r2, .L830	@,
	movt	r1, #:upper16:.LC43	@,
	bl	dprint_vfmw	@
	mvn	r0, #0	@ D.39428,
.L792:
	sub	sp, fp, #40
	ldmfd	sp, {r4, r5, r6, r7, r8, r9, sl, fp, sp, pc}
.L801:
	mov	r0, #1	@,
	movw	r1, #:lower16:.LC44	@,
	ldr	r2, .L830	@,
	movt	r1, #:upper16:.LC44	@,
	bl	dprint_vfmw	@
	mvn	r0, #0	@ D.39428,
	b	.L792	@
.L829:
	mov	r3, r2	@,
	mov	r0, #1	@,
	movw	r1, #:lower16:.LC42	@,
	ldr	r2, .L830	@,
	movt	r1, #:upper16:.LC42	@,
	mov	lr, #22	@ tmp174,
	str	lr, [sp, #0]	@ tmp174,
	bl	dprint_vfmw	@
	mvn	r0, #0	@ D.39428,
	b	.L792	@
.L828:
	ldr	r3, [fp, #-48]	@, %sfp
	mov	r0, #1	@,
	movw	r1, #:lower16:.LC41	@,
	ldr	r2, .L830	@,
	movt	r1, #:upper16:.LC41	@,
	mov	ip, #20	@ tmp169,
	str	ip, [sp, #0]	@ tmp169,
	bl	dprint_vfmw	@
	mvn	r0, #0	@ D.39428,
	b	.L792	@
.L831:
	.align	2
.L830:
	.word	.LANCHOR1+196
	.fnend
	.size	HEVC_CalcTileInfo, .-HEVC_CalcTileInfo
	.align	2
	.global	HEVC_UnMarkFrameStoreRef
	.type	HEVC_UnMarkFrameStoreRef, %function
HEVC_UnMarkFrameStoreRef:
	.fnstart
.LFB1684:
	@ args = 0, pretend = 0, frame = 0
	@ frame_needed = 1, uses_anonymous_args = 0
	.movsp ip
	mov	ip, sp	@,
	stmfd	sp!, {fp, ip, lr, pc}	@,
	.pad #4
	.save {fp, ip, lr}
	.setfp fp, ip, #-4
	sub	fp, ip, #4	@,,
	push	{lr}
	bl	__gnu_mcount_nc
	mov	ip, #0	@ tmp135,
	mov	r3, r1	@ pFrameStore, pFrameStore
	mov	r2, ip	@, tmp135
	strb	ip, [r3, #1]	@ tmp135, <variable>.is_reference
	ldr	r1, [r1, #32]	@, <variable>.logic_fs_id
	ldr	r0, [r0, #236]	@, <variable>.ChanID
	bl	FSP_SetRef	@
	ldmfd	sp, {fp, sp, pc}	@
	.fnend
	.size	HEVC_UnMarkFrameStoreRef, .-HEVC_UnMarkFrameStoreRef
	.align	2
	.global	HEVC_UpdateReflist
	.type	HEVC_UpdateReflist, %function
HEVC_UpdateReflist:
	.fnstart
.LFB1620:
	@ args = 0, pretend = 0, frame = 16
	@ frame_needed = 1, uses_anonymous_args = 0
	.movsp ip
	mov	ip, sp	@,
	stmfd	sp!, {r4, r5, r6, r7, r8, r9, sl, fp, ip, lr, pc}	@,
	.pad #4
	.save {r4, r5, r6, r7, r8, r9, sl, fp, ip, lr}
	.setfp fp, ip, #-4
	sub	fp, ip, #4	@,,
	.pad #20
	sub	sp, sp, #20	@,,
	push	{lr}
	bl	__gnu_mcount_nc
	movw	r8, #:lower16:2128516	@ tmp160,
	movt	r8, #:upper16:2128516	@ tmp160,
	mov	r5, r0	@ pHevcCtx, pHevcCtx
	ldr	r9, [r0, r8]	@ <variable>.CurrSlice.short_term_ref_pic_set.num_negative_pics, <variable>.CurrSlice.short_term_ref_pic_set.num_negative_pics
	cmp	r9, #0	@ <variable>.CurrSlice.short_term_ref_pic_set.num_negative_pics,
	moveq	r6, r9	@ i, k
	beq	.L836	@,
	movw	r7, #:lower16:2128600	@ ivtmp.3435,
	movw	r6, #:lower16:1960396	@,
	movt	r7, #:upper16:2128600	@ ivtmp.3435,
	movt	r6, #:upper16:1960396	@,
	mov	r9, #0	@ k,
	add	r7, r0, r7	@ ivtmp.3435, pHevcCtx, ivtmp.3435
	add	r0, r0, r6	@, pHevcCtx,
	mov	r6, r9	@ i, k
	movw	r1, #:lower16:2125408	@,
	movw	r2, #:lower16:1960372	@,
	movt	r1, #:upper16:2125408	@,
	movt	r2, #:upper16:1960372	@,
	movw	r3, #:lower16:1960392	@,
	str	r0, [fp, #-48]	@, %sfp
	movt	r3, #:upper16:1960392	@,
	str	r1, [fp, #-52]	@, %sfp
	str	r2, [fp, #-56]	@, %sfp
	str	r3, [fp, #-60]	@, %sfp
.L843:
	ldr	ip, [r7, #0]	@ tmp163, <variable>.CurrSlice.short_term_ref_pic_set.used_flag
	cmp	ip, #0	@ tmp163,
	beq	.L837	@,
	ldr	r2, [fp, #-56]	@, %sfp
	ldr	r3, [fp, #-52]	@, %sfp
	ldr	r0, [r7, #64]	@ D.45142, <variable>.CurrSlice.short_term_ref_pic_set.delta_poc
	ldr	sl, [r5, r2]	@ temp.3459, <variable>.DPB.used_size
	ldr	r2, [r5, r3]	@ D.45141, <variable>.CurrSlice.poc
	cmp	sl, #0	@ temp.3459,
	beq	.L837	@,
	ldr	ip, [fp, #-60]	@, %sfp
	add	r0, r0, r2	@ poc, D.45142, D.45141
	ldr	r3, [r5, ip]	@ temp.3454, <variable>.DPB.fs
	ldr	r1, [r3, #12]	@ <variable>.poc, <variable>.poc
	cmp	r1, r0	@ <variable>.poc, poc
	moveq	r4, #0	@ j,
	beq	.L839	@,
	tst	sl, #1	@ temp.3459,
	ldr	r1, [fp, #-48]	@ ivtmp.3430, %sfp
	mov	r4, #0	@ j,
	bne	.L840	@,
	mov	r4, #1	@ j,
	cmp	r4, sl	@ j, temp.3459
	bcs	.L837	@,
	ldr	r1, [fp, #-48]	@ ivtmp.3430, %sfp
	ldr	r3, [r1], #4	@ temp.3454, <variable>.DPB.fs
	ldr	ip, [r3, #12]	@ <variable>.poc, <variable>.poc
	cmp	ip, r0	@ <variable>.poc, poc
	bne	.L840	@,
	b	.L839	@
.L842:
	ldr	r3, [r2], #4	@ temp.3454, <variable>.DPB.fs
	ldr	ip, [r3, #12]	@ <variable>.poc, <variable>.poc
	cmp	ip, r0	@ <variable>.poc, poc
	beq	.L839	@,
	ldr	r3, [r1, #4]	@ temp.3454, <variable>.DPB.fs
	add	r1, r2, #4	@ ivtmp.3430, tmp281,
	add	r4, r4, #1	@ j, j,
	ldr	r2, [r3, #12]	@ <variable>.poc, <variable>.poc
	cmp	r2, r0	@ <variable>.poc, poc
	beq	.L839	@,
.L840:
	add	r4, r4, #1	@ j, j,
	mov	r2, r1	@ tmp281, ivtmp.3430
	cmp	r4, sl	@ j, temp.3459
	bcc	.L842	@,
.L837:
	ldr	ip, [r5, r8]	@ <variable>.CurrSlice.short_term_ref_pic_set.num_negative_pics, <variable>.CurrSlice.short_term_ref_pic_set.num_negative_pics
	add	r6, r6, #1	@ i, i,
	add	r7, r7, #4	@ ivtmp.3435, ivtmp.3435,
	cmp	ip, r6	@ <variable>.CurrSlice.short_term_ref_pic_set.num_negative_pics, i
	bhi	.L843	@,
.L836:
	movw	r0, #:lower16:1960368	@ tmp196,
	movt	r0, #:upper16:1960368	@ tmp196,
	movw	r1, #:lower16:1960384	@ tmp195,
	movt	r1, #:upper16:1960384	@ tmp195,
	ldr	ip, [r5, r0]	@ temp.3457, <variable>.DPB.size
	str	r9, [r5, r1]	@ k, <variable>.DPB.negative_ref_frames_in_buffer
	cmp	r9, ip	@ k, temp.3457
	bcs	.L844	@,
	movw	r1, #:lower16:490114	@ tmp197,
	movt	r1, #:upper16:490114	@ tmp197,
	add	r0, r9, r1	@ tmp197, k, tmp197
	add	r1, r9, #1	@ k, k,
	mvn	r2, r9	@ tmp273, k
	cmp	r1, ip	@ k, temp.3457
	add	r3, r5, r0, asl #2	@, tmp200, pHevcCtx, tmp197,
	add	r0, r2, ip	@ tmp272, tmp273, temp.3457
	add	r2, r3, #4	@ ivtmp.3426, tmp200,
	and	r3, r0, #1	@ tmp274, tmp272,
	mov	r0, #0	@ tmp253,
	str	r0, [r2], #4	@ tmp253, <variable>.DPB.fs_negative_ref
	bcs	.L844	@,
	cmp	r3, #0	@ tmp274,
	beq	.L845	@,
	add	r1, r1, #1	@ k, k,
	str	r0, [r2], #4	@ tmp253, <variable>.DPB.fs_negative_ref
	cmp	r1, ip	@ k, temp.3457
	bcs	.L844	@,
.L845:
	add	r1, r1, #2	@ k, k,
	mov	r3, r2	@ tmp276, ivtmp.3426
	cmp	r1, ip	@ k, temp.3457
	str	r0, [r3], #4	@ tmp253, <variable>.DPB.fs_negative_ref
	str	r0, [r2, #4]	@ tmp253, <variable>.DPB.fs_negative_ref
	add	r2, r3, #4	@ ivtmp.3426, tmp276,
	bcc	.L845	@,
.L844:
	movw	r3, #:lower16:2128520	@ tmp202,
	movw	r1, #:lower16:2128516	@ tmp203,
	movt	r3, #:upper16:2128520	@ tmp202,
	movt	r1, #:upper16:2128516	@ tmp203,
	ldr	r2, [r5, r3]	@ <variable>.CurrSlice.short_term_ref_pic_set.num_positive_pics, <variable>.CurrSlice.short_term_ref_pic_set.num_positive_pics
	ldr	r0, [r5, r1]	@ <variable>.CurrSlice.short_term_ref_pic_set.num_negative_pics, <variable>.CurrSlice.short_term_ref_pic_set.num_negative_pics
	add	ip, r2, r0	@, <variable>.CurrSlice.short_term_ref_pic_set.num_positive_pics, <variable>.CurrSlice.short_term_ref_pic_set.num_negative_pics
	str	ip, [fp, #-48]	@, %sfp
	cmp	ip, r6	@, i
	movls	r9, #0	@ k.3453,
	bls	.L847	@,
	movw	r9, #:lower16:532148	@ tmp206,
	movt	r9, #:upper16:532148	@ tmp206,
	add	sl, r6, r9	@ tmp206, i, tmp206
	movw	r7, #:lower16:1960396	@ ivtmp.3414,
	movt	r7, #:upper16:1960396	@ ivtmp.3414,
	mov	r9, #0	@ k.3453,
	add	r1, r5, sl, asl #2	@, tmp209, pHevcCtx, tmp206,
	add	sl, r5, r7	@ ivtmp.3414, pHevcCtx, ivtmp.3414
	add	r7, r1, #8	@ ivtmp.3420, tmp209,
	movw	r2, #:lower16:2125408	@,
	movw	r0, #:lower16:1960372	@,
	movt	r2, #:upper16:2125408	@,
	movt	r0, #:upper16:1960372	@,
	movw	ip, #:lower16:1960392	@,
	str	r2, [fp, #-52]	@, %sfp
	movt	ip, #:upper16:1960392	@,
	str	r0, [fp, #-56]	@, %sfp
	str	ip, [fp, #-60]	@, %sfp
.L854:
	ldr	r3, [r7, #0]	@ tmp210, <variable>.CurrSlice.short_term_ref_pic_set.used_flag
	cmp	r3, #0	@ tmp210,
	beq	.L848	@,
	ldr	r0, [fp, #-56]	@, %sfp
	ldr	ip, [fp, #-52]	@, %sfp
	ldr	r8, [r5, r0]	@ D.45154, <variable>.DPB.used_size
	ldr	r2, [r5, ip]	@ temp.3443, <variable>.CurrSlice.poc
	cmp	r8, #0	@ D.45154,
	ldr	r0, [r7, #64]	@ temp.3444, <variable>.CurrSlice.short_term_ref_pic_set.delta_poc
	beq	.L848	@,
	ldr	r1, [fp, #-60]	@, %sfp
	add	r0, r0, r2	@ poc.3445, temp.3444, temp.3443
	ldr	r3, [r5, r1]	@ temp.3455, <variable>.DPB.fs
	ldr	r2, [r3, #12]	@ <variable>.poc, <variable>.poc
	cmp	r2, r0	@ <variable>.poc, poc.3445
	moveq	r4, #0	@ j.3441,
	beq	.L850	@,
	tst	r8, #1	@ D.45154,
	mov	r1, sl	@ ivtmp.3414, ivtmp.3414
	mov	r4, #0	@ j.3441,
	bne	.L851	@,
	mov	r4, #1	@ j.3441,
	cmp	r4, r8	@ j.3441, D.45154
	bcs	.L848	@,
	mov	r1, sl	@ ivtmp.3414, ivtmp.3414
	ldr	r3, [r1], #4	@ temp.3455, <variable>.DPB.fs
	ldr	ip, [r3, #12]	@ <variable>.poc, <variable>.poc
	cmp	ip, r0	@ <variable>.poc, poc.3445
	bne	.L851	@,
	b	.L850	@
.L853:
	ldr	r3, [r2], #4	@ temp.3455, <variable>.DPB.fs
	ldr	ip, [r3, #12]	@ <variable>.poc, <variable>.poc
	cmp	ip, r0	@ <variable>.poc, poc.3445
	beq	.L850	@,
	ldr	r3, [r1, #4]	@ temp.3455, <variable>.DPB.fs
	add	r1, r2, #4	@ ivtmp.3414, tmp271,
	add	r4, r4, #1	@ j.3441, j.3441,
	ldr	r2, [r3, #12]	@ <variable>.poc, <variable>.poc
	cmp	r2, r0	@ <variable>.poc, poc.3445
	beq	.L850	@,
.L851:
	add	r4, r4, #1	@ j.3441, j.3441,
	mov	r2, r1	@ tmp271, ivtmp.3414
	cmp	r4, r8	@ j.3441, D.45154
	bcc	.L853	@,
.L848:
	ldr	ip, [fp, #-48]	@, %sfp
	add	r6, r6, #1	@ i, i,
	add	r7, r7, #4	@ ivtmp.3420, ivtmp.3420,
	cmp	ip, r6	@, i
	bhi	.L854	@,
.L847:
	movw	r3, #:lower16:1960368	@ tmp237,
	movt	r3, #:upper16:1960368	@ tmp237,
	movw	r1, #:lower16:1960388	@ tmp236,
	movt	r1, #:upper16:1960388	@ tmp236,
	ldr	r0, [r5, r3]	@ D.45156, <variable>.DPB.size
	str	r9, [r5, r1]	@ k.3453, <variable>.DPB.positive_ref_frames_in_buffer
	cmp	r9, r0	@ k.3453, D.45156
	bcs	.L857	@,
	movw	r2, #:lower16:490132	@ tmp238,
	movt	r2, #:upper16:490132	@ tmp238,
	add	r1, r9, r2	@ tmp238, k.3453, tmp238
	add	r2, r9, #1	@ k.3453, k.3453,
	cmp	r2, r0	@ k.3453, D.45156
	mvn	r9, r9	@ tmp263, k.3453
	add	r5, r5, r1, asl #2	@, ivtmp.3410, pHevcCtx, tmp238,
	add	ip, r9, r0	@ tmp262, tmp263, D.45156
	mov	r1, #0	@ tmp245,
	and	r3, ip, #1	@ tmp264, tmp262,
	str	r1, [r5], #4	@ tmp245, <variable>.DPB.fs_positive_ref
	bcs	.L857	@,
	cmp	r3, #0	@ tmp264,
	beq	.L856	@,
	add	r2, r2, #1	@ k.3453, k.3453,
	str	r1, [r5], #4	@ tmp245, <variable>.DPB.fs_positive_ref
	cmp	r2, r0	@ k.3453, D.45156
	bcs	.L857	@,
.L856:
	add	r2, r2, #2	@ k.3453, k.3453,
	mov	r3, r5	@ tmp266, ivtmp.3410
	cmp	r2, r0	@ k.3453, D.45156
	str	r1, [r3], #4	@ tmp245, <variable>.DPB.fs_positive_ref
	str	r1, [r5, #4]	@ tmp245, <variable>.DPB.fs_positive_ref
	add	r5, r3, #4	@ ivtmp.3410, tmp266,
	bcc	.L856	@,
.L857:
	sub	sp, fp, #40
	ldmfd	sp, {r4, r5, r6, r7, r8, r9, sl, fp, sp, pc}
.L839:
	movw	sl, #:lower16:490098	@ tmp171,
	movt	sl, #:upper16:490098	@ tmp171,
	add	sl, r4, sl	@ tmp171, j, tmp171
	mov	r2, #1	@,
	strb	r2, [r3, #1]	@, <variable>.is_reference
	ldr	r3, [r5, sl, asl #2]	@ prephitmp.3392, <variable>.DPB.fs
	ldrb	r0, [r3, #1]	@ zero_extendqisi2	@ <variable>.is_reference, <variable>.is_reference
	cmp	r0, #0	@ <variable>.is_reference,
	bne	.L894	@,
.L841:
	movw	r2, #:lower16:490098	@ tmp179,
	movt	r2, #:upper16:490098	@ tmp179,
	add	ip, r4, r2	@ tmp179, j, tmp179
	mov	r0, #1	@,
	str	r0, [r3, #56]	@, <variable>.frame.is_short_term
	movw	r3, #:lower16:490114	@ tmp183,
	ldr	r1, [r5, ip, asl #2]	@ tmp181, <variable>.DPB.fs
	movt	r3, #:upper16:490114	@ tmp183,
	add	r3, r9, r3	@ tmp183, k, tmp183
	add	r9, r9, r0	@ k, k,
	mov	r0, #0	@,
	add	r6, r6, #1	@ i, i,
	str	r0, [r1, #52]	@, <variable>.frame.is_long_term
	add	r3, r5, r3, asl #2	@, tmp187, pHevcCtx, tmp183,
	ldr	r1, [r5, ip, asl #2]	@ tmp191, <variable>.DPB.fs
	add	r7, r7, #4	@ ivtmp.3435, ivtmp.3435,
	ldr	ip, [r5, r8]	@ <variable>.CurrSlice.short_term_ref_pic_set.num_negative_pics, <variable>.CurrSlice.short_term_ref_pic_set.num_negative_pics
	cmp	ip, r6	@ <variable>.CurrSlice.short_term_ref_pic_set.num_negative_pics, i
	str	r1, [r3, #4]	@ tmp191, <variable>.DPB.fs_negative_ref
	bhi	.L843	@,
	b	.L836	@
.L850:
	movw	r8, #:lower16:490098	@ tmp218,
	movt	r8, #:upper16:490098	@ tmp218,
	add	r8, r4, r8	@ tmp218, j.3441, tmp218
	mov	r2, #1	@,
	strb	r2, [r3, #1]	@, <variable>.is_reference
	ldr	r3, [r5, r8, asl #2]	@ prephitmp.3452, <variable>.DPB.fs
	ldrb	r0, [r3, #1]	@ zero_extendqisi2	@ <variable>.is_reference, <variable>.is_reference
	cmp	r0, #0	@ <variable>.is_reference,
	bne	.L895	@,
.L852:
	movw	r2, #:lower16:490098	@ tmp226,
	movt	r2, #:upper16:490098	@ tmp226,
	add	ip, r4, r2	@ tmp226, j.3441, tmp226
	mov	r0, #1	@,
	str	r0, [r3, #56]	@, <variable>.frame.is_short_term
	movw	r3, #:lower16:490132	@ tmp230,
