	.arch armv7-a
	.fpu softvfp
	.eabi_attribute 20, 1
	.eabi_attribute 21, 1
	.eabi_attribute 23, 3
	.eabi_attribute 24, 1
	.eabi_attribute 25, 1
	.eabi_attribute 26, 2
	.eabi_attribute 30, 2
	.eabi_attribute 18, 4
	.file	"mpeg4.c"
@ GNU C (Hisilicon_v200(gcc4.4-290+glibc-2.11+eabi+nptl)) version 4.4.1 (arm-hisiv200-linux-gnueabi)
@	compiled by GNU C version 4.1.1 20061011 (Red Hat 4.1.1-30), GMP version 4.3.1, MPFR version 2.4.2.
@ GGC heuristics: --param ggc-min-expand=100 --param ggc-min-heapsize=131072
@ options passed:  -nostdinc
@ -I/home/tangxiaodi/HiSTBAndroidV5/images_and_tools/release/hi3798mv100/verify/maintain_spc062/HiSTBAndroidV5_release/HiSTBAndroidV600R001C00SPC064/device/hisilicon/bigfish/sdk/source/kernel/linux-3.10.y/arch/arm/include
@ -Iarch/arm/include/generated
@ -I/home/tangxiaodi/HiSTBAndroidV5/images_and_tools/release/hi3798mv100/verify/maintain_spc062/HiSTBAndroidV5_release/HiSTBAndroidV600R001C00SPC064/device/hisilicon/bigfish/sdk/source/kernel/linux-3.10.y/include
@ -Iinclude
@ -I/home/tangxiaodi/HiSTBAndroidV5/images_and_tools/release/hi3798mv100/verify/maintain_spc062/HiSTBAndroidV5_release/HiSTBAndroidV600R001C00SPC064/device/hisilicon/bigfish/sdk/source/kernel/linux-3.10.y/arch/arm/include/uapi
@ -Iarch/arm/include/generated/uapi
@ -I/home/tangxiaodi/HiSTBAndroidV5/images_and_tools/release/hi3798mv100/verify/maintain_spc062/HiSTBAndroidV5_release/HiSTBAndroidV600R001C00SPC064/device/hisilicon/bigfish/sdk/source/kernel/linux-3.10.y/include/uapi
@ -Iinclude/generated/uapi
@ -I/home/tangxiaodi/HiSTBAndroidV5/images_and_tools/release/hi3798mv100/verify/maintain_spc062/HiSTBAndroidV5_release/HiSTBAndroidV600R001C00SPC064/device/hisilicon/bigfish/sdk/source/kernel/linux-3.10.y/drivers/msp/vfmw/vfmw_v4.0
@ -Idrivers/msp/vfmw/vfmw_v4.0
@ -I/home/tangxiaodi/HiSTBAndroidV5/images_and_tools/release/hi3798mv100/verify/maintain_spc062/HiSTBAndroidV5_release/HiSTBAndroidV600R001C00SPC064/device/hisilicon/bigfish/sdk/source/kernel/linux-3.10.y/arch/arm/mach-hi3798mx/include
@ -I/home/tangxiaodi/HiSTBAndroidV5/images_and_tools/release/hi3798mv100/verify/maintain_spc062/HiSTBAndroidV5_release/HiSTBAndroidV600R001C00SPC064/device/hisilicon/bigfish/sdk/source/kernel/linux-3.10.y/../../../source/common/include
@ -I/home/tangxiaodi/HiSTBAndroidV5/images_and_tools/release/hi3798mv100/verify/maintain_spc062/HiSTBAndroidV5_release/HiSTBAndroidV600R001C00SPC064/device/hisilicon/bigfish/sdk/source/kernel/linux-3.10.y/../../../source/common/drv/include
@ -I/home/tangxiaodi/HiSTBAndroidV5/images_and_tools/release/hi3798mv100/verify/maintain_spc062/HiSTBAndroidV5_release/HiSTBAndroidV600R001C00SPC064/device/hisilicon/bigfish/sdk/source/kernel/linux-3.10.y/../../../source/msp/drv/vfmw/vfmw_v4.0
@ -I/home/tangxiaodi/HiSTBAndroidV5/images_and_tools/release/hi3798mv100/verify/maintain_spc062/HiSTBAndroidV5_release/HiSTBAndroidV600R001C00SPC064/device/hisilicon/bigfish/sdk/source/kernel/linux-3.10.y/../../../source/msp/drv/vfmw/vfmw_v4.0/scene/stb
@ -I/home/tangxiaodi/HiSTBAndroidV5/images_and_tools/release/hi3798mv100/verify/maintain_spc062/HiSTBAndroidV5_release/HiSTBAndroidV600R001C00SPC064/device/hisilicon/bigfish/sdk/source/kernel/linux-3.10.y/../../../source/msp/drv/vfmw/vfmw_v4.0/firmware/common
@ -I/home/tangxiaodi/HiSTBAndroidV5/images_and_tools/release/hi3798mv100/verify/maintain_spc062/HiSTBAndroidV5_release/HiSTBAndroidV600R001C00SPC064/device/hisilicon/bigfish/sdk/source/kernel/linux-3.10.y/../../../source/msp/drv/vfmw/vfmw_v4.0/firmware/osal/linux_kernel
@ -I/home/tangxiaodi/HiSTBAndroidV5/images_and_tools/release/hi3798mv100/verify/maintain_spc062/HiSTBAndroidV5_release/HiSTBAndroidV600R001C00SPC064/device/hisilicon/bigfish/sdk/source/kernel/linux-3.10.y/../../../source/msp/drv/vfmw/vfmw_v4.0/firmware/common/softlib
@ -I/home/tangxiaodi/HiSTBAndroidV5/images_and_tools/release/hi3798mv100/verify/maintain_spc062/HiSTBAndroidV5_release/HiSTBAndroidV600R001C00SPC064/device/hisilicon/bigfish/sdk/source/kernel/linux-3.10.y/../../../source/msp/drv/vfmw/vfmw_v4.0/firmware/common/syntax
@ -I/home/tangxiaodi/HiSTBAndroidV5/images_and_tools/release/hi3798mv100/verify/maintain_spc062/HiSTBAndroidV5_release/HiSTBAndroidV600R001C00SPC064/device/hisilicon/bigfish/sdk/source/kernel/linux-3.10.y/../../../source/msp/drv/vfmw/vfmw_v4.0/firmware/driver/HiSCDV200
@ -I/home/tangxiaodi/HiSTBAndroidV5/images_and_tools/release/hi3798mv100/verify/maintain_spc062/HiSTBAndroidV5_release/HiSTBAndroidV600R001C00SPC064/device/hisilicon/bigfish/sdk/source/kernel/linux-3.10.y/../../../source/msp/drv/vfmw/vfmw_v4.0/firmware/driver/HiVDHV300R001
@ -I/home/tangxiaodi/HiSTBAndroidV5/images_and_tools/release/hi3798mv100/verify/maintain_spc062/HiSTBAndroidV5_release/HiSTBAndroidV600R001C00SPC064/device/hisilicon/bigfish/sdk/source/kernel/linux-3.10.y/../../../source/msp/drv/vfmw/vfmw_v4.0/firmware/product/Hi3798MV100
@ -I/home/tangxiaodi/HiSTBAndroidV5/images_and_tools/release/hi3798mv100/verify/maintain_spc062/HiSTBAndroidV5_release/HiSTBAndroidV600R001C00SPC064/device/hisilicon/bigfish/sdk/source/kernel/linux-3.10.y/../../../source/msp/drv/vfmw/vfmw_v4.0/firmware/common_test/vdecko
@ -imultilib armv7a_soft -iprefix
@ /opt/hisi-linux/x86-arm/arm-hisiv200-linux/bin/../lib/gcc/arm-hisiv200-linux-gnueabi/4.4.1/
@ -isysroot /opt/hisi-linux/x86-arm/arm-hisiv200-linux/bin/../target
@ -D__KERNEL__ -D__LINUX_ARM_ARCH__=7 -Uarm -DCHIP_TYPE_hi3796mv100
@ -DSDK_VERSION=HiSTBAndroidV600R001C00SPC064_v2016061301 -DHI_MCE_SUPPORT
@ -DHI_GPIOI2C_SUPPORT -DHI_LOG_SUPPORT=1 -DHI_LOG_LEVEL=4
@ -DHI_PROC_SUPPORT=1 -DHI_HDMI_SUPPORT_1_4 -DHI_KEYLED_SUPPORT
@ -DHI_HDCP_SUPPORT -DHI_SCI_SUPPORT -DHI_PVR_SUPPORT -DHI_VI_SUPPORT
@ -DHI_VENC_SUPPORT -DHI_AENC_SUPPORT -DHI_PQ_V3_0 -DENV_ARMLINUX_KERNEL
@ -DDNR_DISABLE -DSCD_MP4_SLICE_ENABLE -DSUPPORT_JPEG_444
@ -DVFMW_EXTRA_TYPE_DEFINE -DPRODUCT_STB -D__VFMW_REGISTER_ISR__
@ -DQ_MATRIX_FIXED -DVFMW_VDH_V300R001_SUPPORT -DCFG_SCD_TIME_OUT=2000
@ -DCFG_VDH_TIME_OUT=500 -DVFMW_H264_SUPPORT -DVFMW_HEVC_SUPPORT
@ -DVFMW_MVC_SUPPORT -DVFMW_MPEG2_SUPPORT -DVFMW_MPEG4_SUPPORT
@ -DVFMW_AVS_SUPPORT -DVFMW_VC1_SUPPORT -DVFMW_BPD_H_SUPPORT
@ -DVFMW_REAL8_SUPPORT -DVFMW_REAL9_SUPPORT -DVFMW_VP6_SUPPORT
@ -DVFMW_VP8_SUPPORT -DVFMW_DIVX3_SUPPORT -DVFMW_H263_SUPPORT
@ -DVFMW_JPEG_SUPPORT -DVFMW_RAW_SUPPORT -DVFMW_USER_SUPPORT
@ -DCFG_MAX_CHAN_NUM=16 -DVFMW_DPRINT_SUPPORT -DVFMW_SCD_LOWDLY_SUPPORT
@ -DVFMW_AVSPLUS_SUPPORT -DVFMW_MODULE_LOWDLY_SUPPORT
@ -DVFMW_SYSTEM_REG_DISABLE -DHI_VDEC_SVDEC_BUILTIN -DKBUILD_STR(s)=#s
@ -DKBUILD_BASENAME=KBUILD_STR(mpeg4) -DKBUILD_MODNAME=KBUILD_STR(hi_vfmw)
@ -isystem
@ /opt/hisi-linux/x86-arm/arm-hisiv200-linux/bin/../lib/gcc/arm-hisiv200-linux-gnueabi/4.4.1/include
@ -include
@ /home/tangxiaodi/HiSTBAndroidV5/images_and_tools/release/hi3798mv100/verify/maintain_spc062/HiSTBAndroidV5_release/HiSTBAndroidV600R001C00SPC064/device/hisilicon/bigfish/sdk/source/kernel/linux-3.10.y/include/linux/kconfig.h
@ -MD drivers/msp/vfmw/vfmw_v4.0/firmware/common/syntax/.mpeg4.o.d
@ /home/tangxiaodi/HiSTBAndroidV5/images_and_tools/release/hi3798mv100/verify/maintain_spc062/HiSTBAndroidV5_release/HiSTBAndroidV600R001C00SPC064/device/hisilicon/bigfish/sdk/source/kernel/linux-3.10.y/drivers/msp/vfmw/vfmw_v4.0/firmware/common/syntax/mpeg4.c
@ -mlittle-endian -mapcs -mno-sched-prolog -mabi=aapcs-linux
@ -mno-thumb-interwork -marm -march=armv7-a -msoft-float -auxbase-strip
@ drivers/msp/vfmw/vfmw_v4.0/firmware/common/syntax/mpeg4.o -O2 -Wall
@ -Wundef -Wstrict-prototypes -Wno-trigraphs
@ -Werror-implicit-function-declaration -Wno-format-security
@ -Wframe-larger-than=1024 -Wdeclaration-after-statement -Wno-pointer-sign
@ -p -fno-strict-aliasing -fno-common -fno-delete-null-pointer-checks
@ -fno-dwarf2-cfi-asm -funwind-tables -fno-stack-protector
@ -fno-omit-frame-pointer -fno-optimize-sibling-calls -fno-strict-overflow
@ -fconserve-stack -fno-pic -fverbose-asm
@ options enabled:  -falign-loops -fargument-alias -fauto-inc-dec
@ -fbranch-count-reg -fcaller-saves -fcprop-registers -fcrossjumping
@ -fcse-follow-jumps -fdefer-pop -fearly-inlining
@ -feliminate-unused-debug-types -fexpensive-optimizations
@ -fforward-propagate -ffunction-cse -fgcse -fgcse-lm
@ -fguess-branch-probability -fident -fif-conversion -fif-conversion2
@ -findirect-inlining -finline -finline-functions-called-once
@ -finline-small-functions -fipa-cp -fipa-pure-const -fipa-reference
@ -fira-share-save-slots -fira-share-spill-slots -fivopts
@ -fkeep-static-consts -fleading-underscore -fmath-errno -fmerge-constants
@ -fmerge-debug-strings -fmove-loop-invariants -foptimize-register-move
@ -fpeephole -fpeephole2 -fprofile -fpromote-loop-indices
@ -freg-struct-return -fregmove -frename-registers -freorder-blocks
@ -freorder-functions -frerun-cse-after-loop -fsched-interblock
@ -fsched-spec -fsched-stalled-insns-dep -fschedule-insns -fschedule-insns2
@ -fsection-anchors -fsigned-zeros -fsplit-ivs-in-unroller
@ -fsplit-wide-types -fthread-jumps -ftoplevel-reorder -ftrapping-math
@ -ftree-builtin-call-dce -ftree-ccp -ftree-ch -ftree-copy-prop
@ -ftree-copyrename -ftree-cselim -ftree-dce -ftree-dominator-opts
@ -ftree-dse -ftree-fre -ftree-loop-im -ftree-loop-ivcanon
@ -ftree-loop-optimize -ftree-parallelize-loops= -ftree-pre -ftree-reassoc
@ -ftree-scev-cprop -ftree-sink -ftree-sra -ftree-switch-conversion
@ -ftree-ter -ftree-vect-loop-version -ftree-vrp -funit-at-a-time
@ -funroll-loops -funwind-tables -fverbose-asm -fweb
@ -fzero-initialized-in-bss -mapcs-frame -mglibc -mlittle-endian

@ Compiler executable checksum: fa59e0bd179ef45b3a3c3e6f3383fdac

	.text
	.align	2
	.global	log2bin
	.type	log2bin, %function
log2bin:
	.fnstart
.LFB1528:
	@ args = 0, pretend = 0, frame = 0
	@ frame_needed = 1, uses_anonymous_args = 0
	.movsp ip
	mov	ip, sp	@,
	stmfd	sp!, {fp, ip, lr, pc}	@,
	.pad #4
	.save {fp, ip, lr}
	.setfp fp, ip, #-4
	sub	fp, ip, #4	@,,
	push	{lr}
	bl	__gnu_mcount_nc
	cmp	r0, #0	@ value
	ldmeqfd	sp, {fp, sp, pc}	@
	mov	r3, #0	@ n,
.L4:
	add	r3, r3, #1	@ tmp142, n,
	movs	r0, r0, lsr #1	@ value, value,
	uxth	r3, r3	@ n, tmp142
	bne	.L4	@,
	sxth	r0, r3	@ prephitmp.661, n
	ldmfd	sp, {fp, sp, pc}	@
	.fnend
	.size	log2bin, .-log2bin
	.global	__aeabi_idiv
	.align	2
	.global	MP4_GetGMCparam
	.type	MP4_GetGMCparam, %function
MP4_GetGMCparam:
	.fnstart
.LFB1530:
	@ args = 0, pretend = 0, frame = 64
	@ frame_needed = 1, uses_anonymous_args = 0
	.movsp ip
	mov	ip, sp	@,
	stmfd	sp!, {r4, r5, r6, r7, r8, r9, sl, fp, ip, lr, pc}	@,
	.pad #4
	.save {r4, r5, r6, r7, r8, r9, sl, fp, ip, lr}
	.setfp fp, ip, #-4
	sub	fp, ip, #4	@,,
	.pad #68
	sub	sp, sp, #68	@,,
	push	{lr}
	bl	__gnu_mcount_nc
	ldrb	r4, [r0, #65]	@ zero_extendqisi2	@ D.38649, <variable>.syn_vol.sprite_warping_accuracy
	mov	r9, #2	@ tmp205,
	mov	r6, r1	@ p_gmc, p_gmc
	mov	r2, r9, asl r4	@, tmp205,
	mov	r3, r0	@ p_syntax_des, p_syntax_des
	mov	r0, #16	@,
	str	r2, [fp, #-60]	@, %sfp
	mov	r1, r2	@,
	rsb	r4, r4, #3	@, D.38649,
	str	r3, [fp, #-104]	@,
	str	r4, [fp, #-88]	@, %sfp
	bl	__aeabi_idiv	@
	ldr	r3, [fp, #-104]	@,
	ldr	sl, [r3, #708]	@ D.38651, <variable>.image_width
	ldr	r9, [r3, #704]	@ D.38653, <variable>.image_height
	cmp	sl, #1	@ D.38651,
	mov	r8, sl, asl #4	@ tmp209, D.38651,
	str	r8, [r6, #8]	@ tmp209, <variable>.sW
	ldr	r7, [r3, #704]	@ <variable>.image_height, <variable>.image_height
	movle	r4, #0	@ alpha,
	mov	r5, r7, asl #4	@ tmp211, <variable>.image_height,
	str	r5, [r6, #12]	@ tmp211, <variable>.sH
	ldrb	r1, [r3, #65]	@ zero_extendqisi2	@ <variable>.syn_vol.sprite_warping_accuracy, <variable>.syn_vol.sprite_warping_accuracy
	str	r1, [r6, #4]	@ <variable>.syn_vol.sprite_warping_accuracy, <variable>.accuracy
	mov	r2, r0	@ r,
	ldrb	r0, [r3, #64]	@ zero_extendqisi2	@, <variable>.syn_vol.sprite_warping_points
	str	r0, [fp, #-68]	@, %sfp
	str	r0, [r6, #0]	@, <variable>.num_wp
	ldr	r1, [r3, #684]	@, <variable>.y
	ldr	ip, [r3, #680]	@ sprite_ref$0$0.735, <variable>.x
	str	r1, [fp, #-52]	@, %sfp
	ldr	r5, [r3, #692]	@, <variable>.y
	ldr	r0, [r3, #688]	@ D.38663, <variable>.x
	str	r5, [fp, #-48]	@, %sfp
	ldr	r7, [r3, #696]	@, <variable>.x
	str	r7, [fp, #-56]	@, %sfp
	movle	r7, #1	@ w2,
	ldr	lr, [r3, #700]	@ D.38666, <variable>.y
	ble	.L10	@,
	mov	r4, #0	@ alpha,
	mov	r1, #1	@ tmp366,
.L11:
	add	r4, r4, #1	@ alpha, alpha,
	mov	r7, r1, asl r4	@ w2, tmp366,
	cmp	sl, r7	@ D.38651, w2
	bgt	.L11	@,
.L10:
	cmp	r9, #1	@ D.38653,
	movgt	r5, #0	@ beta,
	movgt	r1, #1	@ tmp365,
	ble	.L44	@,
.L14:
	add	r5, r5, #1	@ beta, beta,
	mov	r8, r1, asl r5	@ h2, tmp365,
	cmp	r9, r8	@ D.38653, h2
	bgt	.L14	@,
	mov	r1, r8, asl #4	@, h2,
	str	r1, [fp, #-92]	@, %sfp
.L13:
	ldrb	r3, [r3, #12]	@ zero_extendqisi2	@ <variable>.FF_BUG_DIVX500B413, <variable>.FF_BUG_DIVX500B413
	cmp	r3, #1	@ <variable>.FF_BUG_DIVX500B413,
	beq	.L45	@,
	ldr	r3, [fp, #-52]	@, %sfp
	add	r0, r0, ip	@ tmp220, D.38663, sprite_ref$0$0.735
	ldr	r1, [fp, #-48]	@, %sfp
	add	r0, r0, sl, asl #1	@, tmp222, tmp220, D.38651,
	add	lr, lr, r3	@ tmp225, D.38666,
	add	r1, r1, r3	@,,
	str	r1, [fp, #-48]	@, %sfp
	ldr	r1, [fp, #-56]	@, %sfp
	add	lr, lr, r9, asl #1	@, tmp227, tmp225, D.38653,
	add	r3, r1, ip	@,, sprite_ref$0$0.735
	ldr	r1, [fp, #-60]	@, %sfp
	str	r3, [fp, #-56]	@, %sfp
	mov	r3, r1, asr #1	@ D.38702,,
	ldr	r1, [fp, #-52]	@, %sfp
	mul	lr, r3, lr	@, D.38702, tmp227
	mul	r1, r1, r3	@,, D.38702
	mul	r0, r3, r0	@ sprite_ref$1$0, D.38702, tmp222
	mul	ip, ip, r3	@ sprite_ref$0$0.735, sprite_ref$0$0.735, D.38702
	str	lr, [fp, #-84]	@, %sfp
	str	r1, [fp, #-52]	@, %sfp
	ldr	r1, [fp, #-48]	@, %sfp
	mul	r1, r1, r3	@,, D.38702
	str	r1, [fp, #-72]	@, %sfp
	ldr	r1, [fp, #-56]	@, %sfp
	mul	r1, r1, r3	@,, D.38702
	str	r1, [fp, #-80]	@, %sfp
.L16:
	rsb	r3, sl, sl, asl #28	@, tmp231, D.38651, D.38651,
	rsb	lr, r7, sl	@, w2, D.38651
	mul	r1, r2, ip	@, r, sprite_ref$0$0.735
	mov	r3, r3, asl #4	@ tmp232, tmp231,
	str	lr, [fp, #-64]	@, %sfp
	mla	r0, r2, r0, r3	@ tmp233, r, sprite_ref$1$0, tmp232
	str	r2, [fp, #-96]	@,
	str	ip, [fp, #-100]	@,
	mul	r3, lr, r1	@ tmp235,,
	str	r1, [fp, #-48]	@, %sfp
	mov	r1, sl	@, D.38651
	mla	r0, r7, r0, r3	@ D.38739, w2, tmp233, tmp235
	cmp	r0, #0	@ D.38739,
	movgt	r3, sl, asr #1	@, D.38651,
	movle	lr, sl, asr #1	@, D.38651,
	addgt	r0, r0, r3	@ iftmp.442, D.38739,
	rsble	r0, lr, r0	@ iftmp.442,, D.38739
	strgt	r3, [fp, #-76]	@, %sfp
	strle	lr, [fp, #-76]	@, %sfp
	bl	__aeabi_idiv	@
	ldr	r2, [fp, #-96]	@,
	ldr	r1, [fp, #-52]	@, %sfp
	ldr	lr, [fp, #-72]	@, %sfp
	mul	r3, r2, r7	@ tmp242, r, w2
	str	r2, [fp, #-96]	@,
	mul	r1, r2, r1	@, r,
	mul	ip, lr, r3	@ tmp243,, tmp242
	ldr	lr, [fp, #-64]	@, %sfp
	str	r1, [fp, #-56]	@, %sfp
	mla	r3, lr, r1, ip	@ D.38758,,, tmp243
	ldr	ip, [fp, #-100]	@,
	cmp	r3, #0	@ D.38758,
	str	ip, [fp, #-100]	@,
	ldrgt	r1, [fp, #-76]	@, %sfp
	ldrle	lr, [fp, #-76]	@, %sfp
	add	r0, r0, r7, asl #4	@,,, w2,
	str	r0, [fp, #-72]	@, %sfp
	addgt	r0, r1, r3	@ iftmp.443,, D.38758
	rsble	r0, lr, r3	@ iftmp.443,, D.38758
	mov	r1, sl	@, D.38651
	bl	__aeabi_idiv	@
	ldr	r2, [fp, #-96]	@,
	ldr	r1, [fp, #-80]	@, %sfp
	rsb	r3, r8, r9	@ D.38766, h2, D.38653
	mul	sl, r2, r8	@ tmp248, r, h2
	mul	ip, r1, sl	@ tmp249,, tmp248
	ldr	sl, [fp, #-56]	@, %sfp
	str	r0, [fp, #-64]	@, %sfp
	ldr	r0, [fp, #-48]	@, %sfp
	mla	r1, r3, r0, ip	@ D.38773, D.38766,, tmp249
	mov	r0, r9, asr #1	@ prephitmp.725, D.38653,
	mul	r3, r3, sl	@ tmp257, D.38766,
	ldr	sl, [fp, #-84]	@, %sfp
	cmp	r1, #0	@ D.38773,
	ldr	ip, [fp, #-100]	@,
	addgt	r1, r1, r0	@, D.38773, prephitmp.725
	rsble	r1, r0, r1	@, prephitmp.725, D.38773
	str	r1, [fp, #-48]	@, %sfp
	rsb	r1, r9, r9, asl #28	@, tmp253, D.38653, D.38653,
	mov	r1, r1, asl #4	@ tmp254, tmp253,
	mla	r1, r2, sl, r1	@ tmp255, r,, tmp254
	ldr	sl, [fp, #-68]	@, %sfp
	mla	r3, r8, r1, r3	@ D.38789, h2, tmp255, tmp257
	cmp	r3, #0	@ D.38789,
	addgt	r3, r0, r3	@ iftmp.445, prephitmp.725, D.38789
	rsble	r3, r0, r3	@ iftmp.445, prephitmp.725, D.38789
	mov	r0, sl	@ D.38660,
	mov	r1, r0, asr #31	@ D.38660
	cmp	r1, #0	@ D.38660,
	cmpeq	r0, #3	@ D.38660,
	bls	.L46	@,
.L25:
	ldr	r5, [r6, #16]	@ prephitmp.704, <variable>.dU
	mov	r4, #0	@ shift$0,
	ldr	r8, [r6, #32]	@ sprite_ref$0$0.724, <variable>.Uo
	mov	r3, r4	@ shift$1, shift$0
.L31:
	ldr	sl, [fp, #-60]	@, %sfp
	mov	ip, sl, asl r4	@ a.726,,
	cmp	r5, ip	@ prephitmp.704, a.726
	beq	.L35	@,
	ldr	r2, [r6, #20]	@ <variable>.dU, <variable>.dU
	ldr	r1, [r6, #24]	@ <variable>.dV, <variable>.dV
	ldr	r0, [r6, #28]	@ <variable>.dV, <variable>.dV
.L33:
	rsb	r4, r4, #16	@ shift_y, shift$0,
	ldr	ip, [r6, #36]	@ <variable>.Vo, <variable>.Vo
	mov	sl, r0, asl r4	@ tmp361, <variable>.dV,
	ldr	r5, [r6, #40]	@ <variable>.Uco, <variable>.Uco
	ldr	r7, [r6, #44]	@ <variable>.Vco, <variable>.Vco
	rsb	r3, r3, #16	@ shift_c, shift$1,
	ldr	r0, [r6, #16]	@ <variable>.dU, <variable>.dU
	mov	ip, ip, asl r4	@ tmp349, <variable>.Vo,
	mov	r8, r8, asl r4	@ tmp347, sprite_ref$0$0.724,
	str	ip, [r6, #36]	@ tmp349, <variable>.Vo
	mov	r7, r7, asl r3	@ tmp353, <variable>.Vco,
	mov	ip, r5, asl r3	@ tmp351, <variable>.Uco,
	mov	r0, r0, asl r4	@ tmp355, <variable>.dU,
	mov	r3, r2, asl r4	@ tmp357, <variable>.dU,
	str	sl, [r6, #28]	@ tmp361, <variable>.dV
	mov	r4, r1, asl r4	@ tmp359, <variable>.dV,
	str	r8, [r6, #32]	@ tmp347, <variable>.Uo
	str	r7, [r6, #44]	@ tmp353, <variable>.Vco
	str	ip, [r6, #40]	@ tmp351, <variable>.Uco
	str	r0, [r6, #16]	@ tmp355, <variable>.dU
	str	r3, [r6, #20]	@ tmp357, <variable>.dU
	str	r4, [r6, #24]	@ tmp359, <variable>.dV
.L36:
	sub	sp, fp, #40
	ldmfd	sp, {r4, r5, r6, r7, r8, r9, sl, fp, sp, pc}
.L46:
	cmp	r0, #3	@ D.38660,
	ldrls	pc, [pc, r0, asl #2]	@ D.38660
	b	.L25	@
.L30:
	.word	.L26
	.word	.L27
	.word	.L28
	.word	.L29
.L29:
	ldr	r0, [fp, #-88]	@, %sfp
	rsb	sl, r2, #0	@, r
	str	sl, [fp, #-68]	@, %sfp
	add	lr, r4, r0	@ tmp297, alpha,
	add	r1, lr, r5	@ tmp298, tmp297, beta
	cmp	r5, r4	@ beta, alpha
	movge	r5, r4	@ min_ab, alpha
	mul	r4, sl, ip	@,, sprite_ref$0$0.735
	mov	lr, #1	@,
	mov	sl, r8, asr r5	@ h3, h2,
	str	r4, [fp, #-56]	@, %sfp
	rsb	r4, r5, r1	@ shift$0, min_ab, tmp298
	sub	r0, r4, #1	@ tmp299, shift$0,
	ldr	r1, [fp, #-56]	@, %sfp
	mov	r8, lr, asl r0	@ D.38871,,
	ldr	r0, [fp, #-72]	@, %sfp
	mov	r5, r7, asr r5	@, w2,
	add	lr, r0, r1	@ tmp303,,
	ldr	r0, [fp, #-52]	@, %sfp
	add	r1, r8, r0, asl r4	@, tmp302, D.38871,,
	str	r1, [r6, #36]	@ tmp302, <variable>.Vo
	ldr	r0, [fp, #-48]	@, %sfp
	add	r8, r8, ip, asl r4	@, sprite_ref$0$0.724, D.38871, sprite_ref$0$0.735,
	mov	r1, r9	@, D.38653
	str	r8, [r6, #32]	@ sprite_ref$0$0.724, <variable>.Uo
	str	r5, [fp, #-48]	@, %sfp
	str	r2, [fp, #-96]	@,
	mul	r5, sl, lr	@ prephitmp.704, h3, tmp303
	str	r3, [fp, #-104]	@,
	str	ip, [fp, #-100]	@,
	bl	__aeabi_idiv	@
	ldr	ip, [fp, #-96]	@,
	rsb	r1, r7, r7, asl #28	@, tmp316, w2, w2,
	add	lr, r4, #1	@, shift$0,
	str	lr, [fp, #-76]	@, %sfp
	mov	r3, ip, asl #1	@ tmp309, r,
	ldr	ip, [fp, #-52]	@, %sfp
	mul	r2, r7, r3	@, w2, tmp309
	mov	r3, r1, asl #4	@ tmp317, tmp316,
	ldr	r1, [fp, #-68]	@, %sfp
	str	r2, [fp, #-72]	@, %sfp
	ldr	lr, [fp, #-72]	@, %sfp
	mul	r2, r1, ip	@ temp.731,,
	ldr	ip, [fp, #-64]	@, %sfp
	mul	r7, sl, lr	@, h3,
	mov	r1, r9	@, D.38653
	mul	r9, sl, r3	@ tmp318, h3, tmp317
	add	r3, ip, r2	@,, temp.731
	str	r3, [fp, #-64]	@, %sfp
	mov	lr, #1	@,
	ldr	r3, [fp, #-64]	@, %sfp
	str	r7, [fp, #-68]	@, %sfp
	ldr	r7, [fp, #-76]	@, %sfp
	ldr	ip, [fp, #-92]	@, %sfp
	add	r9, r9, lr, asl r7	@, D.38888, tmp318,,
	ldr	r7, [fp, #-100]	@,
	ldr	lr, [fp, #-68]	@, %sfp
	add	r2, r2, ip	@ tmp324, temp.731,
	mul	sl, sl, r3	@ D.38898, h3,
	ldr	r3, [fp, #-56]	@, %sfp
	mla	ip, lr, r7, r9	@ tmp320,, sprite_ref$0$0.735, D.38888
	ldr	lr, [fp, #-104]	@,
	add	r7, r0, r3	@ tmp308,,
	ldr	r3, [fp, #-48]	@, %sfp
	add	ip, ip, r5	@ tmp321, tmp320, prephitmp.704
	mov	r0, lr	@, iftmp.445
	mul	r7, r3, r7	@ D.38886,, tmp308
	add	lr, ip, r7	@ tmp322, tmp321, D.38886
	str	lr, [r6, #40]	@ tmp322, <variable>.Uco
	str	r2, [fp, #-96]	@,
	bl	__aeabi_idiv	@
	ldr	ip, [fp, #-52]	@, %sfp
	ldr	r3, [fp, #-68]	@, %sfp
	str	sl, [r6, #24]	@ D.38898, <variable>.dV
	str	r7, [r6, #20]	@ D.38886, <variable>.dU
	str	r5, [r6, #16]	@ prephitmp.704, <variable>.dU
	ldr	r7, [fp, #-96]	@,
	mla	r9, r3, ip, r9	@ tmp331,,, D.38888
	add	r3, r4, #2	@ shift$1, shift$0,
	add	sl, r9, sl	@ tmp332, tmp331, D.38898
	add	r2, r7, r0	@ tmp329, tmp324,
	ldr	r7, [fp, #-48]	@, %sfp
	mul	ip, r7, r2	@ D.38901,, tmp329
	add	r1, sl, ip	@ tmp333, tmp332, D.38901
	str	r1, [r6, #44]	@ tmp333, <variable>.Vco
	str	ip, [r6, #28]	@ D.38901, <variable>.dV
	b	.L31	@
.L28:
	ldr	r8, [fp, #-88]	@, %sfp
	rsb	r0, r7, r7, asl #28	@, tmp286, w2, w2,
	mov	sl, r2, asl #1	@ tmp280, r,
	ldr	r5, [fp, #-64]	@, %sfp
	add	r4, r4, r8	@ shift$0, alpha,
	mov	r3, r0, asl #4	@ tmp287, tmp286,
	mov	r8, #1	@ tmp276,
	sub	r0, r4, #1	@ tmp275, shift$0,
	add	r1, r4, r8	@ tmp281, shift$0,
	rsb	r2, r2, #0	@ D.38829, r
	mul	r7, r7, sl	@ D.38841, w2, tmp280
	add	r1, r3, r8, asl r1	@, D.38838, tmp287, tmp276,
	ldr	sl, [fp, #-52]	@, %sfp
	mov	r8, r8, asl r0	@ D.38820, tmp276,
	ldr	r0, [fp, #-72]	@, %sfp
	mla	r3, r2, sl, r5	@ D.38849, D.38829,,
	ldr	sl, [fp, #-64]	@, %sfp
	mla	r5, r2, ip, r0	@ prephitmp.704, D.38829, sprite_ref$0$0.735,
	ldr	r0, [fp, #-56]	@, %sfp
	rsb	r2, sl, r0	@ D.38824,,
	ldr	sl, [fp, #-52]	@, %sfp
	str	r3, [r6, #24]	@ D.38849, <variable>.dV
	str	r2, [r6, #20]	@ D.38824, <variable>.dU
	mla	r0, r7, sl, r1	@ tmp294, D.38841,, D.38838
	str	r5, [r6, #16]	@ prephitmp.704, <variable>.dU
	mla	r1, r7, ip, r1	@ tmp289, D.38841, sprite_ref$0$0.735, D.38838
	str	r5, [r6, #28]	@ prephitmp.704, <variable>.dV
	add	r0, r0, r5	@ tmp295, tmp294, prephitmp.704
	add	r7, r8, sl, asl r4	@, tmp278, D.38820,,
	add	r3, r0, r3	@ tmp296, tmp295, D.38849
	add	r8, r8, ip, asl r4	@, sprite_ref$0$0.724, D.38820, sprite_ref$0$0.735,
	add	r1, r1, r5	@ tmp290, tmp289, prephitmp.704
	str	r3, [r6, #44]	@ tmp296, <variable>.Vco
	add	sl, r1, r2	@ tmp291, tmp290, D.38824
	str	r7, [r6, #36]	@ tmp278, <variable>.Vo
	str	sl, [r6, #40]	@ tmp291, <variable>.Uco
	add	r3, r4, #2	@ shift$1, shift$0,
	str	r8, [r6, #32]	@ sprite_ref$0$0.724, <variable>.Uo
	b	.L31	@
.L27:
	ldr	r1, [fp, #-52]	@, %sfp
	and	r3, ip, #1	@ tmp267, sprite_ref$0$0.735,
	mov	r4, #0	@ tmp273,
	orr	r2, r3, ip, asr #1	@, tmp269, tmp267, sprite_ref$0$0.735,
	and	r8, r1, #1	@ tmp270,,
	str	r2, [r6, #40]	@ tmp269, <variable>.Uco
	orr	r5, r8, r1, asr #1	@, tmp272, tmp270,,
	str	ip, [r6, #32]	@ sprite_ref$0$0.735, <variable>.Uo
	str	r5, [r6, #44]	@ tmp272, <variable>.Vco
	str	r4, [r6, #24]	@ tmp273, <variable>.dV
	str	r1, [r6, #36]	@, <variable>.Vo
	ldr	r8, [fp, #-60]	@, %sfp
	str	r4, [r6, #20]	@ tmp273, <variable>.dU
	str	r8, [r6, #16]	@, <variable>.dU
	str	r8, [r6, #28]	@, <variable>.dV
.L32:
	mov	r8, ip	@ sprite_ref$0$0.724, sprite_ref$0$0.735
	ldr	ip, [fp, #-60]	@ a.726, %sfp
	mov	r4, #0	@ shift$0,
	mov	r3, r4	@ shift$1, shift$0
.L35:
	ldr	r2, [r6, #20]	@ <variable>.dU, <variable>.dU
	cmp	r2, #0	@ <variable>.dU,
	bne	.L47	@,
	ldr	r1, [r6, #24]	@ <variable>.dV, <variable>.dV
	cmp	r1, #0	@ <variable>.dV,
	ldrne	r0, [r6, #28]	@ <variable>.dV, <variable>.dV
	bne	.L33	@,
	ldr	r0, [r6, #28]	@ <variable>.dV, <variable>.dV
	cmp	ip, r0	@ a.726, <variable>.dV
	bne	.L33	@,
	ldr	ip, [r6, #36]	@ <variable>.Vo, <variable>.Vo
	mov	r8, r8, asr r4	@ tmp337, sprite_ref$0$0.724,
	ldr	r2, [r6, #40]	@ <variable>.Uco, <variable>.Uco
	mov	r5, #1	@ tmp346,
	ldr	r0, [r6, #44]	@ <variable>.Vco, <variable>.Vco
	mov	r4, ip, asr r4	@ tmp339, <variable>.Vo,
	str	r5, [r6, #0]	@ tmp346, <variable>.num_wp
	mov	ip, r2, asr r3	@ tmp341, <variable>.Uco,
	str	r8, [r6, #32]	@ tmp337, <variable>.Uo
	mov	r3, r0, asr r3	@ tmp343, <variable>.Vco,
	str	r4, [r6, #36]	@ tmp339, <variable>.Vo
	str	ip, [r6, #40]	@ tmp341, <variable>.Uco
	str	r3, [r6, #44]	@ tmp343, <variable>.Vco
	str	r1, [r6, #24]	@ <variable>.dV, <variable>.dV
	ldr	r2, [fp, #-60]	@, %sfp
	str	r1, [r6, #20]	@ <variable>.dV, <variable>.dU
	str	r2, [r6, #28]	@, <variable>.dV
	str	r2, [r6, #16]	@, <variable>.dU
	b	.L36	@
.L26:
	ldr	r0, [fp, #-60]	@, %sfp
	mov	r5, #0	@ tmp261,
	mov	ip, r5	@ sprite_ref$0$0.735, tmp261
	str	r5, [r6, #32]	@ tmp261, <variable>.Uo
	str	r5, [r6, #36]	@ tmp261, <variable>.Vo
	str	r0, [r6, #16]	@, <variable>.dU
	str	r5, [r6, #40]	@ tmp261, <variable>.Uco
	str	r5, [r6, #44]	@ tmp261, <variable>.Vco
	str	r5, [r6, #20]	@ tmp261, <variable>.dU
	str	r5, [r6, #24]	@ tmp261, <variable>.dV
	str	r0, [r6, #28]	@, <variable>.dV
	b	.L32	@
.L45:
	ldr	r3, [fp, #-52]	@, %sfp
	add	r0, r0, ip	@ tmp216, D.38663, sprite_ref$0$0.735
	ldr	r1, [fp, #-48]	@, %sfp
	add	lr, lr, r3	@ tmp218, D.38666,
	add	r1, r1, r3	@,,
	str	r1, [fp, #-72]	@, %sfp
	ldr	r1, [fp, #-56]	@, %sfp
	add	r3, r1, ip	@,, sprite_ref$0$0.735
	ldr	r1, [fp, #-60]	@, %sfp
	str	r3, [fp, #-80]	@, %sfp
	mla	lr, r9, r1, lr	@, D.38653,, tmp218
	mla	r0, sl, r1, r0	@ sprite_ref$1$0, D.38651,, tmp216
	str	lr, [fp, #-84]	@, %sfp
	b	.L16	@
.L47:
	ldr	r1, [r6, #24]	@ <variable>.dV, <variable>.dV
	ldr	r0, [r6, #28]	@ <variable>.dV, <variable>.dV
	b	.L33	@
.L44:
	mov	r1, #16	@,
	mov	r8, #1	@ h2,
	str	r1, [fp, #-92]	@, %sfp
	mov	r5, #0	@ beta,
	b	.L13	@
	.fnend
	.size	MP4_GetGMCparam, .-MP4_GetGMCparam
	.align	2
	.global	Mp4SearchStartCode
	.type	Mp4SearchStartCode, %function
Mp4SearchStartCode:
	.fnstart
.LFB1537:
	@ args = 0, pretend = 0, frame = 0
	@ frame_needed = 1, uses_anonymous_args = 0
	.movsp ip
	mov	ip, sp	@,
	stmfd	sp!, {fp, ip, lr, pc}	@,
	.pad #4
	.save {fp, ip, lr}
	.setfp fp, ip, #-4
	sub	fp, ip, #4	@,,
	push	{lr}
	bl	__gnu_mcount_nc
	cmp	r1, #4	@ CodeLen,
	movle	r0, #0	@ ofst,
	ldmlefd	sp, {fp, sp, pc}	@
	add	r1, r0, r1	@ pEnd, pCode, CodeLen
	add	r3, r0, #2	@ ptr, pCode,
.L64:
	cmp	r1, r3	@ pEnd, ptr
	bls	.L51	@,
.L65:
	ldrb	r2, [r3, #0]	@ zero_extendqisi2	@ byte,* ptr
	cmp	r2, #1	@ byte,
	bls	.L52	@,
	and	r2, r2, #252	@ tmp140, byte,
	cmp	r2, #128	@ tmp140,
	beq	.L53	@,
.L59:
	add	r3, r3, #3	@ ptr, ptr,
	cmp	r1, r3	@ pEnd, ptr
	bhi	.L65	@,
.L51:
	movw	ip, #:lower16:-2	@ tmp151,
	movt	ip, #:upper16:-2	@ tmp151,
	rsb	r3, r0, ip	@ tmp151, pCode, tmp151
	add	r0, r3, r1	@ ofst, tmp151, pEnd
	ldmfd	sp, {fp, sp, pc}	@
.L53:
	ldrb	r2, [r3, #-2]	@ zero_extendqisi2	@ tmp147,
	cmp	r2, #0	@ tmp147,
	bne	.L59	@,
	ldrb	ip, [r3, #-1]	@ zero_extendqisi2	@ tmp148,
	cmp	ip, #0	@ tmp148,
	bne	.L59	@,
	movw	r2, #:lower16:-2	@ tmp149,
	movt	r2, #:upper16:-2	@ tmp149,
	rsb	r1, r0, r2	@ tmp149, pCode, tmp149
	add	r0, r1, r3	@ ofst, tmp149, ptr
	ldmfd	sp, {fp, sp, pc}	@
.L52:
	cmp	r2, #0	@ byte,
	bne	.L55	@,
	ldrb	ip, [r3, #-1]	@ zero_extendqisi2	@ tmp141,
	cmp	ip, #0	@ tmp141,
	addeq	r3, r3, #1	@ ptr, ptr,
	beq	.L64	@,
	ldrb	r2, [r3, #1]	@ zero_extendqisi2	@ tmp142,
	cmp	r2, #0	@ tmp142,
	addeq	r3, r3, #2	@ ptr, ptr,
	addne	r3, r3, #4	@ ptr, ptr,
	b	.L64	@
.L55:
	cmp	r2, #1	@ byte,
	bne	.L53	@,
	ldrb	ip, [r3, #-2]	@ zero_extendqisi2	@ tmp143,
	cmp	ip, #0	@ tmp143,
	bne	.L59	@,
	ldrb	r2, [r3, #-1]	@ zero_extendqisi2	@ tmp144,
	cmp	r2, #0	@ tmp144,
	bne	.L59	@,
	movw	ip, #:lower16:-2	@ tmp145,
	movt	ip, #:upper16:-2	@ tmp145,
	rsb	r1, r0, ip	@ tmp145, pCode, tmp145
	add	r0, r1, r3	@ ofst, tmp145, ptr
	ldmfd	sp, {fp, sp, pc}	@
	.fnend
	.size	Mp4SearchStartCode, .-Mp4SearchStartCode
	.align	2
	.global	Mp4_RecordVFMWState
	.type	Mp4_RecordVFMWState, %function
Mp4_RecordVFMWState:
	.fnstart
.LFB1550:
	@ args = 0, pretend = 0, frame = 0
	@ frame_needed = 1, uses_anonymous_args = 0
	.movsp ip
	mov	ip, sp	@,
	stmfd	sp!, {fp, ip, lr, pc}	@,
	.pad #4
	.save {fp, ip, lr}
	.setfp fp, ip, #-4
	sub	fp, ip, #4	@,,
	push	{lr}
	bl	__gnu_mcount_nc
	ldmfd	sp, {fp, sp, pc}	@
	.fnend
	.size	Mp4_RecordVFMWState, .-Mp4_RecordVFMWState
	.align	2
	.global	Mp4_Get_DecMode
	.type	Mp4_Get_DecMode, %function
Mp4_Get_DecMode:
	.fnstart
.LFB1554:
	@ args = 0, pretend = 0, frame = 0
	@ frame_needed = 1, uses_anonymous_args = 0
	.movsp ip
	mov	ip, sp	@,
	stmfd	sp!, {fp, ip, lr, pc}	@,
	.pad #4
	.save {fp, ip, lr}
	.setfp fp, ip, #-4
	sub	fp, ip, #4	@,,
	push	{lr}
	bl	__gnu_mcount_nc
	movw	r1, #22092	@ tmp135,
	ldr	r3, [r0, r1]	@ <variable>.DecMode, <variable>.DecMode
	cmp	r3, #2	@ <variable>.DecMode,
	beq	.L77	@,
	movw	r3, #22060	@ tmp143,
	ldr	ip, [r0, r3]	@ <variable>.pstExtraData, <variable>.pstExtraData
	ldr	r3, [ip, #8]	@ temp.822, <variable>.s32DecMode
	cmp	r3, #2	@ temp.822,
	beq	.L70	@,
.L71:
	cmp	r3, #1	@ temp.822,
	beq	.L76	@,
	cmp	r3, #4	@ temp.822,
	movwne	r3, #22092	@ tmp150,
	movne	r2, #0	@ tmp151,
	strne	r2, [r0, r3]	@ tmp151, <variable>.DecMode
	ldmnefd	sp, {fp, sp, pc}	@
.L76:
	movw	ip, #22092	@ tmp148,
	str	r3, [r0, ip]	@ temp.822, <variable>.DecMode
	ldmfd	sp, {fp, sp, pc}	@
.L77:
	movw	r3, #22060	@ tmp138,
	ldr	ip, [r0, r3]	@ <variable>.pstExtraData, <variable>.pstExtraData
	ldr	r2, [ip, #8]	@ <variable>.s32DecMode, <variable>.s32DecMode
	cmp	r2, #2	@ <variable>.s32DecMode,
	beq	.L70	@,
	movw	r3, #22060	@ tmp143,
	movw	r1, #22600	@ tmp140,
	ldr	ip, [r0, r3]	@ <variable>.pstExtraData, <variable>.pstExtraData
	mov	r2, #1	@ tmp141,
	str	r2, [r0, r1]	@ tmp141, <variable>.IPVopErr
	ldr	r3, [ip, #8]	@ temp.822, <variable>.s32DecMode
	cmp	r3, #2	@ temp.822,
	bne	.L71	@,
.L70:
	movw	r1, #22092	@ tmp144,
	mov	r2, #2	@ tmp145,
	str	r2, [r0, r1]	@ tmp145, <variable>.DecMode
	ldmfd	sp, {fp, sp, pc}	@
	.fnend
	.size	Mp4_Get_DecMode, .-Mp4_Get_DecMode
	.align	2
	.global	GetTrailingOneLen
	.type	GetTrailingOneLen, %function
GetTrailingOneLen:
	.fnstart
.LFB1555:
	@ args = 0, pretend = 0, frame = 0
	@ frame_needed = 1, uses_anonymous_args = 0
	.movsp ip
	mov	ip, sp	@,
	stmfd	sp!, {fp, ip, lr, pc}	@,
	.pad #4
	.save {fp, ip, lr}
	.setfp fp, ip, #-4
	sub	fp, ip, #4	@,,
	push	{lr}
	bl	__gnu_mcount_nc
	add	r1, r0, r1	@ ptr, pCode, CodeLen
	ldrb	r3, [r1, #-1]	@ zero_extendqisi2	@ _c_temp,
	tst	r3, #1	@ _c_temp,
	moveq	r0, #1	@ _r_bit_len,
	ldmeqfd	sp, {fp, sp, pc}	@
	mov	r0, #0	@ _r_bit_len,
.L81:
	mov	r3, r3, lsr #1	@ _c_temp, _c_temp,
	add	r0, r0, #1	@ _r_bit_len, _r_bit_len,
	tst	r3, #1	@ _c_temp,
	bne	.L81	@,
	cmp	r0, #0	@ _r_bit_len,
	addne	r0, r0, #1	@ _r_bit_len, _r_bit_len,
	ldmfd	sp, {fp, sp, pc}	@
	.fnend
	.size	GetTrailingOneLen, .-GetTrailingOneLen
	.align	2
	.global	MP4_GetPacketState
	.type	MP4_GetPacketState, %function
MP4_GetPacketState:
	.fnstart
.LFB1564:
	@ args = 0, pretend = 0, frame = 0
	@ frame_needed = 1, uses_anonymous_args = 0
	.movsp ip
	mov	ip, sp	@,
	stmfd	sp!, {fp, ip, lr, pc}	@,
	.pad #4
	.save {fp, ip, lr}
	.setfp fp, ip, #-4
	sub	fp, ip, #4	@,,
	push	{lr}
	bl	__gnu_mcount_nc
	movw	r1, #19972	@ tmp136,
	ldr	r3, [r0, r1]	@ <variable>.IsWaitToDecFlag, <variable>.IsWaitToDecFlag
	cmp	r3, #1	@ <variable>.IsWaitToDecFlag,
	mvnne	r0, #0	@,,
	moveq	r0, #3	@,,
	ldmfd	sp, {fp, sp, pc}	@
	.fnend
	.size	MP4_GetPacketState, .-MP4_GetPacketState
	.align	2
	.global	MP4_Check_StreamType
	.type	MP4_Check_StreamType, %function
MP4_Check_StreamType:
	.fnstart
.LFB1572:
	@ args = 0, pretend = 0, frame = 0
	@ frame_needed = 1, uses_anonymous_args = 0
	.movsp ip
	mov	ip, sp	@,
	stmfd	sp!, {r3, r4, fp, ip, lr, pc}	@,
	.pad #4
	.save {r3, r4, fp, ip, lr}
	.setfp fp, ip, #-4
	sub	fp, ip, #4	@,,
	push	{lr}
	bl	__gnu_mcount_nc
	movw	r3, #15864	@ tmp136,
	ldrb	r2, [r0, r3]	@ zero_extendqisi2	@ tmp138,
	tst	r2, #1	@ tmp138,
	bne	.L89	@,
	movw	ip, #21277	@ tmp142,
	mov	r4, #2	@ tmp143,
	strb	r4, [r0, ip]	@ tmp143, <variable>.MP4Syntax.is_short_header
	ldr	r1, [r1, #0]	@ tmp146,* StartCode
	mov	ip, r1, lsr #8	@ tmp145, tmp146,
	sub	r1, ip, #128	@ tmp147, tmp145,
	cmp	r1, #3	@ tmp147,
	orrls	r2, r2, r4	@ tmp151, tmp138,
	strlsb	r2, [r0, r3]	@ tmp151,
	mov	r0, #0	@,
	ldmfd	sp, {r3, r4, fp, sp, pc}	@
.L89:
	movw	r3, #21277	@ tmp154,
	mov	ip, #196	@ tmp153,
	mov	r2, #1	@ tmp155,
	str	ip, [r1, #0]	@ tmp153,* StartCode
	strb	r2, [r0, r3]	@ tmp155,
	mov	r0, #0	@,
	ldmfd	sp, {r3, r4, fp, sp, pc}	@
	.fnend
	.size	MP4_Check_StreamType, .-MP4_Check_StreamType
	.align	2
	.global	MPEG4DEC_GetImageWidth
	.type	MPEG4DEC_GetImageWidth, %function
MPEG4DEC_GetImageWidth:
	.fnstart
.LFB1581:
	@ args = 0, pretend = 0, frame = 0
	@ frame_needed = 1, uses_anonymous_args = 0
	.movsp ip
	mov	ip, sp	@,
	stmfd	sp!, {fp, ip, lr, pc}	@,
	.pad #4
	.save {fp, ip, lr}
	.setfp fp, ip, #-4
	sub	fp, ip, #4	@,,
	push	{lr}
	bl	__gnu_mcount_nc
	movw	r3, #21976	@ tmp136,
	ldr	r0, [r0, r3]	@, <variable>.MP4Syntax.image_width
	ldmfd	sp, {fp, sp, pc}	@
	.fnend
	.size	MPEG4DEC_GetImageWidth, .-MPEG4DEC_GetImageWidth
	.align	2
	.global	MPEG4DEC_GetImageHeight
	.type	MPEG4DEC_GetImageHeight, %function
MPEG4DEC_GetImageHeight:
	.fnstart
.LFB1582:
	@ args = 0, pretend = 0, frame = 0
	@ frame_needed = 1, uses_anonymous_args = 0
	.movsp ip
	mov	ip, sp	@,
	stmfd	sp!, {fp, ip, lr, pc}	@,
	.pad #4
	.save {fp, ip, lr}
	.setfp fp, ip, #-4
	sub	fp, ip, #4	@,,
	push	{lr}
	bl	__gnu_mcount_nc
	movw	r3, #21972	@ tmp136,
	ldr	r0, [r0, r3]	@, <variable>.MP4Syntax.image_height
	ldmfd	sp, {fp, sp, pc}	@
	.fnend
	.size	MPEG4DEC_GetImageHeight, .-MPEG4DEC_GetImageHeight
	.align	2
	.global	Mp4_Combine_SliceData
	.type	Mp4_Combine_SliceData, %function
Mp4_Combine_SliceData:
	.fnstart
.LFB1569:
	@ args = 0, pretend = 0, frame = 0
	@ frame_needed = 1, uses_anonymous_args = 0
	.movsp ip
	mov	ip, sp	@,
	stmfd	sp!, {r3, r4, r5, r6, fp, ip, lr, pc}	@,
	.pad #4
	.save {r3, r4, r5, r6, fp, ip, lr}
	.setfp fp, ip, #-4
	sub	fp, ip, #4	@,,
	push	{lr}
	bl	__gnu_mcount_nc
	mov	ip, #19968	@ tmp144,
	mov	r3, r0	@ pCtx, pCtx
	ldr	r0, [r0, ip]	@ <variable>.PicIntegrality, <variable>.PicIntegrality
	mov	r2, #15616	@ tmp143,
	tst	r0, #2	@ <variable>.PicIntegrality,
	ldr	r2, [r3, r2]	@ SlcNum, <variable>.Mp4DecParam.SlcNum
	beq	.L97	@,
	movw	r0, #15709	@ tmp147,
	ldrb	r0, [r3, r0]	@ zero_extendqisi2	@ D.41546, <variable>.IsLastSeg
	cmp	r0, #1	@ D.41546,
	beq	.L108	@,
	cmp	r0, #0	@ D.41546,
	bne	.L105	@,
	movw	ip, #15789	@ tmp221,
	ldrb	r0, [r3, ip]	@ zero_extendqisi2	@ <variable>.IsLastSeg, <variable>.IsLastSeg
	cmp	r0, #1	@ <variable>.IsLastSeg,
	beq	.L109	@,
.L105:
	mov	r0, #1	@,
	movw	r1, #:lower16:.LC1	@,
	movw	r2, #4551	@,
	movt	r1, #:upper16:.LC1	@,
	bl	dprint_vfmw	@
	mvn	r0, #0	@ D.41553,
	ldmfd	sp, {r3, r4, r5, r6, fp, sp, pc}	@
.L108:
	sub	ip, r2, #1	@ tmp148, SlcNum,
	movw	r4, #510	@ tmp149,
	cmp	ip, r4	@ tmp148, tmp149
	bhi	.L110	@,
	mov	r2, ip, asl #3	@ tmp278, tmp148,
	rsb	r4, ip, r2	@ tmp154, tmp148, tmp278
	add	r4, r3, r4, asl #2	@, tmp156, pCtx, tmp154,
	ldr	r5, [r4, #1292]	@ D.41560, <variable>.bit_len
	cmp	r5, #0	@ D.41560,
	beq	.L101	@,
	ldr	r6, [r4, #1300]	@ D.41562, <variable>.phy_address
	cmp	r6, #0	@ D.41562,
	beq	.L101	@,
	movw	r2, #15716	@ tmp209,
	ldr	r3, [r3, r2]	@ <variable>.PhyAddr, <variable>.PhyAddr
	cmp	r6, r3	@ D.41562, <variable>.PhyAddr
	addls	r1, r5, r1, asl #3	@, tmp220, D.41560, CodeLen,
	strls	r1, [r4, #1292]	@ tmp220, <variable>.bit_len
	movls	r0, #0	@ D.41553,
	ldmlsfd	sp, {r3, r4, r5, r6, fp, sp, pc}	@
	movw	r1, #:lower16:.LC1	@,
	movw	r2, #4528	@,
	movt	r1, #:upper16:.LC1	@,
	bl	dprint_vfmw	@
	mvn	r0, #0	@ D.41553,
	ldmfd	sp, {r3, r4, r5, r6, fp, sp, pc}	@
.L101:
	rsb	ip, ip, r2	@ tmp169, tmp148, tmp278
	movw	r0, #15716	@ tmp165,
	ldr	r4, [r3, r0]	@ <variable>.PhyAddr, <variable>.PhyAddr
	add	ip, r3, ip, asl #2	@, tmp171, pCtx, tmp169,
	ldr	r2, [ip, #1296]	@ <variable>.phy_address, <variable>.phy_address
	cmp	r4, r2	@ <variable>.PhyAddr, <variable>.phy_address
	movls	r1, r1, asl #3	@ tmp199, CodeLen,
	strls	r1, [ip, #1292]	@ tmp199, <variable>.bit_len
	ldrls	r3, [r3, r0]	@ <variable>.PhyAddr, <variable>.PhyAddr
	movhi	r0, #0	@ D.41553,
	ldrhi	r3, [ip, #1288]	@ <variable>.bit_len, <variable>.bit_len
	movls	r0, #0	@ D.41553,
	addhi	r1, r3, r1, asl #3	@, tmp191, <variable>.bit_len, CodeLen,
	strls	r3, [ip, #1300]	@ <variable>.PhyAddr, <variable>.phy_address
	strhi	r1, [ip, #1288]	@ tmp191, <variable>.bit_len
	ldmfd	sp, {r3, r4, r5, r6, fp, sp, pc}	@
.L109:
	sub	ip, r2, #1	@ temp.979, SlcNum,
	rsb	r2, ip, ip, asl #3	@, tmp226, temp.979, temp.979,
	add	r2, r3, r2, asl #2	@, tmp228, pCtx, tmp226,
	ldr	r0, [r2, #1292]	@ <variable>.bit_len, <variable>.bit_len
	cmp	r0, #0	@ <variable>.bit_len,
	beq	.L111	@,
.L106:
	mvn	r0, #0	@ D.41553,
	ldmfd	sp, {r3, r4, r5, r6, fp, sp, pc}	@
.L97:
	mov	r0, #1	@,
	movw	r1, #:lower16:.LC1	@,
	movw	r2, #4557	@,
	movt	r1, #:upper16:.LC1	@,
	bl	dprint_vfmw	@
	mvn	r0, #0	@ D.41553,
	ldmfd	sp, {r3, r4, r5, r6, fp, sp, pc}	@
.L111:
	ldr	r0, [r2, #1300]	@ <variable>.phy_address, <variable>.phy_address
	cmp	r0, #0	@ <variable>.phy_address,
	bne	.L106	@,
	ldr	ip, [r2, #1288]	@ <variable>.bit_len, <variable>.bit_len
	add	r1, ip, r1, asl #3	@, tmp255, <variable>.bit_len, CodeLen,
	movw	ip, #15796	@ tmp263,
	str	r1, [r2, #1288]	@ tmp255, <variable>.bit_len
	ldr	r1, [r3, ip]	@ <variable>.PhyAddr, <variable>.PhyAddr
	movw	ip, #15800	@ tmp272,
	str	r1, [r2, #1300]	@ <variable>.PhyAddr, <variable>.phy_address
	ldr	r3, [r3, ip]	@ <variable>.LenInByte, <variable>.LenInByte
	mov	r1, r3, asl #3	@ tmp274, <variable>.LenInByte,
	str	r1, [r2, #1292]	@ tmp274, <variable>.bit_len
	ldmfd	sp, {r3, r4, r5, r6, fp, sp, pc}	@
.L110:
	movw	r1, #:lower16:.LC0	@,
	movt	r1, #:upper16:.LC0	@,
	bl	dprint_vfmw	@
	mvn	r0, #0	@ D.41553,
	ldmfd	sp, {r3, r4, r5, r6, fp, sp, pc}	@
	.fnend
	.size	Mp4_Combine_SliceData, .-Mp4_Combine_SliceData
	.align	2
	.global	Mp4_Check_Slice_NotSH
	.type	Mp4_Check_Slice_NotSH, %function
Mp4_Check_Slice_NotSH:
	.fnstart
.LFB1568:
	@ args = 0, pretend = 0, frame = 0
	@ frame_needed = 1, uses_anonymous_args = 0
	.movsp ip
	mov	ip, sp	@,
	stmfd	sp!, {fp, ip, lr, pc}	@,
	.pad #4
	.save {fp, ip, lr}
	.setfp fp, ip, #-4
	sub	fp, ip, #4	@,,
	push	{lr}
	bl	__gnu_mcount_nc
	movw	r1, #20019	@ tmp140,
	ldrb	r3, [r0, r1]	@ zero_extendqisi2	@ <variable>.MP4Vol.resync_marker_disable, <variable>.MP4Vol.resync_marker_disable
	movw	r2, #21208	@ tmp139,
	ldrb	r2, [r0, r2]	@ zero_extendqisi2	@ D.41518, <variable>.MP4Vop.vop_coding_type
	cmp	r3, #0	@ <variable>.MP4Vol.resync_marker_disable,
	bne	.L113	@,
	movw	r3, #15864	@ tmp142,
	ldrb	ip, [r0, r3]	@ zero_extendqisi2	@ tmp144,
	tst	ip, #120	@ tmp144,
	bne	.L113	@,
	ldrh	r3, [r0, r3]	@ tmp150,
	ubfx	r3, r3, #7, #4	@ D.41526, tmp150,,
	cmp	r2, #3	@ D.41518,
	ldrls	pc, [pc, r2, asl #2]	@ D.41518
	b	.L114	@
.L118:
	.word	.L115
	.word	.L116
	.word	.L117
	.word	.L116
.L117:
	movw	r2, #21216	@ tmp156,
	movw	r1, #21217	@ tmp155,
	ldrb	ip, [r0, r2]	@ zero_extendqisi2	@ <variable>.MP4Vop.vop_fcode_forward, <variable>.MP4Vop.vop_fcode_forward
	ldrb	r1, [r0, r1]	@ zero_extendqisi2	@ <variable>.MP4Vop.vop_fcode_backward, <variable>.MP4Vop.vop_fcode_backward
	cmp	r1, ip	@ <variable>.MP4Vop.vop_fcode_backward, <variable>.MP4Vop.vop_fcode_forward
	movcs	ip, r1	@ tmp160, <variable>.MP4Vop.vop_fcode_backward
	add	r2, ip, #16	@ StartCodeLen, tmp160,
	cmp	r2, #18	@ StartCodeLen,
	movlt	r2, #18	@ StartCodeLen,
.L119:
	add	r3, r3, #17	@ tmp162, D.41526,
	cmp	r2, r3	@ StartCodeLen, tmp162
	moveq	r0, #0	@ ret,
	ldmeqfd	sp, {fp, sp, pc}	@
.L113:
	mvn	r0, #0	@ ret,
	ldmfd	sp, {fp, sp, pc}	@
.L116:
	movw	r1, #21216	@ tmp152,
	ldrb	r2, [r0, r1]	@ zero_extendqisi2	@ <variable>.MP4Vop.vop_fcode_forward, <variable>.MP4Vop.vop_fcode_forward
	add	r2, r2, #16	@ StartCodeLen, <variable>.MP4Vop.vop_fcode_forward,
	b	.L119	@
.L115:
	mov	r2, #17	@ StartCodeLen,
	b	.L119	@
.L114:
	mov	r0, #1	@,
	movw	r1, #:lower16:.LC2	@,
	movt	r1, #:upper16:.LC2	@,
	bl	dprint_vfmw	@
	mvn	r0, #0	@ ret,
	ldmfd	sp, {fp, sp, pc}	@
	.fnend
	.size	Mp4_Check_Slice_NotSH, .-Mp4_Check_Slice_NotSH
	.align	2
	.global	MPEG4DEC_Destroy
	.type	MPEG4DEC_Destroy, %function
MPEG4DEC_Destroy:
	.fnstart
.LFB1557:
	@ args = 0, pretend = 0, frame = 0
	@ frame_needed = 1, uses_anonymous_args = 0
	.movsp ip
	mov	ip, sp	@,
	stmfd	sp!, {r3, r4, fp, ip, lr, pc}	@,
	.pad #4
	.save {r3, r4, fp, ip, lr}
	.setfp fp, ip, #-4
	sub	fp, ip, #4	@,,
	push	{lr}
	bl	__gnu_mcount_nc
	movw	r1, #:lower16:.LC3	@,
	mov	r4, r0	@ pCtx, pCtx
	movt	r1, #:upper16:.LC3	@,
	mov	r0, #2	@,
	bl	dprint_vfmw	@
	movw	r3, #22548	@ tmp135,
	mov	r2, #0	@ tmp136,
	str	r2, [r4, r3]	@ tmp136, <variable>.InitComplete
	ldmfd	sp, {r3, r4, fp, sp, pc}	@
	.fnend
	.size	MPEG4DEC_Destroy, .-MPEG4DEC_Destroy
	.align	2
	.global	MP4_Combine_HdPacket
	.type	MP4_Combine_HdPacket, %function
MP4_Combine_HdPacket:
	.fnstart
.LFB1579:
	@ args = 0, pretend = 0, frame = 0
	@ frame_needed = 1, uses_anonymous_args = 0
	.movsp ip
	mov	ip, sp	@,
	stmfd	sp!, {r3, r4, r5, r6, fp, ip, lr, pc}	@,
	.pad #4
	.save {r3, r4, r5, r6, fp, ip, lr}
	.setfp fp, ip, #-4
	sub	fp, ip, #4	@,,
	push	{lr}
	bl	__gnu_mcount_nc
	movw	r3, #22096	@ tmp139,
	ldr	r2, [r0, r3]	@ <variable>.VirAddr, <variable>.VirAddr
	mov	r4, r0	@ pCtx, pCtx
	cmp	r2, #0	@ <variable>.VirAddr,
	beq	.L134	@,
	movw	r2, #15709	@ tmp145,
	ldrb	r5, [r0, r2]	@ zero_extendqisi2	@ D.41984, <variable>.IsLastSeg
	cmp	r5, #1	@ D.41984,
	beq	.L135	@,
	cmp	r5, #0	@ D.41984,
	bne	.L132	@,
	movw	ip, #15789	@ tmp181,
	ldrb	lr, [r0, ip]	@ zero_extendqisi2	@ <variable>.IsLastSeg, <variable>.IsLastSeg
	cmp	lr, #1	@ <variable>.IsLastSeg,
	bne	.L132	@,
	movw	r3, #22112	@ tmp183,
	movw	r2, #15720	@ tmp184,
	ldr	ip, [r0, r2]	@ <variable>.LenInByte, <variable>.LenInByte
	add	r1, r0, #15744	@, pCtx,
	ldr	lr, [r0, r3]	@ <variable>.LenInByte, <variable>.LenInByte
	add	r0, r0, #22016	@, pCtx,
	add	r0, r0, #160	@,,
	add	r1, r1, #40	@,,
	add	r2, ip, lr	@ tmp188, <variable>.LenInByte, <variable>.LenInByte
	str	r2, [r4, r3]	@ tmp188, <variable>.LenInByte
	mov	r2, #80	@,
	bl	memcpy	@
	mov	r0, r5	@ D.41983, D.41984
	ldmfd	sp, {r3, r4, r5, r6, fp, sp, pc}	@
.L135:
	movw	r6, #22101	@ tmp146,
	ldrb	r5, [r0, r6]	@ zero_extendqisi2	@ D.41987, <variable>.IsLastSeg
	cmp	r5, #1	@ D.41987,
	beq	.L136	@,
	cmp	r5, #0	@ D.41987,
	bne	.L131	@,
	movw	r3, #22181	@ tmp172,
	ldrb	r2, [r0, r3]	@ zero_extendqisi2	@ <variable>.IsLastSeg, <variable>.IsLastSeg
	cmp	r2, #1	@ <variable>.IsLastSeg,
	bne	.L131	@,
	movw	r3, #22192	@ tmp174,
	movw	r0, #15720	@ tmp175,
	ldr	r1, [r4, r0]	@ <variable>.LenInByte, <variable>.LenInByte
	mov	r0, r5	@ D.41983, D.41987
	ldr	r2, [r4, r3]	@ <variable>.LenInByte, <variable>.LenInByte
	add	ip, r1, r2	@ tmp179, <variable>.LenInByte, <variable>.LenInByte
	str	ip, [r4, r3]	@ tmp179, <variable>.LenInByte
	ldmfd	sp, {r3, r4, r5, r6, fp, sp, pc}	@
.L132:
	movw	r2, #5075	@,
	mov	r0, #1	@,
	movw	r1, #:lower16:.LC1	@,
	movt	r1, #:upper16:.LC1	@,
	bl	dprint_vfmw	@
	mvn	r0, #0	@ D.41983,
	ldmfd	sp, {r3, r4, r5, r6, fp, sp, pc}	@
.L136:
	movw	r1, #15716	@ tmp147,
	ldr	ip, [r0, r1]	@ <variable>.PhyAddr, <variable>.PhyAddr
	movw	r0, #22108	@ tmp148,
	ldr	r3, [r4, r0]	@ <variable>.PhyAddr, <variable>.PhyAddr
	cmp	ip, r3	@ <variable>.PhyAddr, <variable>.PhyAddr
	blt	.L137	@,
	movw	r3, #22112	@ tmp166,
	movw	r0, #15720	@ tmp167,
	ldr	r1, [r4, r0]	@ <variable>.LenInByte, <variable>.LenInByte
	mov	r0, #0	@ D.41983,
	ldr	ip, [r4, r3]	@ <variable>.LenInByte, <variable>.LenInByte
	add	r2, r1, ip	@ tmp171, <variable>.LenInByte, <variable>.LenInByte
	str	r2, [r4, r3]	@ tmp171, <variable>.LenInByte
	ldmfd	sp, {r3, r4, r5, r6, fp, sp, pc}	@
.L131:
	mov	r0, #1	@,
	movw	r1, #:lower16:.LC1	@,
	movw	r2, #5063	@,
	movt	r1, #:upper16:.LC1	@,
	bl	dprint_vfmw	@
	mvn	r0, #0	@ D.41983,
	ldmfd	sp, {r3, r4, r5, r6, fp, sp, pc}	@
.L137:
	add	ip, r4, #22016	@, pCtx,
	add	lr, r4, #15680	@, pCtx,
	mov	r2, #80	@,
	add	r0, ip, #160	@,,
	add	r1, lr, #24	@,,
	bl	memcpy	@
	movw	r2, #22181	@ tmp163,
	mov	r0, #0	@ tmp161,
	strb	r0, [r4, r6]	@ tmp161, <variable>.IsLastSeg
	strb	r5, [r4, r2]	@ D.41987, <variable>.IsLastSeg
	ldmfd	sp, {r3, r4, r5, r6, fp, sp, pc}	@
.L134:
	movw	r0, #:lower16:g_event_report	@ tmp141,
	movt	r0, #:upper16:g_event_report	@ tmp141,
	ldr	ip, [r0, #0]	@ g_event_report.618, g_event_report
	cmp	ip, #0	@ g_event_report.618,
	beq	.L126	@,
	movw	r1, #22960	@ tmp142,
	mov	r3, r2	@,
	ldr	r0, [r4, r1]	@, <variable>.ChanID
	mov	r1, #103	@,
	blx	ip	@ g_event_report.618
.L126:
	mov	r0, #1	@,
	movw	r1, #:lower16:.LC4	@,
	movt	r1, #:upper16:.LC4	@,
	bl	dprint_vfmw	@
	mvn	r0, #0	@ D.41983,
	ldmfd	sp, {r3, r4, r5, r6, fp, sp, pc}	@
	.fnend
	.size	MP4_Combine_HdPacket, .-MP4_Combine_HdPacket
	.align	2
	.global	MP4_GetScdUpMsg
	.type	MP4_GetScdUpMsg, %function
MP4_GetScdUpMsg:
	.fnstart
.LFB1567:
	@ args = 0, pretend = 0, frame = 0
	@ frame_needed = 1, uses_anonymous_args = 0
	.movsp ip
	mov	ip, sp	@,
	stmfd	sp!, {fp, ip, lr, pc}	@,
	.pad #4
	.save {fp, ip, lr}
	.setfp fp, ip, #-4
	sub	fp, ip, #4	@,,
	push	{lr}
	bl	__gnu_mcount_nc
	movw	r3, #22060	@ tmp141,
	ldr	r3, [r0, r3]	@ D.41497, <variable>.pstExtraData
	add	r2, r0, #15808	@ tmp139, pCtx,
	add	r0, r0, #56576	@ tmp140, pCtx,
	ldr	ip, [r3, #864]	@ <variable>.stChanOption.u32DynamicFrameStoreAllocEn, <variable>.stChanOption.u32DynamicFrameStoreAllocEn
	cmp	ip, #1	@ <variable>.stChanOption.u32DynamicFrameStoreAllocEn,
	beq	.L142	@,
.L139:
	ldr	r3, [r1, #72]	@ tmp145,
	str	r3, [r2, #56]	@ tmp145,
	ldr	r2, [r1, #72]	@ tmp146,
	str	r2, [r0, #240]	@ tmp146,
	ldmfd	sp, {fp, sp, pc}	@
.L142:
	ldr	ip, [r3, #904]	@ <variable>.s32WaitFsFlag, <variable>.s32WaitFsFlag
	cmp	ip, #1	@ <variable>.s32WaitFsFlag,
	bne	.L139	@,
	ldr	r1, [r0, #240]	@ tmp144,
	str	r1, [r2, #56]	@ tmp144,
	ldmfd	sp, {fp, sp, pc}	@
	.fnend
	.size	MP4_GetScdUpMsg, .-MP4_GetScdUpMsg
	.align	2
	.global	MP4_ClearCurPic
	.type	MP4_ClearCurPic, %function
MP4_ClearCurPic:
	.fnstart
.LFB1566:
	@ args = 0, pretend = 0, frame = 0
	@ frame_needed = 1, uses_anonymous_args = 0
	.movsp ip
	mov	ip, sp	@,
	stmfd	sp!, {r3, r4, r5, r6, r7, r8, r9, sl, fp, ip, lr, pc}	@,
	.pad #4
	.save {r3, r4, r5, r6, r7, r8, r9, sl, fp, ip, lr}
	.setfp fp, ip, #-4
	sub	fp, ip, #4	@,,
	push	{lr}
	bl	__gnu_mcount_nc
	mov	sl, r0	@ pCtx, pCtx
	movw	r0, #19964	@ tmp167,
	movw	r3, #22960	@ tmp166,
	ldr	r8, [sl, r0]	@ StreamIDNum, <variable>.StreamIDNum
	ldr	r7, [sl, r3]	@ ChanID, <variable>.ChanID
	cmp	r8, #0	@ StreamIDNum,
	ble	.L144	@,
	add	r4, sl, #15808	@ tmp168, pCtx,
	mov	r0, r7	@, ChanID
	mov	r6, #1	@ i,
	sub	r9, r8, #1	@ tmp172, StreamIDNum,
	ldr	r1, [r4, #60]	@, <variable>.StreamID
	and	r9, r9, #1	@ tmp174, tmp172,
	bl	SM_ReleaseStreamSeg	@
	cmp	r8, r6	@ StreamIDNum,
	add	r5, r4, #64	@ ivtmp.1117, tmp168,
	ble	.L144	@,
	cmp	r9, #0	@ tmp174,
	beq	.L145	@,
	ldr	r1, [r5, #0]	@, <variable>.StreamID
	mov	r0, r7	@, ChanID
	bl	SM_ReleaseStreamSeg	@
	mov	r6, #2	@ i,
	cmp	r8, r6	@ StreamIDNum, i
	add	r5, r4, #68	@ ivtmp.1117, tmp168,
	ble	.L144	@,
.L145:
	mov	r4, r5	@ tmp176, ivtmp.1117
	add	r6, r6, #1	@ tmp175, i,
	ldr	r1, [r4], #4	@, <variable>.StreamID
	mov	r0, r7	@, ChanID
	bl	SM_ReleaseStreamSeg	@
	add	r6, r6, #1	@ i, tmp175,
	ldr	r1, [r5, #4]	@, <variable>.StreamID
	mov	r0, r7	@, ChanID
	bl	SM_ReleaseStreamSeg	@
	cmp	r8, r6	@ StreamIDNum, i
	add	r5, r4, #4	@ ivtmp.1117, tmp176,
	bgt	.L145	@,
.L144:
	movw	r1, #19964	@ tmp170,
	mov	r2, #0	@ tmp171,
	str	r2, [sl, r1]	@ tmp171, <variable>.StreamIDNum
	ldmfd	sp, {r3, r4, r5, r6, r7, r8, r9, sl, fp, sp, pc}	@
	.fnend
	.size	MP4_ClearCurPic, .-MP4_ClearCurPic
	.align	2
	.global	MP4_Clean_HeadPacket
	.type	MP4_Clean_HeadPacket, %function
MP4_Clean_HeadPacket:
	.fnstart
.LFB1576:
	@ args = 0, pretend = 0, frame = 0
	@ frame_needed = 1, uses_anonymous_args = 0
	.movsp ip
	mov	ip, sp	@,
	stmfd	sp!, {r4, r5, r6, r7, r8, sl, fp, ip, lr, pc}	@,
	.pad #4
	.save {r4, r5, r6, r7, r8, sl, fp, ip, lr}
	.setfp fp, ip, #-4
	sub	fp, ip, #4	@,,
	push	{lr}
	bl	__gnu_mcount_nc
	movw	r1, #22516	@ tmp140,
	ldr	r8, [r0, r1]	@ StreamIDNum, <variable>.stHdPktInfo.StreamIDNum
	movw	r3, #22960	@ tmp139,
	ldr	r7, [r0, r3]	@ ChanID, <variable>.ChanID
	cmp	r8, #64	@ StreamIDNum,
	movge	r8, #64	@ StreamIDNum.1150,
	cmp	r8, #0	@ StreamIDNum.1150,
	addle	sl, r0, #22016	@ tmp145, pCtx,
	ble	.L154	@,
	add	sl, r0, #22016	@ tmp145, pCtx,
	mov	r0, r7	@, ChanID
	mov	r6, #1	@ i,
	sub	r4, r8, #1	@ tmp146, StreamIDNum.1150,
	ldr	r1, [sl, #244]	@, <variable>.stHdPktInfo.StreamId
	and	r4, r4, #1	@ tmp148, tmp146,
	bl	SM_ReleaseStreamSeg	@
	cmp	r8, r6	@ StreamIDNum.1150,
	add	r5, sl, #248	@ ivtmp.1147, tmp145,
	ble	.L154	@,
	cmp	r4, #0	@ tmp148,
	beq	.L155	@,
	ldr	r1, [r5, #0]	@, <variable>.stHdPktInfo.StreamId
	mov	r0, r7	@, ChanID
	bl	SM_ReleaseStreamSeg	@
	mov	r6, #2	@ i,
	cmp	r8, r6	@ StreamIDNum.1150, i
	add	r5, sl, #252	@ ivtmp.1147, tmp145,
	ble	.L154	@,
.L155:
	mov	r4, r5	@ tmp150, ivtmp.1147
	add	r6, r6, #1	@ tmp149, i,
	ldr	r1, [r4], #4	@, <variable>.stHdPktInfo.StreamId
	mov	r0, r7	@, ChanID
	bl	SM_ReleaseStreamSeg	@
	add	r6, r6, #1	@ i, tmp149,
	ldr	r1, [r5, #4]	@, <variable>.stHdPktInfo.StreamId
	mov	r0, r7	@, ChanID
	bl	SM_ReleaseStreamSeg	@
	cmp	r8, r6	@ StreamIDNum.1150, i
	add	r5, r4, #4	@ ivtmp.1147, tmp150,
	bgt	.L155	@,
.L154:
	add	r0, sl, #80	@, tmp145,
	mov	r1, #440	@,
	bl	__memzero	@
	ldmfd	sp, {r4, r5, r6, r7, r8, sl, fp, sp, pc}	@
	.fnend
	.size	MP4_Clean_HeadPacket, .-MP4_Clean_HeadPacket
	.align	2
	.global	MP4_ClearCurPacket
	.type	MP4_ClearCurPacket, %function
MP4_ClearCurPacket:
	.fnstart
.LFB1565:
	@ args = 0, pretend = 0, frame = 0
	@ frame_needed = 1, uses_anonymous_args = 0
	.movsp ip
	mov	ip, sp	@,
	stmfd	sp!, {r4, r5, fp, ip, lr, pc}	@,
	.pad #4
	.save {r4, r5, fp, ip, lr}
	.setfp fp, ip, #-4
	sub	fp, ip, #4	@,,
	push	{lr}
	bl	__gnu_mcount_nc
	mov	r4, r1	@ pMp4Packet, pMp4Packet
	ldr	r1, [r1, #20]	@, <variable>.StreamID
	mov	r5, r0	@ ChanID, ChanID
	bl	SM_ReleaseStreamSeg	@
	ldrb	r3, [r4, #5]	@ zero_extendqisi2	@ <variable>.IsLastSeg, <variable>.IsLastSeg
	cmp	r3, #0	@ <variable>.IsLastSeg,
	bne	.L166	@,
	ldrb	r0, [r4, #85]	@ zero_extendqisi2	@ <variable>.IsLastSeg, <variable>.IsLastSeg
	cmp	r0, #1	@ <variable>.IsLastSeg,
	beq	.L168	@,
.L166:
	mov	r0, r4	@, pMp4Packet
	mov	r1, #160	@,
	bl	__memzero	@
	ldmfd	sp, {r4, r5, fp, sp, pc}	@
.L168:
	ldr	r1, [r4, #100]	@, <variable>.StreamID
	mov	r0, r5	@, ChanID
	bl	SM_ReleaseStreamSeg	@
	mov	r0, r4	@, pMp4Packet
	mov	r1, #160	@,
	bl	__memzero	@
	ldmfd	sp, {r4, r5, fp, sp, pc}	@
	.fnend
	.size	MP4_ClearCurPacket, .-MP4_ClearCurPacket
	.align	2
	.global	MP4_Record_PacketID
	.type	MP4_Record_PacketID, %function
MP4_Record_PacketID:
	.fnstart
.LFB1578:
	@ args = 0, pretend = 0, frame = 0
	@ frame_needed = 1, uses_anonymous_args = 0
	.movsp ip
	mov	ip, sp	@,
	stmfd	sp!, {r4, r5, fp, ip, lr, pc}	@,
	.pad #4
	.save {r4, r5, fp, ip, lr}
	.setfp fp, ip, #-4
	sub	fp, ip, #4	@,,
	push	{lr}
	bl	__gnu_mcount_nc
	movw	r5, #22516	@ tmp136,
	ldr	r3, [r0, r5]	@ D.41952, <variable>.stHdPktInfo.StreamIDNum
	mov	r4, r0	@ pCtx, pCtx
	cmp	r3, #62	@ D.41952,
	bgt	.L173	@,
	add	ip, r3, #5504	@ tmp144, D.41952,
	movw	r1, #15724	@ tmp150,
	add	r0, ip, #60	@ tmp144, tmp144,
	ldr	ip, [r4, r1]	@ <variable>.StreamID, <variable>.StreamID
	add	r3, r3, #1	@ D.41962, D.41952,
	str	r3, [r4, r5]	@ D.41962, <variable>.stHdPktInfo.StreamIDNum
	add	r2, r4, r0, asl #2	@, tmp148, pCtx, tmp144,
	movw	r0, #15709	@ tmp155,
	str	ip, [r2, #4]	@ <variable>.StreamID, <variable>.stHdPktInfo.StreamId
	ldrb	r2, [r4, r0]	@ zero_extendqisi2	@ <variable>.IsLastSeg, <variable>.IsLastSeg
	cmp	r2, #0	@ <variable>.IsLastSeg,
	ldmnefd	sp, {r4, r5, fp, sp, pc}	@
	movw	r0, #15789	@ tmp157,
	ldrb	r2, [r4, r0]	@ zero_extendqisi2	@ <variable>.IsLastSeg, <variable>.IsLastSeg
	cmp	r2, #1	@ <variable>.IsLastSeg,
	ldmnefd	sp, {r4, r5, fp, sp, pc}	@
	add	r2, r3, #5504	@ tmp159, D.41962,
	movw	r0, #15804	@ tmp165,
	add	ip, r2, #60	@ tmp159, tmp159,
	ldr	r1, [r4, r0]	@ <variable>.StreamID, <variable>.StreamID
	add	r3, r3, #1	@ tmp168, D.41962,
	str	r3, [r4, r5]	@ tmp168, <variable>.stHdPktInfo.StreamIDNum
	add	r4, r4, ip, asl #2	@, tmp163, pCtx, tmp159,
	str	r1, [r4, #4]	@ <variable>.StreamID, <variable>.stHdPktInfo.StreamId
	ldmfd	sp, {r4, r5, fp, sp, pc}	@
.L173:
	bl	MP4_Clean_HeadPacket	@
	movw	r3, #22960	@ tmp137,
	add	r1, r4, #15680	@, pCtx,
	ldr	r0, [r4, r3]	@, <variable>.ChanID
	add	r1, r1, #24	@,,
	bl	MP4_ClearCurPacket	@
	ldr	r2, [r4, r5]	@, <variable>.stHdPktInfo.StreamIDNum
	movw	r1, #:lower16:.LC5	@,
	mov	r3, #62	@,
	movt	r1, #:upper16:.LC5	@,
	mov	r0, #0	@,
	bl	dprint_vfmw	@
	ldmfd	sp, {r4, r5, fp, sp, pc}	@
	.fnend
	.size	MP4_Record_PacketID, .-MP4_Record_PacketID
	.align	2
	.global	MP4_Record_HeadPacketInfo
	.type	MP4_Record_HeadPacketInfo, %function
MP4_Record_HeadPacketInfo:
	.fnstart
.LFB1575:
	@ args = 0, pretend = 0, frame = 0
	@ frame_needed = 1, uses_anonymous_args = 0
	.movsp ip
	mov	ip, sp	@,
	stmfd	sp!, {r4, r5, r6, r7, fp, ip, lr, pc}	@,
	.pad #4
	.save {r4, r5, r6, r7, fp, ip, lr}
	.setfp fp, ip, #-4
	sub	fp, ip, #4	@,,
	push	{lr}
	bl	__gnu_mcount_nc
	subs	r4, r0, #0	@ pCtx, pCtx
	mov	r7, r1	@ StartCode, StartCode
	beq	.L179	@,
	add	r5, r4, #22016	@ tmp137, pCtx,
	add	r6, r4, #15680	@, pCtx,
	add	r1, r6, #24	@,,
	mov	r2, #160	@,
	add	r0, r5, #80	@, tmp137,
	movw	r6, #22524	@ tmp150,
	bl	memcpy	@
	add	r1, r4, #15808	@ tmp147, pCtx,
	ldr	r0, [r4, r6]	@ <variable>.stHdPktInfo.GetHeadFirstFlag, <variable>.stHdPktInfo.GetHeadFirstFlag
	movw	r2, #22520	@ tmp149,
	ldr	r3, [r1, #56]	@ <variable>.ScdUpMsg, <variable>.ScdUpMsg
	cmp	r0, #0	@ <variable>.stHdPktInfo.GetHeadFirstFlag,
	str	r7, [r4, r2]	@ StartCode, <variable>.stHdPktInfo.HeadCode
	str	r3, [r5, #240]	@ <variable>.ScdUpMsg, <variable>.stHdPktInfo.stScdUpMsg
	beq	.L180	@,
	mov	r3, #22528	@ tmp154,
	ldr	r2, [r4, r3]	@ <variable>.stHdPktInfo.CountVopNum, <variable>.stHdPktInfo.CountVopNum
	add	lr, r2, #1	@ tmp157, <variable>.stHdPktInfo.CountVopNum,
	str	lr, [r4, r3]	@ tmp157, <variable>.stHdPktInfo.CountVopNum
	ldmfd	sp, {r4, r5, r6, r7, fp, sp, pc}	@
.L180:
	mov	r0, r4	@, pCtx
	bl	MP4_Record_PacketID	@
	mov	r3, #22528	@ tmp154,
	ldr	r2, [r4, r3]	@ <variable>.stHdPktInfo.CountVopNum, <variable>.stHdPktInfo.CountVopNum
	mov	ip, #1	@ tmp153,
	str	ip, [r4, r6]	@ tmp153, <variable>.stHdPktInfo.GetHeadFirstFlag
	add	lr, r2, #1	@ tmp157, <variable>.stHdPktInfo.CountVopNum,
	str	lr, [r4, r3]	@ tmp157, <variable>.stHdPktInfo.CountVopNum
	ldmfd	sp, {r4, r5, r6, r7, fp, sp, pc}	@
.L179:
	movw	r1, #:lower16:.LC6	@,
	mov	r0, #1	@,
	movt	r1, #:upper16:.LC6	@,
	bl	dprint_vfmw	@
	ldmfd	sp, {r4, r5, r6, r7, fp, sp, pc}	@
	.fnend
	.size	MP4_Record_HeadPacketInfo, .-MP4_Record_HeadPacketInfo
	.align	2
	.global	MP4_Renew_CurPacket
	.type	MP4_Renew_CurPacket, %function
MP4_Renew_CurPacket:
	.fnstart
.LFB1580:
	@ args = 0, pretend = 0, frame = 0
	@ frame_needed = 1, uses_anonymous_args = 0
	.movsp ip
	mov	ip, sp	@,
	stmfd	sp!, {r4, r5, fp, ip, lr, pc}	@,
	.pad #4
	.save {r4, r5, fp, ip, lr}
	.setfp fp, ip, #-4
	sub	fp, ip, #4	@,,
	push	{lr}
	bl	__gnu_mcount_nc
	mov	r4, r0	@ pCtx, pCtx
	bl	MP4_Combine_HdPacket	@
	cmn	r0, #1	@ ret,
	mov	r5, r0	@ ret,
	beq	.L185	@,
	mov	r0, r4	@, pCtx
	add	r5, r4, #22016	@ tmp145, pCtx,
	bl	MP4_Record_PacketID	@
	add	r0, r4, #15680	@, pCtx,
	add	r1, r5, #80	@, tmp145,
	mov	r2, #160	@,
	add	r0, r0, #24	@,,
	add	r4, r4, #15744	@ tmp151, pCtx,
	bl	memcpy	@
	ldr	r2, [r5, #240]	@ <variable>.stHdPktInfo.stScdUpMsg, <variable>.stHdPktInfo.stScdUpMsg
	mov	r0, #0	@ D.42027,
	str	r2, [r4, #32]	@ <variable>.stHdPktInfo.stScdUpMsg, <variable>.stMp4UpMsg
	ldmfd	sp, {r4, r5, fp, sp, pc}	@
.L185:
	movw	r3, #22960	@ tmp137,
	add	r1, r4, #15680	@, pCtx,
	ldr	r0, [r4, r3]	@, <variable>.ChanID
	add	r1, r1, #24	@,,
	bl	MP4_ClearCurPacket	@
	mov	r0, #1	@,
	movw	r1, #:lower16:.LC7	@,
	movw	r2, #5090	@,
	movt	r1, #:upper16:.LC7	@,
	bl	dprint_vfmw	@
	mov	r0, r5	@ D.42027, ret
	ldmfd	sp, {r4, r5, fp, sp, pc}	@
	.fnend
	.size	MP4_Renew_CurPacket, .-MP4_Renew_CurPacket
	.align	2
	.global	MP4_Check_CurPacket
	.type	MP4_Check_CurPacket, %function
MP4_Check_CurPacket:
	.fnstart
.LFB1577:
	@ args = 0, pretend = 0, frame = 32
	@ frame_needed = 1, uses_anonymous_args = 0
	.movsp ip
	mov	ip, sp	@,
	stmfd	sp!, {r4, r5, fp, ip, lr, pc}	@,
	.pad #4
	.save {r4, r5, fp, ip, lr}
	.setfp fp, ip, #-4
	sub	fp, ip, #4	@,,
	.pad #32
	sub	sp, sp, #32	@,,
	push	{lr}
	bl	__gnu_mcount_nc
	movw	r5, #15704	@ tmp145,
	ldr	r1, [r0, r5]	@ D.42124, <variable>.VirAddr
	movw	r3, #15720	@ tmp147,
	movw	r2, #15716	@ tmp143,
	ldr	lr, [r0, r3]	@ D.42123, <variable>.LenInByte
	mov	r4, r0	@ pCtx, pCtx
	ldr	r0, [r0, r2]	@ <variable>.PhyAddr, <variable>.PhyAddr
	sub	r5, fp, #52	@ tmp151,,
	movw	ip, #22044	@ tmp146,
	movw	r3, #22056	@ tmp149,
	str	r1, [r4, ip]	@ D.42124, <variable>.BitsObj.vir_addr
	movw	r2, #22048	@ tmp142,
	movw	ip, #22052	@ tmp148,
	str	r0, [r4, r2]	@ <variable>.PhyAddr, <variable>.BitsObj.phy_addr
	mov	r2, lr	@, D.42123
	str	lr, [r4, ip]	@ D.42123, <variable>.BitsObj.len
	mov	r0, #0	@ tmp150,
	str	r0, [r4, r3]	@ tmp150, <variable>.BitsObj.offset
	mov	r0, r5	@, tmp151
	bl	BsInit	@
	mov	r0, r5	@, tmp151
	mov	r1, #32	@,
	bl	BsShow	@
	movw	r3, #15864	@ tmp153,
	ldrb	r2, [r4, r3]	@ zero_extendqisi2	@ tmp155,
	tst	r2, #1	@ tmp155,
	bne	.L187	@,
	mov	ip, r0, lsr #8	@ tmp162, StartCode,
	movw	lr, #21277	@ tmp159,
	sub	r1, ip, #128	@ tmp163, tmp162,
	mov	r5, #2	@ tmp160,
	cmp	r1, #3	@ tmp163,
	strb	r5, [r4, lr]	@ tmp160, <variable>.MP4Syntax.is_short_header
	movw	lr, #15864	@ tmp172,
	orrls	r2, r2, r5	@ tmp167, tmp155,
	strlsb	r2, [r4, r3]	@ tmp167,
	ldrb	r1, [r4, lr]	@ zero_extendqisi2	@ tmp174,
	tst	r1, #2	@ tmp174,
	beq	.L189	@,
.L208:
	movw	r2, #22520	@ tmp178,
	movw	ip, #438	@ tmp179,
	ldr	r3, [r4, r2]	@ D.41911, <variable>.stHdPktInfo.HeadCode
	cmp	r3, ip	@ D.41911, tmp179
	beq	.L190	@,
	cmp	r0, #196	@ StartCode,
	beq	.L190	@,
.L191:
	mov	r0, r4	@, pCtx
	bl	MP4_Renew_CurPacket	@
	movw	r1, #15704	@ tmp194,
	ldr	r3, [r4, r1]	@ <variable>.VirAddr, <variable>.VirAddr
	cmp	r3, #0	@ <variable>.VirAddr,
	bne	.L207	@,
.L199:
	mvn	r0, #0	@ ret,
.L200:
	sub	sp, fp, #20
	ldmfd	sp, {r4, r5, fp, sp, pc}
.L187:
	movw	r3, #21277	@ tmp169,
	movw	lr, #15864	@ tmp172,
	mov	r2, #1	@ tmp170,
	strb	r2, [r4, r3]	@ tmp170,
	ldrb	r1, [r4, lr]	@ zero_extendqisi2	@ tmp174,
	mov	r0, #196	@ StartCode,
	tst	r1, #2	@ tmp174,
	bne	.L208	@,
.L189:
	movw	ip, #22520	@ tmp187,
	movw	lr, #438	@ tmp188,
	ldr	r3, [r4, ip]	@ temp.1273, <variable>.stHdPktInfo.HeadCode
	cmp	r3, lr	@ temp.1273, tmp188
	beq	.L196	@,
	cmp	r0, #196	@ StartCode,
	beq	.L209	@,
.L197:
	mov	r0, r4	@, pCtx
	bl	MP4_Clean_HeadPacket	@
	mov	r0, #0	@ ret,
.L195:
	movw	r1, #15704	@ tmp194,
	ldr	r3, [r4, r1]	@ <variable>.VirAddr, <variable>.VirAddr
	cmp	r3, #0	@ <variable>.VirAddr,
	beq	.L199	@,
.L207:
	movw	ip, #15716	@ tmp196,
	ldr	lr, [r4, ip]	@ <variable>.PhyAddr, <variable>.PhyAddr
	cmp	lr, #0	@ <variable>.PhyAddr,
	bne	.L200	@,
	b	.L199	@
.L190:
	movw	lr, #22041	@ tmp180,
	ldrb	r1, [r4, lr]	@ zero_extendqisi2	@ <variable>.MP4SyntaxState.vop_decode_right, <variable>.MP4SyntaxState.vop_decode_right
	cmp	r1, #1	@ <variable>.MP4SyntaxState.vop_decode_right,
	beq	.L192	@,
	cmp	r0, #196	@ StartCode,
	bne	.L191	@,
.L192:
	movw	ip, #22524	@ tmp182,
	ldr	r0, [r4, ip]	@ <variable>.stHdPktInfo.GetHeadFirstFlag, <variable>.stHdPktInfo.GetHeadFirstFlag
	cmp	r0, #1	@ <variable>.stHdPktInfo.GetHeadFirstFlag,
	beq	.L210	@,
.L194:
	mov	r0, #0	@ ret,
	b	.L195	@
.L196:
	cmp	r0, r3	@ StartCode, temp.1273
	beq	.L203	@,
	mov	r0, #0	@ ret,
	b	.L195	@
.L210:
	movw	r2, #438	@ tmp184,
	cmp	r3, r2	@ D.41911, tmp184
	bne	.L194	@,
	movw	r1, #22112	@ tmp185,
	ldr	r3, [r4, r1]	@ <variable>.LenInByte, <variable>.LenInByte
	cmp	r3, #4	@ <variable>.LenInByte,
	beq	.L191	@,
	mov	r0, #0	@ ret,
	b	.L195	@
.L209:
	cmp	r3, #196	@ temp.1273,
	bne	.L194	@,
.L203:
	mov	r2, #22528	@ tmp192,
	ldr	r0, [r4, r2]	@ <variable>.stHdPktInfo.CountVopNum, <variable>.stHdPktInfo.CountVopNum
	cmp	r0, #1	@ <variable>.stHdPktInfo.CountVopNum,
	bgt	.L197	@,
	mov	r0, #0	@ ret,
	b	.L195	@
	.fnend
	.size	MP4_Check_CurPacket, .-MP4_Check_CurPacket
	.align	2
	.global	MP4_Record_SlcSegID
	.type	MP4_Record_SlcSegID, %function
MP4_Record_SlcSegID:
	.fnstart
.LFB1574:
	@ args = 0, pretend = 0, frame = 0
	@ frame_needed = 1, uses_anonymous_args = 0
	.movsp ip
	mov	ip, sp	@,
	stmfd	sp!, {r3, r4, r5, r6, fp, ip, lr, pc}	@,
	.pad #4
	.save {r3, r4, r5, r6, fp, ip, lr}
	.setfp fp, ip, #-4
	sub	fp, ip, #4	@,,
	push	{lr}
	bl	__gnu_mcount_nc
	movw	r6, #19964	@ tmp136,
	ldr	r3, [r0, r6]	@ D.41838, <variable>.StreamIDNum
	movw	r4, #1022	@ tmp137,
	mov	r5, r0	@ pCtx, pCtx
	cmp	r3, r4	@ D.41838, tmp137
	bhi	.L215	@,
	add	ip, r3, #3952	@ tmp145, D.41838,
	movw	r1, #15724	@ tmp151,
	add	r0, ip, #14	@ tmp145, tmp145,
	ldr	ip, [r5, r1]	@ <variable>.StreamID, <variable>.StreamID
	add	r3, r3, #1	@ D.41847, D.41838,
	str	r3, [r5, r6]	@ D.41847, <variable>.StreamIDNum
	add	r2, r5, r0, asl #2	@, tmp149, pCtx, tmp145,
	movw	r0, #15709	@ tmp156,
	str	ip, [r2, #4]	@ <variable>.StreamID, <variable>.StreamID
	ldrb	r2, [r5, r0]	@ zero_extendqisi2	@ <variable>.IsLastSeg, <variable>.IsLastSeg
	cmp	r2, #0	@ <variable>.IsLastSeg,
	ldmnefd	sp, {r3, r4, r5, r6, fp, sp, pc}	@
	movw	r0, #15789	@ tmp158,
	ldrb	r2, [r5, r0]	@ zero_extendqisi2	@ <variable>.IsLastSeg, <variable>.IsLastSeg
	cmp	r2, #1	@ <variable>.IsLastSeg,
	ldmnefd	sp, {r3, r4, r5, r6, fp, sp, pc}	@
	add	r2, r3, #3952	@ tmp160, D.41847,
	movw	r0, #15804	@ tmp166,
	add	ip, r2, #14	@ tmp160, tmp160,
	ldr	r1, [r5, r0]	@ <variable>.StreamID, <variable>.StreamID
	add	r3, r3, #1	@ tmp169, D.41847,
	str	r3, [r5, r6]	@ tmp169, <variable>.StreamIDNum
	add	r5, r5, ip, asl #2	@, tmp164, pCtx, tmp160,
	str	r1, [r5, #4]	@ <variable>.StreamID, <variable>.StreamID
	ldmfd	sp, {r3, r4, r5, r6, fp, sp, pc}	@
.L215:
	bl	MP4_Clean_HeadPacket	@
	mov	r0, r5	@, pCtx
	bl	MP4_ClearCurPic	@
	movw	r3, #22960	@ tmp138,
	add	r1, r5, #15680	@, pCtx,
	ldr	r0, [r5, r3]	@, <variable>.ChanID
	add	r1, r1, #24	@,,
	bl	MP4_ClearCurPacket	@
	ldr	r2, [r5, r6]	@, <variable>.StreamIDNum
	mov	r3, r4	@, tmp137
	movw	r1, #:lower16:.LC5	@,
	mov	r0, #0	@,
	movt	r1, #:upper16:.LC5	@,
	bl	dprint_vfmw	@
	ldmfd	sp, {r3, r4, r5, r6, fp, sp, pc}	@
	.fnend
	.size	MP4_Record_SlcSegID, .-MP4_Record_SlcSegID
	.align	2
	.global	Mp4_Syntax_Init
	.type	Mp4_Syntax_Init, %function
Mp4_Syntax_Init:
	.fnstart
.LFB1533:
	@ args = 0, pretend = 0, frame = 0
	@ frame_needed = 1, uses_anonymous_args = 0
	.movsp ip
	mov	ip, sp	@,
	stmfd	sp!, {r3, r4, r5, r6, fp, ip, lr, pc}	@,
	.pad #4
	.save {r3, r4, r5, r6, fp, ip, lr}
	.setfp fp, ip, #-4
	sub	fp, ip, #4	@,,
	push	{lr}
	bl	__gnu_mcount_nc
	add	r5, r0, #19968	@ tmp141, pCtx,
	mov	r4, r0	@ pCtx, pCtx
	mov	r1, #24	@,
	add	r0, r5, #8	@, tmp141,
	add	r6, r4, #20992	@, pCtx,
	bl	__memzero	@
	add	r0, r5, #32	@, tmp141,
	mov	r1, #604	@,
	movw	r5, #22600	@ tmp153,
	bl	__memzero	@
	add	r0, r6, #216	@,,
	mov	r1, #60	@,
	bl	__memzero	@
	add	r3, r4, #21248	@, pCtx,
	add	r0, r3, #20	@,,
	mov	r1, #768	@,
	bl	__memzero	@
	add	r1, r4, #22016	@, pCtx,
	add	r0, r1, #20	@,,
	mov	r1, #7	@,
	bl	__memzero	@
	movw	r1, #:lower16:.LANCHOR0	@ tmp166,
	movt	r1, #:upper16:.LANCHOR0	@ tmp166,
	movw	r0, #21285	@ tmp150,
	mov	r3, #0	@ ivtmp.1345,
	mov	r2, #1	@ tmp151,
	str	r2, [r4, r5]	@ tmp151, <variable>.IPVopErr
	strb	r2, [r4, r0]	@ tmp151, <variable>.MP4Syntax.syn_vos.visual_object_verid
.L217:
	add	r2, r3, #4	@ tmp169, ivtmp.1345,
	add	r0, r4, r3	@ tmp155, pCtx, ivtmp.1345
	ldr	r5, [r1, r3]	@ tmp159, default_intra_matrix
	add	r6, r4, r2	@ tmp171, pCtx, tmp169
	add	r3, r2, #4	@ ivtmp.1345, tmp169,
	ldr	lr, [r1, r2]	@ tmp174, default_intra_matrix
	add	ip, r0, #19968	@ tmp157, tmp155,
	cmp	r3, #256	@ ivtmp.1345,
	add	r0, r6, #19968	@ tmp172, tmp171,
	str	r5, [ip, #120]	@ tmp159, <variable>.MP4Vol.intra_quant_mat
	str	lr, [r0, #120]	@ tmp174, <variable>.MP4Vol.intra_quant_mat
	bne	.L217	@,
	ldr	r1, .L224	@ tmp167,
	mov	r3, #0	@ ivtmp.1335,
.L218:
	add	r2, r3, #4	@ tmp168, ivtmp.1335,
	add	r0, r4, r3	@ tmp160, pCtx, ivtmp.1335
	ldr	r5, [r1, r3]	@ tmp165, default_inter_matrix
	add	r6, r4, r2	@ tmp176, pCtx, tmp168
	add	r3, r2, #4	@ ivtmp.1335, tmp168,
	ldr	lr, [r1, r2]	@ tmp179, default_inter_matrix
	add	ip, r0, #20224	@ tmp162, tmp160,
	cmp	r3, #256	@ ivtmp.1335,
	add	r0, r6, #20224	@ tmp177, tmp176,
	str	r5, [ip, #120]	@ tmp165, <variable>.MP4Vol.nonintra_quant_mat
	str	lr, [r0, #120]	@ tmp179, <variable>.MP4Vol.nonintra_quant_mat
	bne	.L218	@,
	ldmfd	sp, {r3, r4, r5, r6, fp, sp, pc}	@
.L225:
	.align	2
.L224:
	.word	.LANCHOR0+256
	.fnend
	.size	Mp4_Syntax_Init, .-Mp4_Syntax_Init
	.align	2
	.global	Global_Data_Init
	.type	Global_Data_Init, %function
Global_Data_Init:
	.fnstart
.LFB1534:
	@ args = 0, pretend = 0, frame = 0
	@ frame_needed = 1, uses_anonymous_args = 0
	.movsp ip
	mov	ip, sp	@,
	stmfd	sp!, {r4, r5, fp, ip, lr, pc}	@,
	.pad #4
	.save {r4, r5, fp, ip, lr}
	.setfp fp, ip, #-4
	sub	fp, ip, #4	@,,
	push	{lr}
	bl	__gnu_mcount_nc
	add	r5, r0, #22016	@ tmp136, pCtx,
	mov	r4, r0	@ pCtx, pCtx
	mov	r1, #24	@,
	add	r0, r5, #48	@, tmp136,
	bl	__memzero	@
	add	r0, r5, #28	@, tmp136,
	mov	r1, #16	@,
	bl	__memzero	@
	mov	r0, r4	@, pCtx
	bl	Mp4_Syntax_Init	@
	movw	r1, #22580	@ tmp139,
	movw	r2, #22584	@ tmp141,
	mov	r3, #0	@ tmp140,
	movw	ip, #22588	@ tmp143,
	str	r3, [r4, r1]	@ tmp140, <variable>.UsrData
	str	r3, [r4, r2]	@ tmp140, <variable>.UsrData
	movw	r1, #22592	@ tmp145,
	movw	r2, #22552	@ tmp147,
	str	r3, [r4, ip]	@ tmp140, <variable>.UsrData
	str	r3, [r4, r2]	@ tmp140, <variable>.FrameNum
	movw	ip, #22092	@ tmp149,
	str	r3, [r4, r1]	@ tmp140, <variable>.UsrData
	movw	r2, #22540	@ tmp153,
	movw	r1, #22536	@ tmp151,
	str	r3, [r4, ip]	@ tmp140, <variable>.DecMode
	str	r3, [r4, r1]	@ tmp140, <variable>.SeqCnt
	movw	ip, #22544	@ tmp155,
	str	r3, [r4, r2]	@ tmp140, <variable>.ImgCntOfSeq
	movw	r1, #22596	@ tmp157,
	movw	r2, #22556	@ tmp159,
	movw	r0, #22572	@ tmp167,
	str	r3, [r4, ip]	@ tmp140, <variable>.ErrorLevel
	movw	ip, #22560	@ tmp161,
	str	r3, [r4, r1]	@ tmp140, <variable>.CurUsrData
	movw	r1, #22564	@ tmp163,
	str	r3, [r4, r2]	@ tmp140, <variable>.OldPicWidth
	movw	r2, #22568	@ tmp165,
	str	r3, [r4, r0]	@ tmp140, <variable>.UserID
	mov	r0, r3	@, tmp140
	str	r3, [r4, ip]	@ tmp140, <variable>.OldPicHeight
	str	r3, [r4, r1]	@ tmp140, <variable>.NewPicWidth
	str	r3, [r4, r2]	@ tmp140, <variable>.NewPicHeight
	ldmfd	sp, {r4, r5, fp, sp, pc}	@
	.fnend
	.size	Global_Data_Init, .-Global_Data_Init
	.align	2
	.global	bs_get_spritetrajectory
	.type	bs_get_spritetrajectory, %function
bs_get_spritetrajectory:
	.fnstart
.LFB1529:
	@ args = 0, pretend = 0, frame = 0
	@ frame_needed = 1, uses_anonymous_args = 0
	.movsp ip
	mov	ip, sp	@,
	stmfd	sp!, {r3, r4, r5, r6, fp, ip, lr, pc}	@,
	.pad #4
	.save {r3, r4, r5, r6, fp, ip, lr}
	.setfp fp, ip, #-4
	sub	fp, ip, #4	@,,
	push	{lr}
	bl	__gnu_mcount_nc
	movw	r4, #:lower16:.LANCHOR1	@ tmp204,
	movt	r4, #:upper16:.LANCHOR1	@ tmp204,
	mov	r5, r0	@ pBs, pBs
	ldrb	r1, [r4, #4]	@ zero_extendqisi2	@, <variable>.len
	bl	BsShow	@
	ldr	r3, [r4, #0]	@ <variable>.code, <variable>.code
	cmp	r0, r3	@, <variable>.code
	moveq	r6, #0	@ i,
	beq	.L230	@,
	ldrb	r1, [r4, #12]	@ zero_extendqisi2	@, <variable>.len
	mov	r0, r5	@, pBs
	bl	BsShow	@
	ldr	r1, [r4, #8]	@ <variable>.code, <variable>.code
	cmp	r0, r1	@, <variable>.code
	moveq	r6, #1	@ i,
	beq	.L230	@,
	mov	r0, r5	@, pBs
	ldrb	r1, [r4, #20]	@ zero_extendqisi2	@, <variable>.len
	bl	BsShow	@
	ldr	r2, [r4, #16]	@ <variable>.code, <variable>.code
	cmp	r0, r2	@, <variable>.code
	moveq	r6, #2	@ i,
	beq	.L230	@,
	mov	r0, r5	@, pBs
	ldrb	r1, [r4, #28]	@ zero_extendqisi2	@, <variable>.len
	bl	BsShow	@
	ldr	ip, [r4, #24]	@ <variable>.code, <variable>.code
	cmp	r0, ip	@, <variable>.code
	moveq	r6, #3	@ i,
	beq	.L230	@,
	mov	r0, r5	@, pBs
	ldrb	r1, [r4, #36]	@ zero_extendqisi2	@, <variable>.len
	bl	BsShow	@
	ldr	r3, [r4, #32]	@ <variable>.code, <variable>.code
	cmp	r0, r3	@, <variable>.code
	moveq	r6, #4	@ i,
	beq	.L230	@,
	ldrb	r1, [r4, #44]	@ zero_extendqisi2	@, <variable>.len
	mov	r0, r5	@, pBs
	bl	BsShow	@
	ldr	r1, [r4, #40]	@ <variable>.code, <variable>.code
	cmp	r0, r1	@, <variable>.code
	moveq	r6, #5	@ i,
	beq	.L230	@,
	mov	r0, r5	@, pBs
	ldrb	r1, [r4, #52]	@ zero_extendqisi2	@, <variable>.len
	bl	BsShow	@
	ldr	r2, [r4, #48]	@ <variable>.code, <variable>.code
	cmp	r0, r2	@, <variable>.code
	moveq	r6, #6	@ i,
	beq	.L230	@,
	mov	r0, r5	@, pBs
	ldrb	r1, [r4, #60]	@ zero_extendqisi2	@, <variable>.len
	bl	BsShow	@
	ldr	ip, [r4, #56]	@ <variable>.code, <variable>.code
	cmp	r0, ip	@, <variable>.code
	moveq	r6, #7	@ i,
	beq	.L230	@,
	mov	r0, r5	@, pBs
	ldrb	r1, [r4, #68]	@ zero_extendqisi2	@, <variable>.len
	bl	BsShow	@
	ldr	r3, [r4, #64]	@ <variable>.code, <variable>.code
	cmp	r0, r3	@, <variable>.code
	moveq	r6, #8	@ i,
	beq	.L230	@,
	ldrb	r1, [r4, #76]	@ zero_extendqisi2	@, <variable>.len
	mov	r0, r5	@, pBs
	bl	BsShow	@
	ldr	r1, [r4, #72]	@ <variable>.code, <variable>.code
	cmp	r0, r1	@, <variable>.code
	moveq	r6, #9	@ i,
	beq	.L230	@,
	mov	r0, r5	@, pBs
	ldrb	r1, [r4, #84]	@ zero_extendqisi2	@, <variable>.len
	bl	BsShow	@
	ldr	r2, [r4, #80]	@ <variable>.code, <variable>.code
	movw	r6, #:lower16:.LANCHOR1	@ tmp189,
	movt	r6, #:upper16:.LANCHOR1	@ tmp189,
	cmp	r0, r2	@, <variable>.code
	moveq	r6, #10	@ i,
	beq	.L230	@,
	ldrb	r1, [r6, #92]	@ zero_extendqisi2	@, <variable>.len
	mov	r0, r5	@, pBs
	bl	BsShow	@
	ldr	ip, [r6, #88]	@ <variable>.code, <variable>.code
	cmp	r0, ip	@, <variable>.code
	mvnne	r6, #0	@ i,
	beq	.L244	@,
	mov	r0, r6	@, i
	ldmfd	sp, {r3, r4, r5, r6, fp, sp, pc}	@
.L244:
	mov	r6, #11	@ i,
.L230:
	add	r4, r4, r6, asl #3	@, tmp200, tmp204, i,
	mov	r0, r5	@, pBs
	ldrb	r1, [r4, #4]	@ zero_extendqisi2	@, <variable>.len
	bl	BsSkip	@
	mov	r0, r6	@, i
	ldmfd	sp, {r3, r4, r5, r6, fp, sp, pc}	@
	.fnend
	.size	bs_get_spritetrajectory, .-bs_get_spritetrajectory
	.align	2
	.global	Bs_Get_Matrix
	.type	Bs_Get_Matrix, %function
Bs_Get_Matrix:
	.fnstart
.LFB1535:
	@ args = 0, pretend = 0, frame = 0
	@ frame_needed = 1, uses_anonymous_args = 0
	.movsp ip
	mov	ip, sp	@,
	stmfd	sp!, {r4, r5, r6, r7, r8, sl, fp, ip, lr, pc}	@,
	.pad #4
	.save {r4, r5, r6, r7, r8, sl, fp, ip, lr}
	.setfp fp, ip, #-4
	sub	fp, ip, #4	@,,
	push	{lr}
	bl	__gnu_mcount_nc
	mov	r6, #0	@ value,
	movw	r8, #:lower16:.LANCHOR0	@ tmp171,
	mov	sl, r0	@ bs, bs
	movt	r8, #:upper16:.LANCHOR0	@ tmp171,
	mov	r7, r1	@ matrix, matrix
	mov	r5, r6	@ i, value
	mov	r4, r6	@ i, value
	b	.L247	@
.L257:
	mov	r6, r0	@ value, D.39057
.L247:
	mov	r0, sl	@, bs
	mov	r1, #8	@,
	bl	BsGet	@
	add	r5, r5, #1	@ tmp154, i,
	add	r4, r8, r4, asl #2	@, tmp150, tmp171, i,
	uxth	r5, r5	@ i, tmp154
	ldr	r2, [r4, #512]	@ tmp152, scan_tables
	sxth	r4, r5	@ i, i
	cmp	r4, #63	@ i,
	movgt	r3, #0	@, tmp162
	movle	r3, #1	@, tmp162
	cmp	r0, #0	@ D.39057,
	str	r0, [r7, r2, asl #2]	@ D.39057,* matrix
	moveq	r3, #0	@, tmp162,
	cmp	r3, #0	@ tmp162,
	bne	.L257	@,
	cmp	r0, #0	@ D.39057,
	ldmnefd	sp, {r4, r5, r6, r7, r8, sl, fp, sp, pc}	@
	sub	r0, r4, #1	@ tmp163, i,
	cmp	r0, #63	@ tmp163,
	ldmgtfd	sp, {r4, r5, r6, r7, r8, sl, fp, sp, pc}	@
	ldr	ip, .L258	@ tmp165,
	add	r4, ip, r4, asl #2	@, ivtmp.1507, tmp165, i,
	add	ip, ip, #260	@ D.43079, tmp165,
	add	r3, r4, #4	@ ivtmp.1507, ivtmp.1507,
	rsb	r2, r4, ip	@ tmp174, ivtmp.1507, D.43079
	ldr	lr, [r4, #-4]	@ tmp169, scan_tables
	cmp	r3, ip	@ ivtmp.1507, D.43079
	sub	r1, r2, #4	@ tmp175, tmp174,
	ubfx	r1, r1, #2, #1	@ tmp176, tmp175,,
	str	r6, [r7, lr, asl #2]	@ value,* matrix
	ldmeqfd	sp, {r4, r5, r6, r7, r8, sl, fp, sp, pc}	@
	cmp	r1, #0	@ tmp176,
	beq	.L249	@,
	ldr	r2, [r3, #-4]	@ tmp182, scan_tables
	add	r3, r3, #4	@ ivtmp.1507, ivtmp.1507,
	cmp	r3, ip	@ ivtmp.1507, D.43079
	str	r6, [r7, r2, asl #2]	@ value,* matrix
	ldmeqfd	sp, {r4, r5, r6, r7, r8, sl, fp, sp, pc}	@
.L249:
	mov	r1, r3	@ tmp177, ivtmp.1507
	ldr	r0, [r3, #-4]	@ tmp179, scan_tables
	ldr	lr, [r1], #4	@ tmp181, scan_tables
	add	r3, r1, #4	@ ivtmp.1507, tmp177,
	str	r6, [r7, r0, asl #2]	@ value,* matrix
	cmp	r3, ip	@ ivtmp.1507, D.43079
	str	r6, [r7, lr, asl #2]	@ value,* matrix
	bne	.L249	@,
	ldmfd	sp, {r4, r5, r6, r7, r8, sl, fp, sp, pc}	@
.L259:
	.align	2
.L258:
	.word	.LANCHOR0+512
	.fnend
	.size	Bs_Get_Matrix, .-Bs_Get_Matrix
	.align	2
	.global	Mp4_Syntax_Slice_SH
	.type	Mp4_Syntax_Slice_SH, %function
Mp4_Syntax_Slice_SH:
	.fnstart
.LFB1571:
	@ args = 0, pretend = 0, frame = 32
	@ frame_needed = 1, uses_anonymous_args = 0
	.movsp ip
	mov	ip, sp	@,
	stmfd	sp!, {r4, r5, r6, r7, r8, r9, sl, fp, ip, lr, pc}	@,
	.pad #4
	.save {r4, r5, r6, r7, r8, r9, sl, fp, ip, lr}
	.setfp fp, ip, #-4
	sub	fp, ip, #4	@,,
	.pad #36
	sub	sp, sp, #36	@,,
	push	{lr}
	bl	__gnu_mcount_nc
	mov	sl, #15616	@ tmp146,
	ldr	r6, [r0, sl]	@ D.41700, <variable>.Mp4DecParam.SlcNum
	movw	r3, #510	@ tmp148,
	mov	r4, r0	@ pCtx, pCtx
	mov	r9, r2	@ len, len
	sub	r7, r6, #1	@ D.41711, D.41700,
	cmp	r7, r3	@ D.41711, tmp148
	bhi	.L269	@,
	movw	r3, #15864	@ tmp165,
	sub	r5, fp, #76	@ tmp170,,
	ldrb	ip, [r0, r3]	@ zero_extendqisi2	@ tmp167,
	add	r0, r6, #1	@ tmp164, D.41700,
	str	r0, [r4, sl]	@ tmp164, <variable>.Mp4DecParam.SlcNum
	mov	r0, r5	@, tmp170
	ubfx	lr, ip, #3, #4	@ tmp169, tmp167,,
	mov	sl, r6, asl #3	@ tmp394, D.41700,
	add	r8, lr, #17	@ D.41717, tmp169,
	bl	BsInit	@
	mov	r0, r5	@, tmp170
	mov	r1, r8	@, D.41717
	rsb	r8, r6, sl	@ tmp178, D.41700, tmp394
	bl	BsSkip	@
	mov	r1, #5	@,
	mov	r0, r5	@, tmp170
	add	r8, r4, r8, asl #2	@, tmp180, pCtx, tmp178,
	bl	BsGet	@
	movw	r2, #21220	@ tmp173,
	ldrb	ip, [r4, r2]	@ zero_extendqisi2	@ <variable>.MP4Vop.num_mb_ingob, <variable>.MP4Vop.num_mb_ingob
	movw	r3, #1204	@ tmp182,
	movw	r1, #1206	@ tmp184,
	mul	r0, ip, r0	@ D.41723, <variable>.MP4Vop.num_mb_ingob,
	str	r0, [r8, #1304]	@ D.41723, <variable>.mb_start_num
	ldrh	ip, [r4, r3]	@ <variable>.Mp4DecParam.PicWidthInMb, <variable>.Mp4DecParam.PicWidthInMb
	ldrh	r2, [r4, r1]	@ <variable>.Mp4DecParam.PicHeightInMb, <variable>.Mp4DecParam.PicHeightInMb
	mul	r3, r2, ip	@ tmp186, <variable>.Mp4DecParam.PicHeightInMb, <variable>.Mp4DecParam.PicWidthInMb
	sub	r3, r3, #1	@ totalMbMin1, tmp186,
	cmp	r0, r3	@ D.41723, totalMbMin1
	bhi	.L270	@,
	mov	r1, #2	@,
	mov	r0, r5	@, tmp170
	bl	BsSkip	@
	mov	r0, r5	@, tmp170
	mov	r1, #5	@,
	bl	BsGet	@
	movw	ip, #21208	@ tmp205,
	movw	r2, #21216	@ tmp225,
	strb	r0, [r8, #1285]	@, <variable>.vop_quant
	mov	r0, r5	@, tmp170
	ldrb	r1, [r4, ip]	@ zero_extendqisi2	@ <variable>.MP4Vop.vop_coding_type, <variable>.MP4Vop.vop_coding_type
	movw	r5, #21212	@ tmp215,
	strb	r1, [r8, #1284]	@ <variable>.MP4Vop.vop_coding_type, <variable>.vop_coding_type
	movw	r1, #21217	@ tmp235,
	ldrb	r3, [r4, r5]	@ zero_extendqisi2	@ <variable>.MP4Vop.intra_dc_vlc_thr, <variable>.MP4Vop.intra_dc_vlc_thr
	strb	r3, [r8, #1283]	@ <variable>.MP4Vop.intra_dc_vlc_thr, <variable>.intra_dc_vlc_thr
	ldrb	ip, [r4, r2]	@ zero_extendqisi2	@ <variable>.MP4Vop.vop_fcode_forward, <variable>.MP4Vop.vop_fcode_forward
	strb	ip, [r8, #1281]	@ <variable>.MP4Vop.vop_fcode_forward, <variable>.vop_fcode_forward
	ldrb	r5, [r4, r1]	@ zero_extendqisi2	@ <variable>.MP4Vop.vop_fcode_backward, <variable>.MP4Vop.vop_fcode_backward
	strb	r5, [r8, #1282]	@ <variable>.MP4Vop.vop_fcode_backward, <variable>.vop_fcode_backward
	bl	BsPos	@
	movw	r2, #22056	@ tmp261,
	mov	r3, r0, asr #31	@ tmp256, BitUsed,
	mov	r5, r0	@ BitUsed,
	rsb	r9, r0, r9, asl #3	@, tmp247, BitUsed, len,
	str	r9, [r8, #1288]	@ tmp247, <variable>.bit_len
	mov	ip, r3, lsr #29	@ tmp257, tmp256,
	ldr	r1, [r4, r2]	@ <variable>.BitsObj.offset, <variable>.BitsObj.offset
	add	r0, r0, ip	@ tmp258, BitUsed, tmp257
	cmp	r5, #0	@ BitUsed,
	and	r0, r0, #7	@ tmp259, tmp258,
	add	r2, r5, #7	@ tmp276, BitUsed,
	rsb	r3, ip, r0	@ tmp260, tmp257, tmp259
	movw	ip, #22048	@ tmp278,
	add	r0, r3, r1	@ tmp265, tmp260, <variable>.BitsObj.offset
	strb	r0, [r8, #1286]	@ tmp265, <variable>.bit_offset
	ldr	r1, [r4, ip]	@ <variable>.BitsObj.phy_addr, <variable>.BitsObj.phy_addr
	movge	r2, r5	@ BitUsed, BitUsed
	mov	ip, #19968	@ tmp281,
	add	r3, r1, r2, asr #3	@, tmp280, <variable>.BitsObj.phy_addr, BitUsed,
	movw	r2, #15709	@ tmp285,
	str	r3, [r8, #1296]	@ tmp280, <variable>.phy_address
	ldrb	r2, [r4, r2]	@ zero_extendqisi2	@ <variable>.IsLastSeg, <variable>.IsLastSeg
	ldr	r0, [r4, ip]	@ <variable>.PicIntegrality, <variable>.PicIntegrality
	cmp	r2, #0	@ <variable>.IsLastSeg,
	orr	r1, r0, #16	@ tmp284, <variable>.PicIntegrality,
	str	r1, [r4, ip]	@ tmp284, <variable>.PicIntegrality
	beq	.L271	@,
.L264:
	rsb	r6, r6, sl	@ tmp320, D.41700, tmp394
	mov	r0, #0	@ tmp324,
	add	r6, r4, r6, asl #2	@, tmp322, pCtx, tmp320,
	add	r3, r6, #1280	@ tmp331, tmp322,
	add	r2, r3, #1	@ tmp331, tmp331,
	str	r0, [r6, #1300]	@ tmp324, <variable>.phy_address
	str	r0, [r6, #1292]	@ tmp324, <variable>.bit_len
	strb	r0, [r2, #6]	@ tmp324, <variable>.bit_offset
.L265:
	mov	r3, r7, asl #3	@ tmp393, D.41711,
	rsb	ip, r7, r3	@ tmp345, D.41711, tmp393
	add	r2, r4, ip, asl #2	@, tmp347, pCtx, tmp345,
	ldr	r1, [r2, #1300]	@ <variable>.phy_address, <variable>.phy_address
	cmp	r1, #0	@ <variable>.phy_address,
	bne	.L272	@,
.L266:
	rsb	r3, r7, r3	@ tmp373, D.41711, tmp393
	movw	r2, #15864	@ tmp377,
	ldrb	ip, [r4, r2]	@ zero_extendqisi2	@ tmp379,
	add	lr, r4, r3, asl #2	@, tmp375, pCtx, tmp373,
	ubfx	r0, ip, #3, #4	@ tmp381, tmp379,,
	ldr	r1, [lr, #1288]	@ <variable>.bit_len, <variable>.bit_len
	add	r2, r0, r1	@ tmp390, tmp381, <variable>.bit_len
	str	r2, [lr, #1288]	@ tmp390, <variable>.bit_len
.L267:
	mov	r0, r4	@, pCtx
	bl	MP4_Record_SlcSegID	@
.L262:
	mov	r0, r5	@, BitUsed
	sub	sp, fp, #40
	ldmfd	sp, {r4, r5, r6, r7, r8, r9, sl, fp, sp, pc}
.L272:
	ldr	r1, [r2, #1292]	@ D.41769, <variable>.bit_len
	cmp	r1, #0	@ D.41769,
	beq	.L266	@,
	movw	ip, #15864	@ tmp364,
	ldrb	r3, [r4, ip]	@ zero_extendqisi2	@ tmp366,
	ubfx	r0, r3, #3, #4	@ tmp368, tmp366,,
	add	lr, r0, r1	@ tmp369, tmp368, D.41769
	str	lr, [r2, #1292]	@ tmp369, <variable>.bit_len
	b	.L267	@
.L271:
	movw	r0, #15789	@ tmp287,
	ldrb	lr, [r4, r0]	@ zero_extendqisi2	@ <variable>.IsLastSeg, <variable>.IsLastSeg
	cmp	lr, #1	@ <variable>.IsLastSeg,
	bne	.L264	@,
	movw	lr, #15800	@ tmp296,
	movw	r3, #15796	@ tmp315,
	ldr	ip, [r4, lr]	@ <variable>.LenInByte, <variable>.LenInByte
	strb	r2, [r8, #1287]	@ <variable>.IsLastSeg, <variable>.bit_offset
	mov	r1, ip, asl #3	@ tmp298, <variable>.LenInByte,
	str	r1, [r8, #1292]	@ tmp298, <variable>.bit_len
	ldr	r2, [r4, r3]	@ <variable>.PhyAddr, <variable>.PhyAddr
	str	r2, [r8, #1300]	@ <variable>.PhyAddr, <variable>.phy_address
	b	.L265	@
.L269:
	movw	lr, #22960	@ tmp149,
	add	r1, r0, #15680	@, pCtx,
	add	r1, r1, #24	@,,
	ldr	r0, [r0, lr]	@, <variable>.ChanID
	bl	MP4_ClearCurPacket	@
	mov	r0, r4	@, pCtx
	bl	MP4_ClearCurPic	@
	mov	ip, #19968	@ tmp153,
	ldr	r2, [r4, ip]	@ <variable>.PicIntegrality, <variable>.PicIntegrality
	movw	r1, #:lower16:.LC8	@,
	ldr	r3, [r4, sl]	@, <variable>.Mp4DecParam.SlcNum
	movt	r1, #:upper16:.LC8	@,
	bic	r5, r2, #432	@ tmp157, <variable>.PicIntegrality,
	mov	r0, #1	@,
	bic	r2, r5, #2	@ tmp157, tmp157,
	str	r2, [r4, ip]	@ tmp157, <variable>.PicIntegrality
	ldr	r2, .L273	@,
	mov	r5, #0	@ BitUsed,
	bl	dprint_vfmw	@
	b	.L262	@
.L270:
	mov	r2, r0	@, D.41723
	movw	r1, #:lower16:.LC9	@,
	mov	r0, #1	@,
	movt	r1, #:upper16:.LC9	@,
	mvn	r5, #0	@ BitUsed,
	bl	dprint_vfmw	@
	b	.L262	@
.L274:
	.align	2
.L273:
	.word	.LANCHOR0+1280
	.fnend
	.size	Mp4_Syntax_Slice_SH, .-Mp4_Syntax_Slice_SH
	.align	2
	.global	Mp4_Syntax_Slice_NotSH
	.type	Mp4_Syntax_Slice_NotSH, %function
Mp4_Syntax_Slice_NotSH:
	.fnstart
.LFB1570:
	@ args = 0, pretend = 0, frame = 32
	@ frame_needed = 1, uses_anonymous_args = 0
	.movsp ip
	mov	ip, sp	@,
	stmfd	sp!, {r4, r5, r6, r7, r8, sl, fp, ip, lr, pc}	@,
	.pad #4
	.save {r4, r5, r6, r7, r8, sl, fp, ip, lr}
	.setfp fp, ip, #-4
	sub	fp, ip, #4	@,,
	.pad #32
	sub	sp, sp, #32	@,,
	push	{lr}
	bl	__gnu_mcount_nc
	mov	r8, #15616	@ tmp154,
	ldr	r6, [r0, r8]	@ D.41609, <variable>.Mp4DecParam.SlcNum
	mov	r4, r0	@ pCtx, pCtx
	movw	r3, #510	@ tmp156,
	mov	r7, r2	@ len, len
	sub	r0, r6, #1	@ tmp155, D.41609,
	cmp	r0, r3	@ tmp155, tmp156
	bhi	.L291	@,
	movw	ip, #15864	@ tmp174,
	sub	r5, fp, #68	@ tmp407,,
	ldrh	r3, [r4, ip]	@ tmp176,
	add	r0, r6, #1	@ tmp173, D.41609,
	str	r0, [r4, r8]	@ tmp173, <variable>.Mp4DecParam.SlcNum
	mov	r0, r5	@, tmp407
	ubfx	lr, r3, #7, #4	@ tmp178, tmp176,,
	movw	r8, #21972	@ tmp181,
	add	sl, lr, #17	@ D.41624, tmp178,
	bl	BsInit	@
	mov	r0, r5	@, tmp407
	mov	r1, sl	@, D.41624
	bl	BsSkip	@
	movw	r2, #21976	@ tmp185,
	ldr	r1, [r4, r8]	@ <variable>.MP4Syntax.image_height, <variable>.MP4Syntax.image_height
	ldr	ip, [r4, r2]	@ <variable>.MP4Syntax.image_width, <variable>.MP4Syntax.image_width
	add	r3, r1, #15	@ tmp182, <variable>.MP4Syntax.image_height,
	add	r0, ip, #15	@ tmp186, <variable>.MP4Syntax.image_width,
	mov	sl, r3, lsr #4	@ tmp184, tmp182,
	mov	r8, r0, lsr #4	@ tmp188, tmp186,
	mul	r8, r8, sl	@ MbCnt, tmp188, tmp184
	cmp	r8, #0	@ MbCnt,
	beq	.L278	@,
	mov	r3, r8	@ MbCnt.1578, MbCnt
	mov	r1, #0	@ n,
.L279:
	add	r1, r1, #1	@ tmp190, n,
	movs	r3, r3, lsr #1	@ MbCnt.1578, MbCnt.1578,
	uxth	r1, r1	@ n, tmp190
	bne	.L279	@,
	sxth	r1, r1	@, n
	mov	r0, r5	@, tmp407
	bl	BsGet	@
	mov	sl, r6, asl #3	@ tmp406, D.41609,
	rsb	r3, r6, sl	@ tmp196, D.41609, tmp406
	sub	ip, r8, #1	@ tmp200, MbCnt,
	add	r2, r4, r3, asl #2	@, tmp198, pCtx, tmp196,
	cmp	r0, ip	@ temp.1575, tmp200
	str	r0, [r2, #1304]	@ temp.1575, <variable>.mb_start_num
	bhi	.L292	@,
.L280:
	mov	r1, #5	@,
	mov	r0, r5	@, tmp407
	bl	BsGet	@
	rsb	r8, r6, sl	@ tmp206, D.41609, tmp406
	mov	r1, #1	@,
	add	r8, r4, r8, asl #2	@, tmp208, pCtx, tmp206,
	strb	r0, [r8, #1285]	@, <variable>.vop_quant
	mov	r0, r5	@, tmp407
	bl	BsGet	@
	cmp	r0, #0	@,
	beq	.L281	@,
.L288:
	mov	r0, r5	@, tmp407
	mov	r1, #1	@,
	bl	BsGet	@
	cmp	r0, #0	@,
	bne	.L288	@,
	mov	r1, #1	@,
	mov	r0, r5	@, tmp407
	bl	BsSkip	@
	movw	r0, #20068	@ tmp214,
	ldr	r1, [r4, r0]	@ D.41645, <variable>.MP4Vol.vop_time_incr_bits
	cmp	r1, #0	@ D.41645,
	bne	.L293	@,
.L283:
	mov	r1, #1	@,
	mov	r0, r5	@, tmp407
	bl	BsSkip	@
	mov	r1, #2	@,
	mov	r0, r5	@, tmp407
	bl	BsGet	@
	rsb	r2, r6, sl	@ tmp221, D.41609, tmp406
	mov	r1, #3	@,
	add	r8, r4, r2, asl #2	@, tmp223, pCtx, tmp221,
	strb	r0, [r8, #1284]	@, <variable>.vop_coding_type
	mov	r0, r5	@, tmp407
	bl	BsGet	@
	ldrb	r1, [r8, #1284]	@ zero_extendqisi2	@ <variable>.vop_coding_type, <variable>.vop_coding_type
	cmp	r1, #0	@ <variable>.vop_coding_type,
	strb	r0, [r8, #1283]	@, <variable>.intra_dc_vlc_thr
	bne	.L294	@,
.L284:
	movw	r0, #21216	@ tmp280,
	rsb	r8, r6, sl	@ tmp276, D.41609, tmp406
	ldrb	r2, [r4, r0]	@ zero_extendqisi2	@ <variable>.MP4Vop.vop_fcode_forward, <variable>.MP4Vop.vop_fcode_forward
	movw	ip, #21217	@ tmp290,
	add	r8, r4, r8, asl #2	@, tmp278, pCtx, tmp276,
	mov	lr, #19968	@ tmp293,
	mov	r0, r5	@, tmp407
	strb	r2, [r8, #1281]	@ <variable>.MP4Vop.vop_fcode_forward, <variable>.vop_fcode_forward
	ldrb	r1, [r4, ip]	@ zero_extendqisi2	@ <variable>.MP4Vop.vop_fcode_backward, <variable>.MP4Vop.vop_fcode_backward
	strb	r1, [r8, #1282]	@ <variable>.MP4Vop.vop_fcode_backward, <variable>.vop_fcode_backward
	ldr	r3, [r4, lr]	@ <variable>.PicIntegrality, <variable>.PicIntegrality
	orr	r5, r3, #16	@ tmp296, <variable>.PicIntegrality,
	str	r5, [r4, lr]	@ tmp296, <variable>.PicIntegrality
	bl	BsPos	@
	movw	ip, #22056	@ tmp320,
	mov	r2, r0, asr #31	@ tmp315, BitUsed,
	mov	r5, r0	@ BitUsed,
	rsb	r7, r0, r7, asl #3	@, tmp306, BitUsed, len,
	str	r7, [r8, #1288]	@ tmp306, <variable>.bit_len
	mov	r3, r2, lsr #29	@ tmp316, tmp315,
	ldr	r2, [r4, ip]	@ <variable>.BitsObj.offset, <variable>.BitsObj.offset
	add	r1, r0, r3	@ tmp317, BitUsed, tmp316
	add	ip, r0, #7	@ tmp335, BitUsed,
	and	r0, r1, #7	@ tmp318, tmp317,
	cmp	r5, #0	@ BitUsed,
	rsb	r1, r3, r0	@ tmp319, tmp316, tmp318
	add	r3, r1, r2	@ tmp324, tmp319, <variable>.BitsObj.offset
	movw	r1, #22048	@ tmp337,
	strb	r3, [r8, #1286]	@ tmp324, <variable>.bit_offset
	movge	ip, r5	@ BitUsed, BitUsed
	ldr	r0, [r4, r1]	@ <variable>.BitsObj.phy_addr, <variable>.BitsObj.phy_addr
	movw	r2, #15709	@ tmp340,
	add	r3, r0, ip, asr #3	@, tmp339, <variable>.BitsObj.phy_addr, BitUsed,
	str	r3, [r8, #1296]	@ tmp339, <variable>.phy_address
	ldrb	r3, [r4, r2]	@ zero_extendqisi2	@ <variable>.IsLastSeg, <variable>.IsLastSeg
	cmp	r3, #0	@ <variable>.IsLastSeg,
	bne	.L285	@,
	movw	r1, #15789	@ tmp342,
	ldrb	lr, [r4, r1]	@ zero_extendqisi2	@ <variable>.IsLastSeg, <variable>.IsLastSeg
	cmp	lr, #1	@ <variable>.IsLastSeg,
	beq	.L295	@,
.L285:
	rsb	r6, r6, sl	@ tmp375, D.41609, tmp406
	mov	r1, #0	@ tmp379,
	add	r6, r4, r6, asl #2	@, tmp377, pCtx, tmp375,
	add	ip, r6, #1280	@ tmp386, tmp377,
	add	r3, ip, #1	@ tmp386, tmp386,
	str	r1, [r6, #1300]	@ tmp379, <variable>.phy_address
	str	r1, [r6, #1292]	@ tmp379, <variable>.bit_len
	strb	r1, [r3, #6]	@ tmp379, <variable>.bit_offset
.L286:
	mov	r0, r4	@, pCtx
	bl	MP4_Record_SlcSegID	@
.L277:
	mov	r0, r5	@, BitUsed
	sub	sp, fp, #36
	ldmfd	sp, {r4, r5, r6, r7, r8, sl, fp, sp, pc}
.L281:
	movw	r1, #21208	@ tmp260,
	movw	ip, #21212	@ tmp270,
	ldrb	r0, [r4, r1]	@ zero_extendqisi2	@ <variable>.MP4Vop.vop_coding_type, <variable>.MP4Vop.vop_coding_type
	strb	r0, [r8, #1284]	@ <variable>.MP4Vop.vop_coding_type, <variable>.vop_coding_type
	ldrb	lr, [r4, ip]	@ zero_extendqisi2	@ <variable>.MP4Vop.intra_dc_vlc_thr, <variable>.MP4Vop.intra_dc_vlc_thr
	strb	lr, [r8, #1283]	@ <variable>.MP4Vop.intra_dc_vlc_thr, <variable>.intra_dc_vlc_thr
	b	.L284	@
.L291:
	movw	lr, #22960	@ tmp157,
	add	r1, r4, #15680	@, pCtx,
	ldr	r0, [r4, lr]	@, <variable>.ChanID
	add	r1, r1, #24	@,,
	bl	MP4_ClearCurPacket	@
	mov	r0, r4	@, pCtx
	bl	MP4_ClearCurPic	@
	mov	ip, #19968	@ tmp161,
	ldr	r2, [r4, ip]	@ <variable>.PicIntegrality, <variable>.PicIntegrality
	movw	r1, #:lower16:.LC8	@,
	ldr	r3, [r4, r8]	@, <variable>.Mp4DecParam.SlcNum
	movt	r1, #:upper16:.LC8	@,
	bic	r5, r2, #432	@ tmp165, <variable>.PicIntegrality,
	mov	r0, #1	@,
	bic	r2, r5, #2	@ tmp165, tmp165,
	str	r2, [r4, ip]	@ tmp165, <variable>.PicIntegrality
	ldr	r2, .L296	@,
	mov	r5, #0	@ BitUsed,
	bl	dprint_vfmw	@
	b	.L277	@
.L293:
	mov	r0, r5	@, tmp407
	bl	BsSkip	@
	b	.L283	@
.L294:
	mov	r0, r5	@, tmp407
	mov	r1, #3	@,
	bl	BsSkip	@
	ldrb	r3, [r8, #1284]	@ zero_extendqisi2	@ <variable>.vop_coding_type, <variable>.vop_coding_type
	cmp	r3, #2	@ <variable>.vop_coding_type,
	bne	.L284	@,
	mov	r0, r5	@, tmp407
	mov	r1, #3	@,
	bl	BsSkip	@
	b	.L284	@
.L295:
	movw	lr, #15800	@ tmp351,
	movw	ip, #15796	@ tmp370,
	ldr	r2, [r4, lr]	@ <variable>.LenInByte, <variable>.LenInByte
	strb	r3, [r8, #1287]	@ <variable>.IsLastSeg, <variable>.bit_offset
	mov	r0, r2, asl #3	@ tmp353, <variable>.LenInByte,
	str	r0, [r8, #1292]	@ tmp353, <variable>.bit_len
	ldr	r3, [r4, ip]	@ <variable>.PhyAddr, <variable>.PhyAddr
	str	r3, [r8, #1300]	@ <variable>.PhyAddr, <variable>.phy_address
	b	.L286	@
.L278:
	mov	r1, r8	@, MbCnt
	mov	r0, r5	@, tmp407
	bl	BsGet	@
	mov	sl, r6, asl #3	@ tmp406, D.41609,
	rsb	r2, r6, sl	@ tmp402, D.41609, tmp406
	add	r8, r4, r2, asl #2	@, tmp404, pCtx, tmp402,
	str	r0, [r8, #1304]	@, <variable>.mb_start_num
	b	.L280	@
.L292:
	mov	r2, r0	@, temp.1575
	mov	r3, r8	@, MbCnt
	movw	r1, #:lower16:.LC10	@,
	mov	r0, #1	@,
	movt	r1, #:upper16:.LC10	@,
	mvn	r5, #0	@ BitUsed,
	bl	dprint_vfmw	@
	b	.L277	@
.L297:
	.align	2
.L296:
	.word	.LANCHOR0+1300
	.fnend
	.size	Mp4_Syntax_Slice_NotSH, .-Mp4_Syntax_Slice_NotSH
	.align	2
	.global	MP4_Dec_Slice
	.type	MP4_Dec_Slice, %function
MP4_Dec_Slice:
	.fnstart
.LFB1573:
	@ args = 0, pretend = 0, frame = 8
	@ frame_needed = 1, uses_anonymous_args = 0
	.movsp ip
	mov	ip, sp	@,
	stmfd	sp!, {r4, fp, ip, lr, pc}	@,
	.pad #4
	.save {r4, fp, ip, lr}
	.setfp fp, ip, #-4
	sub	fp, ip, #4	@,,
	.pad #12
	sub	sp, sp, #12	@,,
	push	{lr}
	bl	__gnu_mcount_nc
	movw	ip, #15864	@ tmp144,
	ldrb	r3, [r0, ip]	@ zero_extendqisi2	@ D.41801,
	mov	r4, r0	@ pCtx, pCtx
	tst	r3, #1	@ D.41801,
	beq	.L306	@,
	tst	r3, #4	@ D.41801,
	bne	.L303	@,
	ldrh	r0, [r0, ip]	@ tmp169,
	ubfx	r0, r0, #7, #4	@ D.41823, tmp169,,
	cmp	r0, #0	@ D.41823,
	beq	.L303	@,
	cmp	r0, #7	@ D.41823,
	bfile	r3, r0, #3, #4	@ D.41801, D.41823,,
	strleb	r3, [r4, ip]	@ D.41801,
.L303:
	mov	r0, r4	@, pCtx
	bl	Mp4_Syntax_Slice_SH	@
	cmn	r0, #1	@,
	beq	.L307	@,
.L301:
	mov	r0, #0	@,
	sub	sp, fp, #16
	ldmfd	sp, {r4, fp, sp, pc}
.L306:
	str	r1, [fp, #-24]	@,
	str	r2, [fp, #-28]	@,
	bl	Mp4_Check_Slice_NotSH	@
	ldr	r1, [fp, #-24]	@,
	ldr	r2, [fp, #-28]	@,
	cmp	r0, #0	@,
	beq	.L308	@,
	mov	r1, r2	@, len
	mov	r0, r4	@, pCtx
	bl	Mp4_Combine_SliceData	@
	cmp	r0, #0	@,
	bne	.L305	@,
	mov	r0, r4	@, pCtx
	bl	MP4_Record_SlcSegID	@
	b	.L301	@
.L308:
	mov	r0, r4	@, pCtx
	bl	Mp4_Syntax_Slice_NotSH	@
	cmn	r0, #1	@,
	bne	.L301	@,
.L305:
	movw	r3, #22960	@ tmp156,
	add	r1, r4, #15680	@, pCtx,
	ldr	r0, [r4, r3]	@, <variable>.ChanID
	add	r1, r1, #24	@,,
	bl	MP4_ClearCurPacket	@
	movw	r1, #:lower16:.LC11	@,
	ldr	r2, .L309	@,
	movt	r1, #:upper16:.LC11	@,
	mov	r0, #1	@,
	bl	dprint_vfmw	@
	b	.L301	@
.L307:
	add	r2, r4, #15680	@, pCtx,
	movw	ip, #22960	@ tmp174,
	ldr	r0, [r4, ip]	@, <variable>.ChanID
	add	r1, r2, #24	@,,
	bl	MP4_ClearCurPacket	@
	movw	r1, #:lower16:.LC11	@,
	ldr	r2, .L309	@,
	movt	r1, #:upper16:.LC11	@,
	mov	r0, #1	@,
	bl	dprint_vfmw	@
	b	.L301	@
.L310:
	.align	2
.L309:
	.word	.LANCHOR0+1324
	.fnend
	.size	MP4_Dec_Slice, .-MP4_Dec_Slice
	.align	2
	.global	Mp4_Syntax_Vos
	.type	Mp4_Syntax_Vos, %function
Mp4_Syntax_Vos:
	.fnstart
.LFB1544:
	@ args = 0, pretend = 0, frame = 32
	@ frame_needed = 1, uses_anonymous_args = 0
	.movsp ip
	mov	ip, sp	@,
	stmfd	sp!, {r4, r5, r6, r7, fp, ip, lr, pc}	@,
	.pad #4
	.save {r4, r5, r6, r7, fp, ip, lr}
	.setfp fp, ip, #-4
	sub	fp, ip, #4	@,,
	.pad #32
	sub	sp, sp, #32	@,,
	push	{lr}
	bl	__gnu_mcount_nc
	sub	r4, fp, #60	@ tmp174,,
	mov	r5, r0	@ pCtx, pCtx
	movw	r6, #21292	@ tmp142,
	mov	r0, r4	@, tmp174
	movw	r7, #19984	@ tmp146,
	bl	BsInit	@
	mov	r3, #0	@ tmp143,
	mov	r1, #32	@,
	str	r3, [r5, r6]	@ tmp143, <variable>.MP4Syntax.syn_vos.profile_and_level_indication
	mov	r0, r4	@, tmp174
	bl	BsSkip	@
	mov	r0, r4	@, tmp174
	mov	r1, #8	@,
	bl	BsGet	@
	sub	r2, r0, #1	@ tmp147, D.40051,
	str	r0, [r5, r7]	@ D.40051, <variable>.MP4Vos.profile_and_level_indication
	cmp	r0, #8	@ D.40051,
	cmpne	r2, #2	@, tmp147,
	movhi	r2, #0	@, tmp154
	movls	r2, #1	@, tmp154
	bls	.L312	@,
	cmp	r0, #240	@ D.40051,
	beq	.L312	@,
	cmp	r0, #241	@ D.40051,
	beq	.L312	@,
	cmp	r0, #242	@ D.40051,
	beq	.L312	@,
	cmp	r0, #243	@ D.40051,
	beq	.L312	@,
	cmp	r0, #244	@ D.40051,
	beq	.L312	@,
	cmp	r0, #245	@ D.40051,
	beq	.L312	@,
	cmp	r0, #0	@ D.40051,
	beq	.L317	@,
	movw	lr, #:lower16:g_event_report	@ tmp169,
	movt	lr, #:upper16:g_event_report	@ tmp169,
	movw	r1, #22036	@ tmp166,
	strb	r2, [r5, r1]	@ tmp154, <variable>.MP4SyntaxState.vos_decode_right
	ldr	ip, [lr, #0]	@ g_event_report.541, g_event_report
	cmp	ip, #0	@ g_event_report.541,
	beq	.L314	@,
	movw	r3, #22960	@ tmp170,
	mov	r1, #102	@,
	ldr	r0, [r5, r3]	@, <variable>.ChanID
	mov	r3, r2	@,
	blx	ip	@ g_event_report.541
	b	.L314	@
.L312:
	movw	ip, #21292	@ tmp158,
	movw	r1, #22036	@ tmp155,
	str	r0, [r5, ip]	@ D.40051, <variable>.MP4Syntax.syn_vos.profile_and_level_indication
	mov	r0, #1	@ tmp156,
	strb	r0, [r5, r1]	@ tmp156, <variable>.MP4SyntaxState.vos_decode_right
.L314:
	mov	r0, r4	@, tmp174
	bl	BsPos	@
	sub	sp, fp, #28
	ldmfd	sp, {r4, r5, r6, r7, fp, sp, pc}
.L317:
	mov	r2, r0	@, D.40051
	movw	r1, #:lower16:.LC12	@,
	mov	r0, #1	@,
	movt	r1, #:upper16:.LC12	@,
	bl	dprint_vfmw	@
	ldr	r3, [r5, r7]	@ <variable>.MP4Vos.profile_and_level_indication, <variable>.MP4Vos.profile_and_level_indication
	movw	r2, #22036	@ tmp160,
	mov	r0, #1	@ tmp161,
	strb	r0, [r5, r2]	@ tmp161, <variable>.MP4SyntaxState.vos_decode_right
	str	r3, [r5, r6]	@ <variable>.MP4Vos.profile_and_level_indication, <variable>.MP4Syntax.syn_vos.profile_and_level_indication
	b	.L314	@
	.fnend
	.size	Mp4_Syntax_Vos, .-Mp4_Syntax_Vos
	.align	2
	.global	Mp4_Syntax_Vol
	.type	Mp4_Syntax_Vol, %function
Mp4_Syntax_Vol:
	.fnstart
.LFB1543:
	@ args = 0, pretend = 0, frame = 40
	@ frame_needed = 1, uses_anonymous_args = 0
	.movsp ip
	mov	ip, sp	@,
	stmfd	sp!, {r4, r5, r6, r7, r8, r9, sl, fp, ip, lr, pc}	@,
	.pad #4
	.save {r4, r5, r6, r7, r8, r9, sl, fp, ip, lr}
	.setfp fp, ip, #-4
	sub	fp, ip, #4	@,,
	.pad #44
	sub	sp, sp, #44	@,,
	push	{lr}
	bl	__gnu_mcount_nc
	movw	r3, #22960	@ tmp250,
	ldr	r9, [r0, r3]	@ <variable>.ChanID, <variable>.ChanID
	movw	lr, #:lower16:s_pstVfmwChan	@ tmp248,
	movt	lr, #:upper16:s_pstVfmwChan	@ tmp248,
	add	r6, r0, #19968	@ tmp628, pCtx,
	mov	r4, r0	@ pCtx, pCtx
	add	r6, r6, #32	@ tmp628, tmp628,
	ldr	r5, [lr, r9, asl #2]	@ D.39726, s_pstVfmwChan
	movw	r9, #20004	@ tmp259,
	cmp	r5, #0	@ D.39726,
	ldrne	r7, [r5, #1308]	@ MaxVerSize, <variable>.stSynExtraData.stChanOption.s32MaxHeight
	moveq	r7, #8192	@ MaxVerSize,
	ldrne	r8, [r5, #1304]	@ MaxHorSize, <variable>.stSynExtraData.stChanOption.s32MaxWidth
	sub	r5, fp, #76	@ tmp630,,
	moveq	r8, r7	@ MaxHorSize, MaxVerSize
	mov	r0, r5	@, tmp630
	bl	BsInit	@
	movw	r0, #21269	@ tmp252,
	mov	ip, #0	@ tmp253,
	mov	r1, #604	@,
	strb	ip, [r4, r0]	@ tmp253, <variable>.MP4Syntax.vol_decode_over
	mov	r0, r6	@, tmp628
	bl	__memzero	@
	mov	r1, #32	@,
	mov	r0, r5	@, tmp630
	bl	BsSkip	@
	mov	r1, #1	@,
	mov	r0, r5	@, tmp630
	bl	BsGet	@
	mov	r1, #8	@,
	strb	r0, [r4, r9]	@, <variable>.MP4Vol.random_accessible_vol
	mov	r0, r5	@, tmp630
	bl	BsGet	@
	movw	r2, #20028	@ tmp262,
	mov	r1, #1	@,
	str	r0, [r4, r2]	@, <variable>.MP4Vol.video_object_type_indication
	mov	r0, r5	@, tmp630
	bl	BsGet	@
	movw	r3, #20000	@ tmp264,
	uxtb	r0, r0	@ D.39740,
	strb	r0, [r4, r3]	@ D.39740, <variable>.MP4Vol.is_object_layer_identifier
	cmp	r0, #0	@ D.39740,
	bne	.L415	@,
	movw	lr, #21285	@ tmp273,
	movw	r0, #20001	@ tmp272,
	ldrb	ip, [r4, lr]	@ zero_extendqisi2	@ <variable>.MP4Syntax.syn_vos.visual_object_verid, <variable>.MP4Syntax.syn_vos.visual_object_verid
	mov	r1, #4	@,
	strb	ip, [r4, r0]	@ <variable>.MP4Syntax.syn_vos.visual_object_verid, <variable>.MP4Vol.video_object_layer_verid
	mov	r0, r5	@, tmp630
	bl	BsGet	@
	movw	r3, #20003	@ tmp277,
	uxtb	r9, r0	@ D.39751,
	strb	r9, [r4, r3]	@ D.39751, <variable>.MP4Vol.aspect_ratio_info
	cmp	r9, #15	@ D.39751,
	beq	.L416	@,
.L323:
	mov	r0, r5	@, tmp630
	mov	r1, #1	@,
	bl	BsGet	@
	movw	ip, #20005	@ tmp284,
	uxtb	r0, r0	@ D.39760,
	strb	r0, [r4, ip]	@ D.39760, <variable>.MP4Vol.vol_control_parameters
	cmp	r0, #0	@ D.39760,
	movweq	ip, #20006	@ tmp354,
	moveq	r2, #1	@ tmp355,
	streqb	r2, [r4, ip]	@ tmp355, <variable>.MP4Vol.chroma_format
	bne	.L417	@,
.L327:
	mov	r0, r5	@, tmp630
	mov	r1, #2	@,
	bl	BsGet	@
	uxtb	r9, r0	@ D.39824,
	movw	r0, #20008	@ tmp358,
	cmp	r9, #0	@ D.39824,
	strb	r9, [r4, r0]	@ D.39824, <variable>.MP4Vol.video_object_layer_shape
	beq	.L332	@,
	mov	r0, r5	@, tmp630
	movw	r5, #22039	@ tmp360,
	mov	r6, #0	@ tmp361,
	strb	r6, [r4, r5]	@ tmp361, <variable>.MP4SyntaxState.vol_decode_right
.L405:
	bl	BsPos	@
	movw	r2, #:lower16:g_event_report	@ tmp606,
	movt	r2, #:upper16:g_event_report	@ tmp606,
	ldr	ip, [r2, #0]	@ g_event_report.1748, g_event_report
	cmp	ip, r6	@ g_event_report.1748,
	mov	r5, r0	@ BitUsed,
	beq	.L326	@,
	mov	r2, r6	@, tmp603
.L392:
	movw	lr, #22960	@ tmp607,
	mov	r1, #102	@,
	ldr	r0, [r4, lr]	@, <variable>.ChanID
	mov	r3, r2	@,
	blx	ip	@ g_event_report.1748
.L326:
	mov	r0, r5	@, BitUsed
	sub	sp, fp, #40
	ldmfd	sp, {r4, r5, r6, r7, r8, r9, sl, fp, sp, pc}
.L332:
	mov	r0, r5	@, tmp630
	mov	r1, #1	@,
	bl	BsGet	@
	subs	sl, r0, #0	@ D.39831,
	beq	.L394	@,
	mov	r1, #16	@,
	mov	r0, r5	@, tmp630
	bl	BsGet	@
	movw	r1, #20072	@ tmp377,
	cmp	r0, #0	@ D.39837,
	str	r0, [r4, r1]	@ D.39837, <variable>.MP4Vol.vop_time_increment_resolution
	movweq	r1, #20068	@ tmp383,
	moveq	r2, #1	@ tmp384,
	streq	r2, [r4, r1]	@ tmp384, <variable>.MP4Vol.vop_time_incr_bits
	beq	.L339	@,
	subs	r0, r0, #1	@ value.1711, D.39837,
	beq	.L335	@,
	mov	r3, r0	@ value, value.1711
.L336:
	add	r9, r9, #1	@ tmp379, n,
	movs	r3, r3, lsr #1	@ value, value,
	uxth	r9, r9	@ n, tmp379
	bne	.L336	@,
	cmp	r9, #0	@ n,
	beq	.L335	@,
.L337:
	add	lr, r3, #1	@ tmp381, n,
	movs	r0, r0, lsr #1	@ value.1711, value.1711,
	uxth	r3, lr	@ n, tmp381
	bne	.L337	@,
	sxth	r3, r3	@ iftmp.521, n
.L338:
	movw	r2, #20068	@ tmp382,
	str	r3, [r4, r2]	@ iftmp.521, <variable>.MP4Vol.vop_time_incr_bits
.L339:
	mov	r0, r5	@, tmp630
	mov	r1, #1	@,
	bl	BsGet	@
	subs	sl, r0, #0	@ D.39850,
	beq	.L394	@,
	mov	r0, r5	@, tmp630
	mov	r1, #1	@,
	bl	BsGet	@
	movw	r3, #20009	@ tmp395,
	uxtb	sl, r0	@ D.39857,
	strb	sl, [r4, r3]	@ D.39857, <variable>.MP4Vol.fixed_vop_rate
	cmp	sl, #0	@ D.39857,
	bne	.L418	@,
.L341:
	mov	r0, r5	@, tmp630
	mov	r1, #1	@,
	bl	BsGet	@
	subs	sl, r0, #0	@ D.39865,
	beq	.L394	@,
	mov	r1, #13	@,
	mov	r0, r5	@, tmp630
	bl	BsGet	@
	movw	r9, #20080	@ tmp411,
	mov	r1, #1	@,
	str	r0, [r4, r9]	@, <variable>.MP4Vol.video_object_layer_width
	mov	r0, r5	@, tmp630
	bl	BsGet	@
	subs	sl, r0, #0	@ D.39873,
	beq	.L394	@,
	mov	r1, #13	@,
	mov	r0, r5	@, tmp630
	bl	BsGet	@
	movw	sl, #20084	@ tmp422,
	mov	r1, #1	@,
	str	r0, [r4, sl]	@, <variable>.MP4Vol.video_object_layer_height
	mov	r0, r5	@, tmp630
	bl	BsGet	@
	subs	r2, r0, #0	@ D.39881,
	beq	.L419	@,
	ldr	r3, [r4, r9]	@ D.39889, <variable>.MP4Vol.video_object_layer_width
	cmp	r3, #31	@ D.39889,
	bls	.L345	@,
	ldr	r2, [r4, sl]	@ D.39891, <variable>.MP4Vol.video_object_layer_height
	cmp	r2, #31	@ D.39891,
	bls	.L345	@,
	mul	lr, r3, r2	@ tmp434, D.39889, D.39891
	mul	r7, r8, r7	@ tmp435, MaxHorSize, MaxVerSize
	cmp	lr, r7	@ tmp434, tmp435
	bls	.L346	@,
.L345:
	mov	r0, r5	@, tmp630
	movw	r5, #22039	@ tmp436,
	mov	r6, #0	@ tmp437,
	strb	r6, [r4, r5]	@ tmp437, <variable>.MP4SyntaxState.vol_decode_right
	bl	BsPos	@
	mov	r5, r0	@ BitUsed,
	movw	r0, #:lower16:g_event_report	@ tmp440,
	movt	r0, #:upper16:g_event_report	@ tmp440,
	ldr	ip, [r0, #0]	@ g_event_report.1750, g_event_report
	cmp	ip, r6	@ g_event_report.1750,
	beq	.L326	@,
	mov	r2, r6	@, tmp437
	b	.L391	@
.L394:
	mov	r0, #1	@,
.L396:
	movw	r1, #:lower16:.LC13	@,
	movt	r1, #:upper16:.LC13	@,
	bl	dprint_vfmw	@
	movw	r1, #22039	@ tmp414,
	mov	r0, r5	@, tmp630
	strb	sl, [r4, r1]	@ D.39873, <variable>.MP4SyntaxState.vol_decode_right
	bl	BsPos	@
	mov	r5, r0	@ BitUsed,
	movw	r0, #:lower16:g_event_report	@ tmp418,
	movt	r0, #:upper16:g_event_report	@ tmp418,
	ldr	ip, [r0, #0]	@ g_event_report.1720, g_event_report
	cmp	ip, #0	@ g_event_report.1720,
	movne	r2, sl	@, D.39873
	beq	.L326	@,
.L391:
	movw	r1, #22960	@ tmp441,
	mov	r3, r2	@,
	ldr	r0, [r4, r1]	@, <variable>.ChanID
	mov	r1, #103	@,
	blx	ip	@ g_event_report.1750
	b	.L326	@
.L417:
	mov	r0, r5	@, tmp630
	mov	r1, #2	@,
	bl	BsGet	@
	movw	r3, #20006	@ tmp287,
	uxtb	r9, r0	@ D.39765,
	strb	r9, [r4, r3]	@ D.39765, <variable>.MP4Vol.chroma_format
	cmp	r9, #1	@ D.39765,
	beq	.L325	@,
	movw	lr, #22039	@ tmp289,
	mov	r0, r5	@, tmp630
	mov	r5, #0	@ tmp290,
	strb	r5, [r4, lr]	@ tmp290, <variable>.MP4SyntaxState.vol_decode_right
	bl	BsPos	@
	mov	r5, r0	@ BitUsed,
	b	.L326	@
.L415:
	mov	r1, #4	@,
	mov	r0, r5	@, tmp630
	bl	BsGet	@
	movw	r2, #20001	@ tmp267,
	mov	r1, #3	@,
	strb	r0, [r4, r2]	@, <variable>.MP4Vol.video_object_layer_verid
	mov	r0, r5	@, tmp630
	bl	BsGet	@
	movw	r1, #20002	@ tmp270,
	strb	r0, [r4, r1]	@, <variable>.MP4Vol.video_object_layer_priority
	mov	r0, r5	@, tmp630
	mov	r1, #4	@,
	bl	BsGet	@
	movw	r3, #20003	@ tmp277,
	uxtb	r9, r0	@ D.39751,
	strb	r9, [r4, r3]	@ D.39751, <variable>.MP4Vol.aspect_ratio_info
	cmp	r9, #15	@ D.39751,
	bne	.L323	@,
.L416:
	mov	r1, #8	@,
	mov	r0, r5	@, tmp630
	bl	BsGet	@
	movw	r2, #20032	@ tmp280,
	mov	r1, #8	@,
	str	r0, [r4, r2]	@, <variable>.MP4Vol.par_width
	mov	r0, r5	@, tmp630
	bl	BsGet	@
	movw	r1, #20036	@ tmp282,
	str	r0, [r4, r1]	@, <variable>.MP4Vol.par_height
	b	.L323	@
.L325:
	mov	r1, r9	@, D.39765
	mov	r0, r5	@, tmp630
	bl	BsGet	@
	movw	r2, #20007	@ tmp294,
	mov	r1, r9	@, D.39765
	strb	r0, [r4, r2]	@, <variable>.MP4Vol.low_delay
	mov	r0, r5	@, tmp630
	bl	BsGet	@
	movw	r1, #20040	@ tmp297,
	cmp	r0, #0	@ D.39773,
	str	r0, [r4, r1]	@ D.39773, <variable>.MP4Vol.vbv_parameters
	beq	.L327	@,
	mov	r1, #15	@,
	mov	r0, r5	@, tmp630
	bl	BsGet	@
	movw	sl, #20044	@ tmp299,
	mov	r1, r9	@, D.39765
	str	r0, [r4, sl]	@, <variable>.MP4Vol.first_half_bit_rate
	mov	r0, r5	@, tmp630
	bl	BsGet	@
	subs	sl, r0, #0	@ D.39780,
	beq	.L408	@,
	mov	r1, #15	@,
	mov	r0, r5	@, tmp630
	bl	BsGet	@
	movw	ip, #20048	@ tmp310,
	mov	r1, r9	@, D.39765
	str	r0, [r4, ip]	@, <variable>.MP4Vol.latter_half_bit_rate
	mov	r0, r5	@, tmp630
	bl	BsGet	@
	subs	sl, r0, #0	@ D.39790,
	beq	.L408	@,
	mov	r1, #15	@,
	mov	r0, r5	@, tmp630
	bl	BsGet	@
	movw	r3, #20052	@ tmp321,
	mov	r1, r9	@, D.39765
	str	r0, [r4, r3]	@, <variable>.MP4Vol.first_half_vbv_buffer_size
	mov	r0, r5	@, tmp630
	bl	BsGet	@
	subs	sl, r0, #0	@ D.39798,
	beq	.L408	@,
	mov	r1, #3	@,
	mov	r0, r5	@, tmp630
	bl	BsGet	@
	movw	sl, #20056	@ tmp332,
	mov	r1, #11	@,
	str	r0, [r4, sl]	@, <variable>.MP4Vol.latter_half_vbv_buffer_size
	mov	r0, r5	@, tmp630
	bl	BsGet	@
	movw	r2, #20060	@ tmp334,
	mov	r1, r9	@, D.39765
	str	r0, [r4, r2]	@, <variable>.MP4Vol.first_half_vbv_occupancy
	mov	r0, r5	@, tmp630
	bl	BsGet	@
	subs	sl, r0, #0	@ D.39808,
	beq	.L408	@,
	mov	r1, #15	@,
	mov	r0, r5	@, tmp630
	bl	BsGet	@
	movw	ip, #20064	@ tmp345,
	mov	r1, r9	@, D.39765
	str	r0, [r4, ip]	@, <variable>.MP4Vol.latter_half_vbv_occupancy
	mov	r0, r5	@, tmp630
	bl	BsGet	@
	subs	sl, r0, #0	@ D.39816,
	bne	.L327	@,
.L408:
	mov	r0, r9	@, D.39765
	b	.L396	@
.L335:
	mov	r3, #1	@ iftmp.521,
	b	.L338	@
.L418:
	movw	lr, #20068	@ tmp398,
	mov	r0, r5	@, tmp630
	ldr	r1, [r4, lr]	@, <variable>.MP4Vol.vop_time_incr_bits
	bl	BsGet	@
	movw	ip, #20076	@ tmp400,
	str	r0, [r4, ip]	@, <variable>.MP4Vol.fixed_vop_time_increment
	b	.L341	@
.L419:
	mov	r0, #1	@,
	movw	r1, #:lower16:.LC13	@,
	movt	r1, #:upper16:.LC13	@,
	str	r2, [fp, #-80]	@,
	bl	dprint_vfmw	@
	ldr	ip, [fp, #-80]	@,
	movw	r3, #22039	@ tmp425,
	mov	r0, r5	@, tmp630
	strb	ip, [r4, r3]	@ D.39881, <variable>.MP4SyntaxState.vol_decode_right
	str	ip, [fp, #-80]	@,
	bl	BsPos	@
	movw	r2, #:lower16:g_event_report	@ tmp429,
	movt	r2, #:upper16:g_event_report	@ tmp429,
	ldr	ip, [r2, #0]	@ g_event_report.1723, g_event_report
	ldr	r2, [fp, #-80]	@,
	cmp	ip, #0	@ g_event_report.1723,
	mov	r5, r0	@ BitUsed,
	bne	.L391	@,
	b	.L326	@
.L346:
	mov	r1, #1	@,
	mov	r0, r5	@, tmp630
	bl	BsGet	@
	movw	r8, #20010	@ tmp444,
	mov	r1, #1	@,
	movw	r7, #20011	@ tmp447,
	strb	r0, [r4, r8]	@, <variable>.MP4Vol.interlaced
	mov	r0, r5	@, tmp630
	bl	BsGet	@
	uxtb	r2, r0	@ D.39902,
	strb	r2, [r4, r7]	@ D.39902, <variable>.MP4Vol.obmc_disable
	cmp	r2, #0	@ D.39902,
	bne	.L347	@,
	movw	r3, #:lower16:g_event_report	@ tmp452,
	movt	r3, #:upper16:g_event_report	@ tmp452,
	movw	ip, #22039	@ tmp449,
	strb	r2, [r4, ip]	@ D.39902, <variable>.MP4SyntaxState.vol_decode_right
	ldr	ip, [r3, #0]	@ g_event_report.1725, g_event_report
	cmp	ip, #0	@ g_event_report.1725,
	beq	.L347	@,
	movw	lr, #22960	@ tmp453,
	mov	r1, #102	@,
	ldr	r0, [r4, lr]	@, <variable>.ChanID
	mov	r3, r2	@,
	blx	ip	@ g_event_report.1725
.L347:
	movw	r2, #20001	@ tmp454,
	mov	r0, r5	@, tmp630
	ldrb	r1, [r4, r2]	@ zero_extendqisi2	@ <variable>.MP4Vol.video_object_layer_verid, <variable>.MP4Vol.video_object_layer_verid
	movw	r8, #20012	@ tmp457,
	cmp	r1, #1	@ <variable>.MP4Vol.video_object_layer_verid,
	movne	r1, #2	@,,
	bl	BsGet	@
	uxtb	r7, r0	@ D.39914,
	strb	r7, [r4, r8]	@ D.39914, <variable>.MP4Vol.sprite_enable
	cmp	r7, #0	@ D.39914,
	bne	.L420	@,
.L350:
	mov	r0, r5	@, tmp630
	mov	r1, #1	@,
	bl	BsGet	@
	movw	r2, #20013	@ tmp504,
	uxtb	ip, r0	@ D.39954,
	strb	ip, [r4, r2]	@ D.39954, <variable>.MP4Vol.not_8_bit
	cmp	ip, #0	@ D.39954,
	beq	.L358	@,
	mov	r0, r5	@, tmp630
	movw	r5, #22039	@ tmp506,
	mov	r6, #0	@ tmp507,
	strb	r6, [r4, r5]	@ tmp507, <variable>.MP4SyntaxState.vol_decode_right
	bl	BsPos	@
	mov	r5, r0	@ BitUsed,
	movw	r0, #:lower16:g_event_report	@ tmp510,
	movt	r0, #:upper16:g_event_report	@ tmp510,
	ldr	ip, [r0, #0]	@ g_event_report.1736, g_event_report
	cmp	ip, r6	@ g_event_report.1736,
	beq	.L359	@,
	movw	lr, #22960	@ tmp511,
	mov	r2, r6	@, tmp507
	ldr	r0, [r4, lr]	@, <variable>.ChanID
	mov	r1, #102	@,
	mov	r3, r6	@, tmp2
	blx	ip	@ g_event_report.1736
.L359:
	movw	r1, #:lower16:.LC17	@,
	mov	r0, #1	@,
	movt	r1, #:upper16:.LC17	@,
	bl	dprint_vfmw	@
	b	.L326	@
.L420:
	movw	r0, #:lower16:g_VdmCharacter	@ tmp459,
	movt	r0, #:upper16:g_VdmCharacter	@ tmp459,
	ldr	sl, [r0, #0]	@ g_VdmCharacter, g_VdmCharacter
	ands	sl, sl, #8	@ tmp460, g_VdmCharacter,
	beq	.L421	@,
	sub	lr, r7, #1	@ tmp469, D.39914,
	uxtb	ip, lr	@ tmp470, tmp469
	cmp	ip, #1	@ tmp470,
	bls	.L422	@,
	movw	r1, #22039	@ tmp496,
	mov	r0, r5	@, tmp630
	mov	r6, #0	@ tmp497,
	strb	r6, [r4, r1]	@ tmp497, <variable>.MP4SyntaxState.vol_decode_right
	bl	BsPos	@
	movw	r2, #:lower16:g_event_report	@ tmp500,
	movt	r2, #:upper16:g_event_report	@ tmp500,
	ldr	ip, [r2, #0]	@ g_event_report.1734, g_event_report
	cmp	ip, r6	@ g_event_report.1734,
	mov	r5, r0	@ BitUsed,
	beq	.L357	@,
	movw	r3, #22960	@ tmp501,
	mov	r2, r6	@, tmp497
	ldr	r0, [r4, r3]	@, <variable>.ChanID
	mov	r1, #102	@,
	mov	r3, r6	@, tmp2
	blx	ip	@ g_event_report.1734
.L357:
	movw	r1, #:lower16:.LC16	@,
	mov	r0, #1	@,
	movt	r1, #:upper16:.LC16	@,
	bl	dprint_vfmw	@
	b	.L326	@
.L422:
	cmp	r7, #2	@ D.39914,
	beq	.L354	@,
.L410:
	mov	r0, r5	@, tmp630
	movw	r5, #22039	@ tmp489,
	mov	r6, #0	@ tmp490,
	strb	r6, [r4, r5]	@ tmp490, <variable>.MP4SyntaxState.vol_decode_right
	bl	BsPos	@
	mov	r5, r0	@ BitUsed,
	movw	r0, #:lower16:g_event_report	@ tmp493,
	movt	r0, #:upper16:g_event_report	@ tmp493,
	ldr	ip, [r0, #0]	@ g_event_report.1731, g_event_report
	cmp	ip, r6	@ g_event_report.1731,
	beq	.L356	@,
	movw	lr, #22960	@ tmp494,
	mov	r2, r6	@, tmp490
	ldr	r0, [r4, lr]	@, <variable>.ChanID
	mov	r1, #102	@,
	mov	r3, r6	@, tmp2
	blx	ip	@ g_event_report.1731
.L356:
	movw	r1, #:lower16:.LC15	@,
	mov	r0, #1	@,
	movt	r1, #:upper16:.LC15	@,
	bl	dprint_vfmw	@
	b	.L326	@
.L421:
	mov	r0, r5	@, tmp630
	movw	r5, #22039	@ tmp462,
	strb	sl, [r4, r5]	@ tmp460, <variable>.MP4SyntaxState.vol_decode_right
	bl	BsPos	@
	movw	r1, #:lower16:g_event_report	@ tmp466,
	movt	r1, #:upper16:g_event_report	@ tmp466,
	ldr	ip, [r1, #0]	@ g_event_report.1727, g_event_report
	cmp	ip, #0	@ g_event_report.1727,
	mov	r5, r0	@ BitUsed,
	beq	.L352	@,
	movw	r3, #22960	@ tmp467,
	mov	r2, sl	@, tmp460
	ldr	r0, [r4, r3]	@, <variable>.ChanID
	mov	r1, #102	@,
	mov	r3, sl	@, tmp2
	blx	ip	@ g_event_report.1727
.L352:
	movw	r1, #:lower16:.LC14	@,
	mov	r0, #1	@,
	movt	r1, #:upper16:.LC14	@,
	bl	dprint_vfmw	@
	b	.L326	@
.L358:
	mov	r1, #1	@,
	mov	r0, r5	@, tmp630
	bl	BsGet	@
	movw	r1, #20014	@ tmp514,
	uxtb	r7, r0	@ D.39963,
	strb	r7, [r4, r1]	@ D.39963, <variable>.MP4Vol.quant_type
	cmp	r7, #0	@ D.39963,
	bne	.L423	@,
.L360:
	movw	r3, #20001	@ tmp539,
	ldrb	r1, [r4, r3]	@ zero_extendqisi2	@ <variable>.MP4Vol.video_object_layer_verid, <variable>.MP4Vol.video_object_layer_verid
	cmp	r1, #1	@ <variable>.MP4Vol.video_object_layer_verid,
	beq	.L366	@,
	mov	r0, r5	@, tmp630
	mov	r1, #1	@,
	bl	BsGet	@
	movw	r7, #20017	@ tmp542,
	strb	r0, [r4, r7]	@, <variable>.MP4Vol.quarter_sample
.L367:
	mov	r1, #1	@,
	mov	r0, r5	@, tmp630
	bl	BsGet	@
	movw	ip, #20018	@ tmp548,
	uxtb	r7, r0	@ D.39992,
	strb	r7, [r4, ip]	@ D.39992, <variable>.MP4Vol.complexity_estimation_disable
	cmp	r7, #0	@ D.39992,
	movweq	r1, #:lower16:.LC18	@,
	moveq	r0, #1	@,
	movteq	r1, #:upper16:.LC18	@,
	beq	.L412	@,
	mov	r1, #1	@,
	mov	r0, r5	@, tmp630
	bl	BsGet	@
	movw	r3, #20019	@ tmp558,
	mov	r1, #1	@,
	strb	r0, [r4, r3]	@, <variable>.MP4Vol.resync_marker_disable
	mov	r0, r5	@, tmp630
	bl	BsGet	@
	movw	r2, #20020	@ tmp561,
	uxtb	r7, r0	@ D.40003,
	strb	r7, [r4, r2]	@ D.40003, <variable>.MP4Vol.data_partitioned
	cmp	r7, #0	@ D.40003,
	movwne	r1, #:lower16:.LC19	@,
	movne	r0, #1	@,
	movtne	r1, #:upper16:.LC19	@,
	bne	.L414	@,
	movw	r0, #20001	@ tmp570,
	ldrb	r1, [r4, r0]	@ zero_extendqisi2	@ <variable>.MP4Vol.video_object_layer_verid, <variable>.MP4Vol.video_object_layer_verid
	cmp	r1, #1	@ <variable>.MP4Vol.video_object_layer_verid,
	beq	.L370	@,
	mov	r0, r5	@, tmp630
	mov	r1, #1	@,
	bl	BsGet	@
	movw	ip, #20021	@ tmp573,
	uxtb	r8, r0	@ D.40014,
	strb	r8, [r4, ip]	@ D.40014, <variable>.MP4Vol.newpred_enable
	cmp	r8, #0	@ D.40014,
	beq	.L371	@,
	movw	r1, #:lower16:.LC20	@,
	movt	r1, #:upper16:.LC20	@,
	mov	r0, #1	@,
.L412:
	bl	dprint_vfmw	@
	movw	r3, #22039	@ tmp576,
	mov	r0, r5	@, tmp630
	strb	r7, [r4, r3]	@ D.40003, <variable>.MP4SyntaxState.vol_decode_right
	bl	BsPos	@
	movw	r2, #:lower16:g_event_report	@ tmp580,
	movt	r2, #:upper16:g_event_report	@ tmp580,
	ldr	ip, [r2, #0]	@ g_event_report.1744, g_event_report
	cmp	ip, #0	@ g_event_report.1744,
	movne	r2, r7	@, D.40003
	mov	r5, r0	@ BitUsed,
	bne	.L392	@,
	b	.L326	@
.L366:
	movw	lr, #20017	@ tmp544,
	mov	r0, #0	@ tmp545,
	strb	r0, [r4, lr]	@ tmp545, <variable>.MP4Vol.quarter_sample
	b	.L367	@
.L423:
	mov	r0, r5	@, tmp630
	mov	r1, #1	@,
	bl	BsGet	@
	movw	r2, #20015	@ tmp517,
	uxtb	r3, r0	@ D.39968,
	strb	r3, [r4, r2]	@ D.39968, <variable>.MP4Vol.load_intra_quant_mat
	cmp	r3, #0	@ D.39968,
	movweq	r2, #:lower16:.LANCHOR0	@ tmp629,
	movteq	r2, #:upper16:.LANCHOR0	@ tmp629,
	bne	.L424	@,
.L363:
	add	r1, r3, #4	@ tmp632, ivtmp.1686,
	add	ip, r4, r3	@ tmp522, pCtx, ivtmp.1686
	ldr	lr, [r2, r3]	@ tmp526, default_intra_matrix
	add	r7, r4, r1	@ tmp634, pCtx, tmp632
	add	r3, r1, #4	@ ivtmp.1686, tmp632,
	ldr	r0, [r2, r1]	@ tmp637, default_intra_matrix
	add	ip, ip, #19968	@ tmp524, tmp522,
	add	r1, r7, #19968	@ tmp635, tmp634,
	cmp	r3, #256	@ ivtmp.1686,
	str	lr, [ip, #120]	@ tmp526, <variable>.MP4Vol.intra_quant_mat
	str	r0, [r1, #120]	@ tmp637, <variable>.MP4Vol.intra_quant_mat
	bne	.L363	@,
.L362:
	mov	r1, #1	@,
	mov	r0, r5	@, tmp630
	bl	BsGet	@
	movw	r2, #20016	@ tmp528,
	uxtb	r3, r0	@ D.39978,
	strb	r3, [r4, r2]	@ D.39978, <variable>.MP4Vol.load_nonintra_quant_mat
	cmp	r3, #0	@ D.39978,
	ldreq	r1, .L427	@ tmp627,
	bne	.L425	@,
.L365:
	add	r2, r3, #4	@ tmp631, ivtmp.1676,
	add	ip, r4, r3	@ tmp533, pCtx, ivtmp.1676
	ldr	lr, [r1, r3]	@ tmp538, default_inter_matrix
	add	r7, r4, r2	@ tmp639, pCtx, tmp631
	add	r3, r2, #4	@ ivtmp.1676, tmp631,
	ldr	r0, [r1, r2]	@ tmp642, default_inter_matrix
	add	ip, ip, #20224	@ tmp535, tmp533,
	add	r2, r7, #20224	@ tmp640, tmp639,
	cmp	r3, #256	@ ivtmp.1676,
	str	lr, [ip, #120]	@ tmp538, <variable>.MP4Vol.nonintra_quant_mat
	str	r0, [r2, #120]	@ tmp642, <variable>.MP4Vol.nonintra_quant_mat
	bne	.L365	@,
	b	.L360	@
.L354:
	mov	r1, #6	@,
	mov	r0, r5	@, tmp630
	bl	BsGet	@
	movw	ip, #20024	@ tmp479,
	mov	r1, r7	@, D.39914
	strb	r0, [r4, ip]	@, <variable>.MP4Vol.sprite_warping_points
	mov	r0, r5	@, tmp630
	bl	BsGet	@
	movw	r3, #20025	@ tmp482,
	mov	r1, #1	@,
	strb	r0, [r4, r3]	@, <variable>.MP4Vol.sprite_warping_accuracy
	mov	r0, r5	@, tmp630
	bl	BsGet	@
	ldrb	r1, [r4, r8]	@ zero_extendqisi2	@ <variable>.MP4Vol.sprite_enable, <variable>.MP4Vol.sprite_enable
	movw	r2, #20026	@ tmp485,
	cmp	r1, #2	@ <variable>.MP4Vol.sprite_enable,
	strb	r0, [r4, r2]	@, <variable>.MP4Vol.sprite_brightness_change
	bne	.L410	@,
	b	.L350	@
.L371:
	mov	r1, #1	@,
	mov	r0, r5	@, tmp630
	bl	BsGet	@
	movw	ip, #20022	@ tmp583,
	uxtb	r1, r0	@ D.40023,
	strb	r1, [r4, ip]	@ D.40023, <variable>.MP4Vol.reduced_resolution_vop_enable
	cmp	r1, #0	@ D.40023,
	bne	.L426	@,
.L372:
	mov	r1, #1	@,
	mov	r0, r5	@, tmp630
	bl	BsGet	@
	movw	ip, #20023	@ tmp599,
	uxtb	r1, r0	@ D.40033,
	strb	r1, [r4, ip]	@ D.40033, <variable>.MP4Vol.scalability
	cmp	r1, #0	@ D.40033,
	beq	.L373	@,
	movw	r1, #:lower16:.LC22	@,
	movt	r1, #:upper16:.LC22	@,
	mov	r0, #1	@,
.L414:
	bl	dprint_vfmw	@
	movw	r0, #22039	@ tmp602,
	mov	r6, #0	@ tmp603,
	strb	r6, [r4, r0]	@ tmp603, <variable>.MP4SyntaxState.vol_decode_right
	mov	r0, r5	@, tmp630
	b	.L405	@
.L373:
	movw	lr, #22040	@ tmp614,
	sub	r2, lr, #1	@ tmp608, tmp608,
	movw	ip, #21269	@ tmp611,
	add	r0, r4, #20480	@, pCtx,
	mov	r3, #1	@ tmp609,
	mov	r1, r6	@, tmp628
	strb	r3, [r4, r2]	@ tmp609, <variable>.MP4SyntaxState.vol_decode_right
	add	r0, r0, #124	@,,
	strb	r3, [r4, lr]	@ tmp609, <variable>.MP4SyntaxState.last_vol_decode_right
	mov	r2, #604	@,
	strb	r3, [r4, ip]	@ tmp609, <variable>.MP4Syntax.vol_decode_over
	bl	memcpy	@
	mov	r0, r5	@, tmp630
	bl	BsPos	@
	mov	r5, r0	@ BitUsed,
	b	.L326	@
.L426:
	mov	r0, #1	@,
	movw	r1, #:lower16:.LC21	@,
	movt	r1, #:upper16:.LC21	@,
	bl	dprint_vfmw	@
	movw	r2, #22039	@ tmp586,
	strb	r8, [r4, r2]	@ D.40014, <variable>.MP4SyntaxState.vol_decode_right
	mov	r0, r5	@, tmp630
	bl	BsPos	@
	mov	r5, r0	@ BitUsed,
	movw	r0, #:lower16:g_event_report	@ tmp590,
	movt	r0, #:upper16:g_event_report	@ tmp590,
	ldr	ip, [r0, #0]	@ g_event_report.1746, g_event_report
	cmp	ip, #0	@ g_event_report.1746,
	movne	r2, r8	@, D.40014
	bne	.L392	@,
	b	.L326	@
.L370:
	movw	r3, #20022	@ tmp595,
	sub	lr, r3, #1	@ tmp592, tmp592,
	strb	r7, [r4, r3]	@ D.40003, <variable>.MP4Vol.reduced_resolution_vop_enable
	strb	r7, [r4, lr]	@ D.40003, <variable>.MP4Vol.newpred_enable
	b	.L372	@
.L424:
	add	r3, r4, #19968	@, pCtx,
	mov	r0, r5	@, tmp630
	add	r1, r3, #120	@,,
	bl	Bs_Get_Matrix	@
	b	.L362	@
.L425:
	add	r3, r4, #20224	@, pCtx,
	mov	r0, r5	@, tmp630
	add	r1, r3, #120	@,,
	bl	Bs_Get_Matrix	@
	b	.L360	@
.L428:
	.align	2
.L427:
	.word	.LANCHOR0+256
	.fnend
	.size	Mp4_Syntax_Vol, .-Mp4_Syntax_Vol
	.align	2
	.global	Mp4_Syntax_Vop
	.type	Mp4_Syntax_Vop, %function
Mp4_Syntax_Vop:
	.fnstart
.LFB1542:
	@ args = 0, pretend = 0, frame = 40
	@ frame_needed = 1, uses_anonymous_args = 0
	.movsp ip
	mov	ip, sp	@,
	stmfd	sp!, {r4, r5, r6, r7, r8, r9, sl, fp, ip, lr, pc}	@,
	.pad #4
	.save {r4, r5, r6, r7, r8, r9, sl, fp, ip, lr}
	.setfp fp, ip, #-4
	sub	fp, ip, #4	@,,
	.pad #44
	sub	sp, sp, #44	@,,
	push	{lr}
	bl	__gnu_mcount_nc
	mov	r5, #15616	@ tmp184,
	ldr	r3, [r0, r5]	@ D.39509, <variable>.Mp4DecParam.SlcNum
	mov	r4, r0	@ pCtx, pCtx
	mov	r8, r1	@ ptr, ptr
	mov	r6, r2	@ len, len
	cmp	r3, #0	@ D.39509,
	bne	.L480	@,
	movw	r1, #21269	@ tmp188,
	ldrb	r0, [r4, r1]	@ zero_extendqisi2	@ <variable>.MP4Syntax.vol_decode_over, <variable>.MP4Syntax.vol_decode_over
	cmp	r0, #0	@ <variable>.MP4Syntax.vol_decode_over,
	movweq	r2, #22041	@ tmp190,
	moveq	r5, #32	@ BitUsed,
	streqb	r0, [r4, r2]	@ <variable>.MP4Syntax.vol_decode_over, <variable>.MP4SyntaxState.vop_decode_right
	bne	.L481	@,
.L432:
	mov	r0, r5	@, BitUsed
	sub	sp, fp, #40
	ldmfd	sp, {r4, r5, r6, r7, r8, r9, sl, fp, sp, pc}
.L480:
	mov	r2, r3	@, D.39509
	mov	r0, #1	@,
	movw	r1, #:lower16:.LC23	@,
	movt	r1, #:upper16:.LC23	@,
	bl	dprint_vfmw	@
	movw	r1, #21269	@ tmp188,
	ldrb	r0, [r4, r1]	@ zero_extendqisi2	@ <variable>.MP4Syntax.vol_decode_over, <variable>.MP4Syntax.vol_decode_over
	mov	r3, #0	@ tmp187,
	str	r3, [r4, r5]	@ tmp187, <variable>.Mp4DecParam.SlcNum
	cmp	r0, #0	@ <variable>.MP4Syntax.vol_decode_over,
	movweq	r2, #22041	@ tmp190,
	moveq	r5, #32	@ BitUsed,
	streqb	r0, [r4, r2]	@ <variable>.MP4Syntax.vol_decode_over, <variable>.MP4SyntaxState.vop_decode_right
	beq	.L432	@,
.L481:
	sub	r5, fp, #76	@ tmp437,,
	add	r7, r4, #20992	@ tmp438, pCtx,
	add	r7, r7, #216	@ tmp438, tmp438,
	mov	r1, r8	@, ptr
	mov	r2, r6	@, len
	mov	r0, r5	@, tmp437
	bl	BsInit	@
	movw	sl, #22041	@ tmp196,
	mov	r0, r7	@, tmp438
	mov	r1, #60	@,
	bl	__memzero	@
	mov	r2, #0	@ tmp197,
	mov	r1, #32	@,
	strb	r2, [r4, sl]	@ tmp197, <variable>.MP4SyntaxState.vop_decode_right
	mov	r0, r5	@, tmp437
	movw	r8, #21208	@ tmp201,
	bl	BsSkip	@
	mov	r1, #2	@,
	mov	r0, r5	@, tmp437
	bl	BsGet	@
	movw	r1, #:lower16:.LC24	@,
	movt	r1, #:upper16:.LC24	@,
	uxtb	r2, r0	@ D.39525,
	mov	r0, #18	@,
	strb	r2, [r4, r8]	@ D.39525, <variable>.MP4Vop.vop_coding_type
	bl	dprint_vfmw	@
	ldrb	r2, [r4, r8]	@ zero_extendqisi2	@ D.39527, <variable>.MP4Vop.vop_coding_type
	cmp	r2, #3	@ D.39527,
	beq	.L482	@,
.L433:
	movw	r0, #21275	@ tmp216,
	ldrb	r3, [r4, r0]	@ zero_extendqisi2	@ D.39541, <variable>.MP4Syntax.coding_mode
	cmp	r3, #1	@ D.39541,
	beq	.L483	@,
	cmp	r3, #2	@ D.39541,
	beq	.L437	@,
.L436:
	movw	ip, #22600	@ tmp218,
	ldr	r1, [r4, ip]	@ <variable>.IPVopErr, <variable>.IPVopErr
	cmp	r1, #1	@ <variable>.IPVopErr,
	beq	.L484	@,
.L438:
	mov	r6, r6, asl #3	@ D.39556, len,
	mov	sl, #0	@ i,
	b	.L441	@
.L486:
	bl	BsPos	@
	mov	r1, #1	@,
	add	sl, sl, r1	@ i, i,
	cmp	r0, r6	@, D.39556
	mov	r0, r5	@, tmp437
	bgt	.L475	@,
	bl	BsGet	@
	cmp	r0, #0	@,
	mov	r0, r5	@, tmp437
	beq	.L439	@,
	bl	BsPos	@
	add	sl, sl, #1	@ i, i,
	cmp	r0, r6	@, D.39556
	bgt	.L475	@,
	cmp	sl, #6400	@ i,
	beq	.L485	@,
.L441:
	mov	r1, #1	@,
	mov	r0, r5	@, tmp437
	bl	BsGet	@
	cmp	r0, #0	@,
	mov	r0, r5	@, tmp437
	bne	.L486	@,
.L439:
	mov	r0, r5	@, tmp437
	mov	r1, #1	@,
	bl	BsGet	@
	subs	r8, r0, #0	@ D.39565,
	beq	.L479	@,
	movw	r2, #21376	@ tmp234,
	ldr	r1, [r4, r2]	@ D.39572, <variable>.MP4Syntax.syn_vol.vop_time_incr_bits
	cmp	r1, #0	@ D.39572,
	bne	.L487	@,
.L445:
	movw	r3, #21980	@ tmp236,
	movw	r8, #21984	@ tmp237,
	str	r1, [r4, r8]	@ time_increment, <variable>.MP4Syntax.time_increment
	mov	r0, r5	@, tmp437
	str	sl, [r4, r3]	@ i, <variable>.MP4Syntax.time_incr
	mov	r1, #1	@,
	bl	BsGet	@
	subs	r8, r0, #0	@ D.39577,
	beq	.L479	@,
	mov	r0, r5	@, tmp437
	mov	r1, #1	@,
	bl	BsGet	@
	movw	r2, #21209	@ tmp248,
	uxtb	ip, r0	@ D.39584,
	strb	ip, [r4, r2]	@ D.39584, <variable>.MP4Vop.vop_coded
	cmp	ip, #0	@ D.39584,
	beq	.L488	@,
	movw	r8, #21208	@ tmp264,
	ldrb	r3, [r4, r8]	@ zero_extendqisi2	@ temp.1802, <variable>.MP4Vop.vop_coding_type
	cmp	r3, #1	@ temp.1802,
	beq	.L448	@,
	cmp	r3, #3	@ temp.1802,
	beq	.L489	@,
.L449:
	movw	r3, #21210	@ tmp270,
	mov	r2, #0	@ tmp271,
	strb	r2, [r4, r3]	@ tmp271, <variable>.MP4Vop.vop_rounding_type
.L450:
	movw	lr, #21316	@ tmp276,
	movw	r0, #21211	@ tmp273,
	ldrb	r8, [r4, lr]	@ zero_extendqisi2	@ <variable>.MP4Syntax.syn_vol.video_object_layer_shape, <variable>.MP4Syntax.syn_vol.video_object_layer_shape
	mov	r1, #0	@ tmp274,
	strb	r1, [r4, r0]	@ tmp274, <variable>.MP4Vop.vop_reduced_resolution
	cmp	r8, #2	@ <variable>.MP4Syntax.syn_vol.video_object_layer_shape,
	beq	.L451	@,
	mov	r0, r5	@, tmp437
	mov	r1, #3	@,
	bl	BsGet	@
	movw	r2, #20010	@ tmp281,
	ldrb	r3, [r4, r2]	@ zero_extendqisi2	@ <variable>.MP4Vol.interlaced, <variable>.MP4Vol.interlaced
	movw	ip, #21212	@ tmp279,
	cmp	r3, #0	@ <variable>.MP4Vol.interlaced,
	strb	r0, [r4, ip]	@, <variable>.MP4Vop.intra_dc_vlc_thr
	bne	.L490	@,
	movw	lr, #21214	@ tmp292,
	movw	r0, #21213	@ tmp289,
	mov	r1, #2	@ tmp290,
	strb	r3, [r4, lr]	@ <variable>.MP4Vol.interlaced, <variable>.MP4Vop.alternate_vertical_scan_flag
	strb	r1, [r4, r0]	@ tmp290, <variable>.MP4Vop.top_field_first
.L453:
	movw	r8, #21320	@ tmp295,
	ldrb	r3, [r4, r8]	@ zero_extendqisi2	@ <variable>.MP4Syntax.syn_vol.sprite_enable, <variable>.MP4Syntax.syn_vol.sprite_enable
	sub	r2, r3, #1	@ tmp298, <variable>.MP4Syntax.syn_vol.sprite_enable,
	uxtb	ip, r2	@ tmp299, tmp298
	cmp	ip, #1	@ tmp299,
	bls	.L491	@,
.L454:
	mov	r0, r5	@, tmp437
	mov	r1, #5	@,
	bl	BsGet	@
	movw	r8, #21215	@ tmp329,
	uxtb	r2, r0	@ D.39648,
	strb	r2, [r4, r8]	@ D.39648, <variable>.MP4Vop.vop_quant
	cmp	r2, #0	@ D.39648,
	moveq	r2, #1	@ tmp332,
	streqb	r2, [r4, r8]	@ tmp332, <variable>.MP4Vop.vop_quant
	movw	r8, #21208	@ tmp334,
	ldrb	ip, [r4, r8]	@ zero_extendqisi2	@ <variable>.MP4Vop.vop_coding_type, <variable>.MP4Vop.vop_coding_type
	cmp	ip, #0	@ <variable>.MP4Vop.vop_coding_type,
	bne	.L492	@,
.L451:
	mov	r8, r7	@ tmp376, tmp438
	add	r7, r4, #21760	@ tmp371, pCtx,
	ldmia	r8!, {r0, r1, r2, r3}	@ tmp376,,,,
	add	ip, r7, #152	@ tmp371, tmp371,
	mov	lr, #19968	@ tmp363,
	mov	r7, #15616	@ tmp367,
	ldr	r9, [r4, lr]	@ <variable>.PicIntegrality, <variable>.PicIntegrality
	mov	sl, ip	@ tmp375, tmp371
	stmia	sl!, {r0, r1, r2, r3}	@ tmp375,,,,
	orr	ip, r9, #2	@ tmp366, <variable>.PicIntegrality,
	ldmia	r8!, {r0, r1, r2, r3}	@ tmp447,,,,
	str	ip, [r4, lr]	@ tmp366, <variable>.PicIntegrality
	ldr	lr, [r4, r7]	@, <variable>.Mp4DecParam.SlcNum
	add	ip, lr, #1	@ tmp370,,
	str	ip, [r4, r7]	@ tmp370, <variable>.Mp4DecParam.SlcNum
	movw	ip, #22041	@ tmp360,
	mov	lr, #1	@ tmp361,
	strb	lr, [r4, ip]	@ tmp361, <variable>.MP4SyntaxState.vop_decode_right
	mov	lr, sl	@ tmp448, tmp375
	stmia	lr!, {r0, r1, r2, r3}	@ tmp448,,,,
	ldmia	r8!, {r0, r1, r2, r3}	@ tmp449,,,,
	stmia	lr!, {r0, r1, r2, r3}	@ tmp448,,,,
	ldmia	r8, {r0, r1, r2}	@ tmp449,,,
	stmia	lr, {r0, r1, r2}	@ tmp450,,,
	mov	r0, r5	@, tmp437
	bl	BsPos	@
	movw	r2, #15709	@ tmp398,
	ldrb	r2, [r4, r2]	@ zero_extendqisi2	@ <variable>.IsLastSeg, <variable>.IsLastSeg
	movw	r1, #22056	@ tmp385,
	mov	r5, r0	@ BitUsed,
	mov	r0, r0, asr #31	@ tmp380, BitUsed,
	cmp	r5, #0	@ BitUsed,
	rsb	r6, r5, r6	@ tmp378, BitUsed, D.39556
	mov	r3, r0, lsr #29	@ tmp381, tmp380,
	add	r0, r5, #7	@ tmp393, BitUsed,
	add	ip, r5, r3	@ tmp382, BitUsed, tmp381
	movge	r0, r5	@ BitUsed, BitUsed
	and	lr, ip, #7	@ tmp383, tmp382,
	ldr	ip, [r4, r1]	@ <variable>.BitsObj.offset, <variable>.BitsObj.offset
	movw	r1, #22048	@ tmp395,
	cmp	r2, #0	@ <variable>.IsLastSeg,
	ldr	r1, [r4, r1]	@ <variable>.BitsObj.phy_addr, <variable>.BitsObj.phy_addr
	rsb	r3, r3, lr	@ tmp384, tmp381, tmp383
	add	r3, r3, ip	@ tmp389, tmp384, <variable>.BitsObj.offset
	str	r6, [r4, #1288]	@ tmp378, <variable>.bit_len
	add	lr, r1, r0, asr #3	@, tmp397, <variable>.BitsObj.phy_addr, BitUsed,
	strb	r3, [r4, #1286]	@ tmp389, <variable>.bit_offset
	str	lr, [r4, #1296]	@ tmp397, <variable>.phy_address
	bne	.L466	@,
	movw	r0, #15789	@ tmp400,
	ldrb	r1, [r4, r0]	@ zero_extendqisi2	@ <variable>.IsLastSeg, <variable>.IsLastSeg
	cmp	r1, #1	@ <variable>.IsLastSeg,
	beq	.L493	@,
.L466:
	mov	r0, #0	@ tmp409,
	str	r0, [r4, #1300]	@ tmp409, <variable>.phy_address
	str	r0, [r4, #1292]	@ tmp409, <variable>.bit_len
	strb	r0, [r4, #1287]	@ tmp409, <variable>.bit_offset
.L467:
	movw	lr, #19964	@ tmp428,
	movw	ip, #21208	@ tmp413,
	movw	r0, #21217	@ tmp416,
	movw	r1, #21216	@ tmp419,
	movw	r3, #21215	@ tmp422,
	ldr	r2, [r4, lr]	@ D.39702, <variable>.StreamIDNum
	ldrb	lr, [r4, ip]	@ zero_extendqisi2	@ <variable>.MP4Vop.vop_coding_type, <variable>.MP4Vop.vop_coding_type
	ldrb	ip, [r4, r0]	@ zero_extendqisi2	@ <variable>.MP4Vop.vop_fcode_backward, <variable>.MP4Vop.vop_fcode_backward
	cmp	r2, #0	@ D.39702,
	ldrb	r0, [r4, r1]	@ zero_extendqisi2	@ <variable>.MP4Vop.vop_fcode_forward, <variable>.MP4Vop.vop_fcode_forward
	ldrb	r1, [r4, r3]	@ zero_extendqisi2	@ <variable>.MP4Vop.vop_quant, <variable>.MP4Vop.vop_quant
	movw	r3, #21212	@ tmp425,
	ldrb	r3, [r4, r3]	@ zero_extendqisi2	@ <variable>.MP4Vop.intra_dc_vlc_thr, <variable>.MP4Vop.intra_dc_vlc_thr
	strb	lr, [r4, #1284]	@ <variable>.MP4Vop.vop_coding_type, <variable>.vop_coding_type
	strb	ip, [r4, #1282]	@ <variable>.MP4Vop.vop_fcode_backward, <variable>.vop_fcode_backward
	strb	r0, [r4, #1281]	@ <variable>.MP4Vop.vop_fcode_forward, <variable>.vop_fcode_forward
	strb	r1, [r4, #1285]	@ <variable>.MP4Vop.vop_quant, <variable>.vop_quant
	strb	r3, [r4, #1283]	@ <variable>.MP4Vop.intra_dc_vlc_thr, <variable>.intra_dc_vlc_thr
	bne	.L494	@,
.L468:
	mov	r0, r4	@, pCtx
	bl	MP4_Record_SlcSegID	@
	b	.L432	@
.L482:
	movw	ip, #:lower16:g_VdmCharacter	@ tmp205,
	movt	ip, #:upper16:g_VdmCharacter	@ tmp205,
	ldr	r8, [ip, #0]	@ g_VdmCharacter, g_VdmCharacter
	ands	r8, r8, #8	@ tmp206, g_VdmCharacter,
	bne	.L433	@,
	mov	r0, r5	@, tmp437
	strb	r8, [r4, sl]	@ tmp206, <variable>.MP4SyntaxState.vop_decode_right
	bl	BsPos	@
	movw	r3, #:lower16:g_event_report	@ tmp212,
	movt	r3, #:upper16:g_event_report	@ tmp212,
	ldr	ip, [r3, #0]	@ g_event_report.493, g_event_report
	cmp	ip, #0	@ g_event_report.493,
	mov	r5, r0	@ BitUsed,
	beq	.L434	@,
	movw	lr, #22960	@ tmp213,
	mov	r2, r8	@, tmp206
	ldr	r0, [r4, lr]	@, <variable>.ChanID
	mov	r1, #103	@,
	mov	r3, r8	@, tmp2
	blx	ip	@ g_event_report.493
.L434:
	movw	r1, #:lower16:.LC25	@,
	mov	r0, #1	@,
	movt	r1, #:upper16:.LC25	@,
	bl	dprint_vfmw	@
	b	.L432	@
.L483:
	cmp	r2, #0	@ D.39527,
	beq	.L436	@,
.L437:
	mov	r0, r5	@, tmp437
	bl	BsPos	@
	mov	r5, r0	@ BitUsed,
	b	.L432	@
.L485:
	movw	r2, #22041	@ tmp431,
	mov	r0, r5	@, tmp437
	mov	r5, #0	@ tmp432,
	strb	r5, [r4, r2]	@ tmp432, <variable>.MP4SyntaxState.vop_decode_right
	bl	BsPos	@
	mov	r2, sl	@, i
	movw	r1, #:lower16:.LC30	@,
	movt	r1, #:upper16:.LC30	@,
	mov	r5, r0	@ BitUsed,
	mov	r0, #1	@,
	bl	dprint_vfmw	@
	b	.L432	@
.L475:
	mov	r0, r5	@, tmp437
	bl	BsPos	@
	movw	r1, #:lower16:.LC26	@,
	movt	r1, #:upper16:.LC26	@,
	mov	r5, r0	@ BitUsed,
	mov	r0, #1	@,
	bl	dprint_vfmw	@
	b	.L432	@
.L484:
	cmp	r2, #0	@ D.39527,
	beq	.L438	@,
	b	.L437	@
.L479:
	mov	r0, #1	@,
	movw	r1, #:lower16:.LC13	@,
	movt	r1, #:upper16:.LC13	@,
	bl	dprint_vfmw	@
	movw	r1, #22041	@ tmp240,
	mov	r0, r5	@, tmp437
	strb	r8, [r4, r1]	@ D.39577, <variable>.MP4SyntaxState.vop_decode_right
	bl	BsPos	@
	mov	r5, r0	@ BitUsed,
	movw	r0, #:lower16:g_event_report	@ tmp244,
	movt	r0, #:upper16:g_event_report	@ tmp244,
	ldr	ip, [r0, #0]	@ g_event_report.1800, g_event_report
	cmp	ip, #0	@ g_event_report.1800,
	beq	.L432	@,
	movw	lr, #22960	@ tmp245,
	mov	r2, r8	@, D.39577
	ldr	r0, [r4, lr]	@, <variable>.ChanID
	mov	r1, #103	@,
	mov	r3, r8	@, tmp2
	blx	ip	@ g_event_report.1800
	b	.L432	@
.L487:
	mov	r0, r5	@, tmp437
	bl	BsGet	@
	mov	r1, r0	@ time_increment,
	b	.L445	@
.L488:
	mov	r3, #19968	@ tmp259,
	movw	ip, #21912	@ tmp256,
	ldr	r1, [r4, r3]	@ <variable>.PicIntegrality, <variable>.PicIntegrality
	mov	lr, #4	@ tmp251,
	mov	r0, r5	@, tmp437
	strb	lr, [r4, ip]	@ tmp251, <variable>.MP4Syntax.syn_vop.vop_coding_type
	orr	r2, r1, #128	@ tmp262, <variable>.PicIntegrality,
	movw	r1, #21208	@ tmp250,
	str	r2, [r4, r3]	@ tmp262, <variable>.PicIntegrality
	movw	r3, #22041	@ tmp253,
	mov	r5, #1	@ tmp254,
	strb	lr, [r4, r1]	@ tmp251, <variable>.MP4Vop.vop_coding_type
	strb	r5, [r4, r3]	@ tmp254, <variable>.MP4SyntaxState.vop_decode_right
	bl	BsPos	@
	mov	r5, r0	@ BitUsed,
	b	.L432	@
.L494:
	mov	r0, #1	@,
	movw	r1, #:lower16:.LC29	@,
	movt	r1, #:upper16:.LC29	@,
	bl	dprint_vfmw	@
	mov	r0, r4	@, pCtx
	bl	MP4_ClearCurPic	@
	b	.L468	@
.L489:
	movw	lr, #21320	@ tmp265,
	ldrb	r0, [r4, lr]	@ zero_extendqisi2	@ <variable>.MP4Syntax.syn_vol.sprite_enable, <variable>.MP4Syntax.syn_vol.sprite_enable
	cmp	r0, #2	@ <variable>.MP4Syntax.syn_vol.sprite_enable,
	bne	.L449	@,
.L448:
	mov	r0, r5	@, tmp437
	mov	r1, #1	@,
	bl	BsGet	@
	movw	ip, #21210	@ tmp268,
	strb	r0, [r4, ip]	@, <variable>.MP4Vop.vop_rounding_type
	b	.L450	@
.L492:
	mov	r0, r5	@, tmp437
	mov	r1, #3	@,
	bl	BsGet	@
	movw	r3, #21216	@ tmp337,
	uxtb	sl, r0	@ D.39655,
	strb	sl, [r4, r3]	@ D.39655, <variable>.MP4Vop.vop_fcode_forward
	cmp	sl, #0	@ D.39655,
	beq	.L495	@,
	ldrb	ip, [r4, r8]	@ zero_extendqisi2	@ <variable>.MP4Vop.vop_coding_type, <variable>.MP4Vop.vop_coding_type
	cmp	ip, #2	@ <variable>.MP4Vop.vop_coding_type,
	bne	.L451	@,
	mov	r0, r5	@, tmp437
	mov	r1, #3	@,
	bl	BsGet	@
	movw	r3, #21217	@ tmp351,
	uxtb	r8, r0	@ D.39666,
	strb	r8, [r4, r3]	@ D.39666, <variable>.MP4Vop.vop_fcode_backward
	cmp	r8, #0	@ D.39666,
	bne	.L451	@,
	add	r3, r3, #824	@ tmp353, tmp353,
	mov	r0, r5	@, tmp437
	strb	r8, [r4, r3]	@ D.39666, <variable>.MP4SyntaxState.vop_decode_right
	bl	BsPos	@
	movw	r2, #:lower16:g_event_report	@ tmp357,
	movt	r2, #:upper16:g_event_report	@ tmp357,
	ldr	ip, [r2, #0]	@ g_event_report.1819, g_event_report
	cmp	ip, #0	@ g_event_report.1819,
	mov	r5, r0	@ BitUsed,
	beq	.L465	@,
	movw	r1, #22960	@ tmp358,
	mov	r2, r8	@, D.39666
	ldr	r0, [r4, r1]	@, <variable>.ChanID
	mov	r3, r8	@, tmp2
	mov	r1, #103	@,
	blx	ip	@ g_event_report.1819
.L465:
	movw	r1, #:lower16:.LC28	@,
	mov	r0, #1	@,
	movt	r1, #:upper16:.LC28	@,
	bl	dprint_vfmw	@
	b	.L432	@
.L490:
	mov	r1, #1	@,
	mov	r0, r5	@, tmp437
	bl	BsGet	@
	movw	r8, #21213	@ tmp284,
	mov	r1, #1	@,
	strb	r0, [r4, r8]	@, <variable>.MP4Vop.top_field_first
	mov	r0, r5	@, tmp437
	bl	BsGet	@
	movw	r3, #21214	@ tmp287,
	strb	r0, [r4, r3]	@, <variable>.MP4Vop.alternate_vertical_scan_flag
	b	.L453	@
.L491:
	movw	r0, #21208	@ tmp300,
	ldrb	r1, [r4, r0]	@ zero_extendqisi2	@ <variable>.MP4Vop.vop_coding_type, <variable>.MP4Vop.vop_coding_type
	cmp	r1, #3	@ <variable>.MP4Vop.vop_coding_type,
	bne	.L454	@,
	movw	ip, #21332	@ tmp302,
	ldrb	lr, [r4, ip]	@ zero_extendqisi2	@ <variable>.MP4Syntax.syn_vol.sprite_warping_points, <variable>.MP4Syntax.syn_vol.sprite_warping_points
	cmp	lr, #0	@ <variable>.MP4Syntax.syn_vol.sprite_warping_points,
	beq	.L454	@,
	add	r2, r4, #20992	@ ivtmp.1782, pCtx,
	mov	r9, #0	@,
	add	r8, r2, #252	@ ivtmp.1782, ivtmp.1782,
	str	r9, [fp, #-80]	@, %sfp
	str	r6, [fp, #-84]	@ D.39556, %sfp
.L461:
	mov	r0, r5	@, tmp437
	bl	bs_get_spritetrajectory	@
	subs	r6, r0, #0	@ length,
	moveq	sl, r6	@ x, length
	bne	.L496	@,
.L456:
	mov	lr, #22016	@,
	ldr	r0, [r4, lr]	@ <variable>.MP4Syntax.divx_version, <variable>.MP4Syntax.divx_version
	cmp	r0, #500	@ <variable>.MP4Syntax.divx_version,
	bne	.L457	@,
	movw	r2, #22020	@,
	movw	ip, #413	@,
	ldr	r9, [r4, r2]	@ <variable>.MP4Syntax.divx_build, <variable>.MP4Syntax.divx_build
	cmp	r9, ip	@ <variable>.MP4Syntax.divx_build,
	beq	.L458	@,
.L457:
	mov	r0, r5	@, tmp437
	mov	r1, #1	@,
	bl	BsSkip	@
.L458:
	mov	r0, r5	@, tmp437
	bl	bs_get_spritetrajectory	@
	subs	r9, r0, #0	@ length.1806,
	moveq	r6, r9	@ y, length.1806
	bne	.L497	@,
.L460:
	mov	r0, r5	@, tmp437
	mov	r1, #1	@,
	bl	BsSkip	@
	str	r6, [r8, #4]	@ y, <variable>.y
	str	sl, [r8, #0]	@ x, <variable>.x
	add	r8, r8, #8	@ ivtmp.1782, ivtmp.1782,
	ldr	sl, [fp, #-80]	@, %sfp
	add	r6, sl, #1	@,,
	movw	sl, #21332	@,
	str	r6, [fp, #-80]	@, %sfp
	ldrb	r0, [r4, sl]	@ zero_extendqisi2	@ <variable>.MP4Syntax.syn_vol.sprite_warping_points, <variable>.MP4Syntax.syn_vol.sprite_warping_points
	cmp	r0, r6	@ <variable>.MP4Syntax.syn_vol.sprite_warping_points,
	bhi	.L461	@,
	ldr	r6, [fp, #-84]	@ D.39556, %sfp
	b	.L454	@
.L493:
	movw	r1, #15800	@ tmp402,
	movw	ip, #15796	@ tmp407,
	ldr	lr, [r4, r1]	@ <variable>.LenInByte, <variable>.LenInByte
	ldr	r3, [r4, ip]	@ <variable>.PhyAddr, <variable>.PhyAddr
	strb	r2, [r4, #1287]	@ <variable>.IsLastSeg, <variable>.bit_offset
	mov	r2, lr, asl #3	@ tmp404, <variable>.LenInByte,
	str	r2, [r4, #1292]	@ tmp404, <variable>.bit_len
	str	r3, [r4, #1300]	@ <variable>.PhyAddr, <variable>.phy_address
	b	.L467	@
.L495:
	mov	r0, r5	@, tmp437
	movw	r5, #22041	@ tmp339,
	strb	sl, [r4, r5]	@ D.39655, <variable>.MP4SyntaxState.vop_decode_right
	bl	BsPos	@
	movw	r1, #:lower16:g_event_report	@ tmp343,
	movt	r1, #:upper16:g_event_report	@ tmp343,
	ldr	ip, [r1, #0]	@ g_event_report.1814, g_event_report
	cmp	ip, #0	@ g_event_report.1814,
	mov	r5, r0	@ BitUsed,
	beq	.L464	@,
	movw	lr, #22960	@ tmp344,
	mov	r2, sl	@, D.39655
	ldr	r0, [r4, lr]	@, <variable>.ChanID
	mov	r1, #103	@,
	mov	r3, sl	@, tmp2
	blx	ip	@ g_event_report.1814
.L464:
	movw	r0, #21208	@ tmp346,
	movw	r1, #:lower16:.LC27	@,
	ldrb	r2, [r4, r0]	@ zero_extendqisi2	@, <variable>.MP4Vop.vop_coding_type
	movt	r1, #:upper16:.LC27	@,
	mov	r0, #1	@,
	bl	dprint_vfmw	@
	b	.L432	@
.L497:
	mov	r1, r9	@, length.1806
	mov	r0, r5	@, tmp437
	bl	BsGet	@
	sub	r1, r9, #1	@ tmp320, length.1806,
	movs	r3, r0, asr r1	@, y,
	mov	r6, r0	@ y,
	moveq	lr, #1	@,
	moveq	r3, lr, asl r9	@ tmp322,,
	subeq	r3, r3, #1	@ tmp324, tmp322,
	eoreq	r6, r0, r3	@ D.39643, y, tmp324
	rsbeq	r6, r6, #0	@ y, D.39643
	b	.L460	@
.L496:
	mov	r1, r6	@, length
	mov	r0, r5	@, tmp437
	bl	BsGet	@
	sub	r1, r6, #1	@ tmp307, length,
	movs	r3, r0, asr r1	@, x,
	mov	sl, r0	@ x,
	moveq	lr, #1	@,
	moveq	r3, lr, asl r6	@ tmp309,,
	subeq	r3, r3, #1	@ tmp311, tmp309,
	eoreq	sl, r0, r3	@ D.39630, x, tmp311
	rsbeq	sl, sl, #0	@ x, D.39630
	b	.L456	@
	.fnend
	.size	Mp4_Syntax_Vop, .-Mp4_Syntax_Vop
	.align	2
	.global	Mp4_Syntax_Vo
	.type	Mp4_Syntax_Vo, %function
Mp4_Syntax_Vo:
	.fnstart
.LFB1541:
	@ args = 0, pretend = 0, frame = 40
	@ frame_needed = 1, uses_anonymous_args = 0
	.movsp ip
	mov	ip, sp	@,
	stmfd	sp!, {r4, r5, r6, r7, r8, r9, sl, fp, ip, lr, pc}	@,
	.pad #4
	.save {r4, r5, r6, r7, r8, r9, sl, fp, ip, lr}
	.setfp fp, ip, #-4
	sub	fp, ip, #4	@,,
	.pad #44
	sub	sp, sp, #44	@,,
	push	{lr}
	bl	__gnu_mcount_nc
	sub	r5, fp, #76	@ tmp275,,
	mov	r4, r0	@ pCtx, pCtx
	mov	r7, r2	@ len, len
	mov	r0, r5	@, tmp275
	mov	r6, #1	@ tmp160,
	bl	BsInit	@
	movw	ip, #21285	@ tmp159,
	movw	r3, #21286	@ tmp162,
	movw	r2, #21287	@ tmp165,
	strb	r6, [r4, ip]	@ tmp160, <variable>.MP4Syntax.syn_vos.visual_object_verid
	mov	ip, #0	@ tmp157,
	strb	ip, [r4, r3]	@ tmp157, <variable>.MP4Syntax.syn_vos.visual_object_priority
	movw	r3, #21288	@ tmp168,
	strb	ip, [r4, r2]	@ tmp157, <variable>.MP4Syntax.syn_vos.visual_object_type
	movw	r2, #21289	@ tmp171,
	strb	ip, [r4, r3]	@ tmp157, <variable>.MP4Syntax.syn_vos.video_signal_type
	movw	r3, #21290	@ tmp174,
	strb	ip, [r4, r2]	@ tmp157, <variable>.MP4Syntax.syn_vos.video_format
	movw	r2, #21291	@ tmp177,
	strb	ip, [r4, r3]	@ tmp157, <variable>.MP4Syntax.syn_vos.video_range
	movw	r0, #21304	@ tmp184,
	movw	r3, #21296	@ tmp180,
	strb	ip, [r4, r2]	@ tmp157, <variable>.MP4Syntax.syn_vos.colour_description
	movw	r1, #21284	@ tmp156,
	movw	r2, #21300	@ tmp182,
	str	ip, [r4, r0]	@ tmp157, <variable>.MP4Syntax.syn_vos.matrix_coefficients
	mov	r0, r5	@, tmp275
	strb	ip, [r4, r1]	@ tmp157, <variable>.MP4Syntax.syn_vos.is_visual_object_identifier
	mov	r1, #32	@,
	str	ip, [r4, r3]	@ tmp157, <variable>.MP4Syntax.syn_vos.colour_primaries
	str	ip, [r4, r2]	@ tmp157, <variable>.MP4Syntax.syn_vos.transfer_characteristics
	bl	BsSkip	@
	mov	r0, r5	@, tmp275
	mov	r1, r6	@, tmp160
	bl	BsGet	@
	movw	r3, #19976	@ tmp188,
	uxtb	r0, r0	@ D.39433,
	strb	r0, [r4, r3]	@ D.39433, <variable>.MP4Vos.is_visual_object_identifier
	cmp	r0, #0	@ D.39433,
	movweq	r3, #19977	@ tmp196,
	streqb	r6, [r4, r3]	@ tmp160, <variable>.MP4Vos.visual_object_verid
	bne	.L506	@,
	mov	r0, r5	@, tmp275
	mov	r1, #4	@,
	bl	BsGet	@
	movw	r3, #19979	@ tmp200,
	uxtb	r6, r0	@ D.39443,
	strb	r6, [r4, r3]	@ D.39443, <variable>.MP4Vos.visual_object_type
	cmp	r6, #1	@ D.39443,
	beq	.L507	@,
.L501:
	mov	r0, r5	@, tmp275
	movw	r5, #22037	@ tmp220,
	mov	r6, #0	@ tmp221,
	strb	r6, [r4, r5]	@ tmp221, <variable>.MP4SyntaxState.vo_decode_right
	bl	BsPos	@
	mov	r5, r0	@ BitUsed,
	movw	r0, #:lower16:g_event_report	@ tmp224,
	movt	r0, #:upper16:g_event_report	@ tmp224,
	ldr	ip, [r0, #0]	@ g_event_report.489, g_event_report
	cmp	ip, r6	@ g_event_report.489,
	beq	.L503	@,
	movw	lr, #22960	@ tmp225,
	mov	r2, r6	@, tmp221
	ldr	r0, [r4, lr]	@, <variable>.ChanID
	mov	r1, #102	@,
	mov	r3, r6	@, tmp2
	blx	ip	@ g_event_report.489
.L503:
	mov	r0, r5	@, BitUsed
	sub	sp, fp, #40
	ldmfd	sp, {r4, r5, r6, r7, r8, r9, sl, fp, sp, pc}
.L506:
	mov	r1, #4	@,
	mov	r0, r5	@, tmp275
	bl	BsGet	@
	movw	r2, #19977	@ tmp191,
	mov	r1, #3	@,
	movw	r6, #19978	@ tmp194,
	strb	r0, [r4, r2]	@, <variable>.MP4Vos.visual_object_verid
	mov	r0, r5	@, tmp275
	bl	BsGet	@
	mov	r1, #4	@,
	strb	r0, [r4, r6]	@, <variable>.MP4Vos.visual_object_priority
	mov	r0, r5	@, tmp275
	bl	BsGet	@
	movw	r3, #19979	@ tmp200,
	uxtb	r6, r0	@ D.39443,
	strb	r6, [r4, r3]	@ D.39443, <variable>.MP4Vos.visual_object_type
	cmp	r6, #1	@ D.39443,
	bne	.L501	@,
.L507:
	mov	r1, r6	@, D.39443
	mov	r0, r5	@, tmp275
	bl	BsGet	@
	movw	ip, #19980	@ tmp203,
	uxtb	r1, r0	@ D.39448,
	strb	r1, [r4, ip]	@ D.39448, <variable>.MP4Vos.video_signal_type
	cmp	r1, #0	@ D.39448,
	bne	.L508	@,
.L502:
	movw	r1, #22037	@ tmp227,
	mov	ip, #1	@ tmp228,
	mov	r0, r5	@, tmp275
	strb	ip, [r4, r1]	@ tmp228, <variable>.MP4SyntaxState.vo_decode_right
	bl	BsPos	@
	cmp	r0, r7, asl #3	@, len,
	bgt	.L504	@,
	movw	r8, #19976	@ tmp233,
	movw	r6, #19977	@ tmp237,
	movw	lr, #19978	@ tmp241,
	movw	ip, #19979	@ tmp245,
	movw	r0, #19980	@ tmp249,
	movw	r1, #19981	@ tmp253,
	movw	r2, #19982	@ tmp257,
	movw	sl, #19983	@ tmp261,
	movw	r7, #19992	@ tmp268,
	ldrb	r9, [r4, r8]	@ zero_extendqisi2	@ <variable>.MP4Vos.is_visual_object_identifier, <variable>.MP4Vos.is_visual_object_identifier
	ldrb	r8, [r4, r6]	@ zero_extendqisi2	@ <variable>.MP4Vos.visual_object_verid, <variable>.MP4Vos.visual_object_verid
	movw	r3, #19988	@ tmp265,
	ldrb	r6, [r4, lr]	@ zero_extendqisi2	@ <variable>.MP4Vos.visual_object_priority, <variable>.MP4Vos.visual_object_priority
	ldrb	lr, [r4, ip]	@ zero_extendqisi2	@ <variable>.MP4Vos.visual_object_type, <variable>.MP4Vos.visual_object_type
	ldrb	ip, [r4, r0]	@ zero_extendqisi2	@ <variable>.MP4Vos.video_signal_type, <variable>.MP4Vos.video_signal_type
	ldrb	r0, [r4, r1]	@ zero_extendqisi2	@ <variable>.MP4Vos.video_format, <variable>.MP4Vos.video_format
	ldrb	r1, [r4, r2]	@ zero_extendqisi2	@ <variable>.MP4Vos.video_range, <variable>.MP4Vos.video_range
	ldrb	r2, [r4, sl]	@ zero_extendqisi2	@ <variable>.MP4Vos.colour_description, <variable>.MP4Vos.colour_description
	ldr	sl, [r4, r7]	@, <variable>.MP4Vos.transfer_characteristics
	movw	r7, #19996	@ tmp271,
	ldr	r3, [r4, r3]	@ <variable>.MP4Vos.colour_primaries, <variable>.MP4Vos.colour_primaries
	str	sl, [fp, #-80]	@, %sfp
	movw	sl, #21284	@ tmp232,
	ldr	r7, [r4, r7]	@ <variable>.MP4Vos.matrix_coefficients, <variable>.MP4Vos.matrix_coefficients
	strb	r9, [r4, sl]	@ <variable>.MP4Vos.is_visual_object_identifier, <variable>.MP4Syntax.syn_vos.is_visual_object_identifier
	movw	sl, #21285	@ tmp236,
	strb	r8, [r4, sl]	@ <variable>.MP4Vos.visual_object_verid, <variable>.MP4Syntax.syn_vos.visual_object_verid
	movw	r8, #21304	@ tmp270,
	str	r7, [r4, r8]	@ <variable>.MP4Vos.matrix_coefficients, <variable>.MP4Syntax.syn_vos.matrix_coefficients
	movw	r7, #21286	@ tmp240,
	strb	r6, [r4, r7]	@ <variable>.MP4Vos.visual_object_priority, <variable>.MP4Syntax.syn_vos.visual_object_priority
	movw	r6, #21287	@ tmp244,
	strb	lr, [r4, r6]	@ <variable>.MP4Vos.visual_object_type, <variable>.MP4Syntax.syn_vos.visual_object_type
	movw	lr, #21288	@ tmp248,
	strb	ip, [r4, lr]	@ <variable>.MP4Vos.video_signal_type, <variable>.MP4Syntax.syn_vos.video_signal_type
	movw	lr, #21289	@ tmp252,
	strb	r0, [r4, lr]	@ <variable>.MP4Vos.video_format, <variable>.MP4Syntax.syn_vos.video_format
	movw	ip, #21290	@ tmp256,
	movw	lr, #21291	@ tmp260,
	movw	r0, #21296	@ tmp264,
	str	r3, [r4, r0]	@ <variable>.MP4Vos.colour_primaries, <variable>.MP4Syntax.syn_vos.colour_primaries
	movw	r3, #21300	@ tmp267,
	strb	r1, [r4, ip]	@ <variable>.MP4Vos.video_range, <variable>.MP4Syntax.syn_vos.video_range
	strb	r2, [r4, lr]	@ <variable>.MP4Vos.colour_description, <variable>.MP4Syntax.syn_vos.colour_description
	ldr	r2, [fp, #-80]	@, %sfp
	str	r2, [r4, r3]	@, <variable>.MP4Syntax.syn_vos.transfer_characteristics
.L504:
	mov	r0, r5	@, tmp275
	bl	BsPos	@
	mov	r5, r0	@ BitUsed,
	b	.L503	@
.L508:
	mov	r1, #3	@,
	mov	r0, r5	@, tmp275
	bl	BsGet	@
	movw	ip, #19981	@ tmp206,
	mov	r1, r6	@, D.39443
	strb	r0, [r4, ip]	@, <variable>.MP4Vos.video_format
	mov	r0, r5	@, tmp275
	bl	BsGet	@
	movw	r3, #19982	@ tmp209,
	mov	r1, r6	@, D.39443
	strb	r0, [r4, r3]	@, <variable>.MP4Vos.video_range
	mov	r0, r5	@, tmp275
	bl	BsGet	@
	movw	r2, #19983	@ tmp212,
	uxtb	r0, r0	@ D.39457,
	strb	r0, [r4, r2]	@ D.39457, <variable>.MP4Vos.colour_description
	cmp	r0, #0	@ D.39457,
	beq	.L502	@,
	mov	r1, #8	@,
	mov	r0, r5	@, tmp275
	bl	BsGet	@
	movw	r3, #19988	@ tmp215,
	mov	r1, #8	@,
	str	r0, [r4, r3]	@, <variable>.MP4Vos.colour_primaries
	mov	r0, r5	@, tmp275
	bl	BsGet	@
	movw	r2, #19992	@ tmp217,
	mov	r1, #8	@,
	str	r0, [r4, r2]	@, <variable>.MP4Vos.transfer_characteristics
	mov	r0, r5	@, tmp275
	bl	BsGet	@
	movw	r1, #19996	@ tmp219,
	str	r0, [r4, r1]	@, <variable>.MP4Vos.matrix_coefficients
	b	.L502	@
	.fnend
	.size	Mp4_Syntax_Vo, .-Mp4_Syntax_Vo
	.align	2
	.global	Mp4_Syntax_ShortHeader
	.type	Mp4_Syntax_ShortHeader, %function
Mp4_Syntax_ShortHeader:
	.fnstart
.LFB1539:
	@ args = 0, pretend = 0, frame = 32
	@ frame_needed = 1, uses_anonymous_args = 0
	.movsp ip
	mov	ip, sp	@,
	stmfd	sp!, {r4, r5, r6, r7, fp, ip, lr, pc}	@,
	.pad #4
	.save {r4, r5, r6, r7, fp, ip, lr}
	.setfp fp, ip, #-4
	sub	fp, ip, #4	@,,
	.pad #32
	sub	sp, sp, #32	@,,
	push	{lr}
	bl	__gnu_mcount_nc
	mov	r4, #15616	@ tmp152,
	ldr	r3, [r0, r4]	@ D.39199, <variable>.Mp4DecParam.SlcNum
	mov	r5, r0	@ pCtx, pCtx
	mov	r7, r1	@ ptr, ptr
	mov	r6, r2	@ len, len
	cmp	r3, #0	@ D.39199,
	bne	.L532	@,
.L510:
	sub	r4, fp, #60	@ tmp312,,
	mov	r2, r6	@, len
	mov	r1, r7	@, ptr
	mov	r0, r4	@, tmp312
	bl	BsInit	@
	add	ip, r5, #20992	@, pCtx,
	add	r0, ip, #216	@,,
	mov	r1, #60	@,
	bl	__memzero	@
	mov	r1, #22	@,
	mov	r0, r4	@, tmp312
	bl	BsSkip	@
	mov	r1, #13	@,
	mov	r0, r4	@, tmp312
	bl	BsSkip	@
	mov	r1, #3	@,
	mov	r0, r4	@, tmp312
	bl	BsGet	@
	movw	r2, #21218	@ tmp162,
	uxtb	r1, r0	@ D.39211,
	strb	r1, [r5, r2]	@ D.39211, <variable>.MP4Vop.source_format
	sub	r0, r1, #1	@ tmp164, D.39211,
	cmp	r0, #3	@ tmp164,
	ldrls	pc, [pc, r0, asl #2]	@ tmp164
	b	.L511	@
.L516:
	.word	.L512
	.word	.L513
	.word	.L514
	.word	.L515
.L515:
	movw	r3, #21219	@ tmp195,
	mov	lr, #18	@ tmp196,
	movw	ip, #21220	@ tmp198,
	strb	lr, [r5, r3]	@ tmp196, <variable>.MP4Vop.num_gobs_invop
	movw	r1, #21976	@ tmp201,
	movw	r3, #21972	@ tmp203,
	mov	r2, #88	@ tmp199,
	mov	r0, #704	@ tmp202,
	mov	lr, #576	@ tmp204,
	strb	r2, [r5, ip]	@ tmp199, <variable>.MP4Vop.num_mb_ingob
	str	r0, [r5, r1]	@ tmp202, <variable>.MP4Syntax.image_width
	str	lr, [r5, r3]	@ tmp204, <variable>.MP4Syntax.image_height
.L517:
	mov	r0, r4	@, tmp312
	mov	r1, #1	@,
	bl	BsGet	@
	movw	r3, #21275	@ tmp215,
	ldrb	ip, [r5, r3]	@ zero_extendqisi2	@ <variable>.MP4Syntax.coding_mode, <variable>.MP4Syntax.coding_mode
	movw	r2, #21208	@ tmp213,
	cmp	ip, #2	@ <variable>.MP4Syntax.coding_mode,
	uxtb	r0, r0	@ D.39221,
	strb	r0, [r5, r2]	@ D.39221, <variable>.MP4Vop.vop_coding_type
	beq	.L519	@,
	movw	r1, #22600	@ tmp217,
	ldr	lr, [r5, r1]	@ <variable>.IPVopErr, <variable>.IPVopErr
	cmp	lr, #1	@ <variable>.IPVopErr,
	bne	.L520	@,
	cmp	r0, #0	@ D.39221,
	bne	.L519	@,
.L520:
	mov	r1, #4	@,
	mov	r0, r4	@, tmp312
	bl	BsSkip	@
	mov	r1, #5	@,
	mov	r0, r4	@, tmp312
	movw	r7, #21215	@ tmp222,
	bl	BsGet	@
	mov	r1, #1	@,
	mov	r6, r6, asl #3	@ D.39239, len,
	uxtb	r0, r0	@ D.39231,
	strb	r0, [r5, r7]	@ D.39231, <variable>.MP4Vop.vop_quant
	cmp	r0, #0	@ D.39231,
	mov	r0, r4	@, tmp312
	moveq	r2, #1	@ tmp225,
	streqb	r2, [r5, r7]	@ tmp225, <variable>.MP4Vop.vop_quant
	bl	BsSkip	@
	mov	r7, #0	@ i,
.L524:
	mov	r1, #1	@,
	mov	r0, r4	@, tmp312
	bl	BsGet	@
	cmp	r0, #1	@,
	beq	.L533	@,
	add	r7, r7, #1	@ i, i,
.L529:
	cmp	r7, #15	@ i,
	bls	.L525	@,
	mov	r0, r4	@, tmp312
	movw	r4, #22041	@ tmp237,
	mov	r6, #0	@ tmp238,
	strb	r6, [r5, r4]	@ tmp238, <variable>.MP4SyntaxState.vop_decode_right
	bl	BsPos	@
	movw	r2, #:lower16:g_event_report	@ tmp241,
	movt	r2, #:upper16:g_event_report	@ tmp241,
	ldr	ip, [r2, #0]	@ g_event_report.1874, g_event_report
	cmp	ip, r6	@ g_event_report.1874,
	mov	r4, r0	@ BitUsed,
	beq	.L518	@,
	movw	r3, #22960	@ tmp242,
	mov	r2, r6	@, tmp238
	ldr	r0, [r5, r3]	@, <variable>.ChanID
	mov	r1, #103	@,
	mov	r3, r6	@, tmp2
	blx	ip	@ g_event_report.1874
.L518:
	mov	r0, r4	@, BitUsed
	sub	sp, fp, #28
	ldmfd	sp, {r4, r5, r6, r7, fp, sp, pc}
.L514:
	movw	ip, #21219	@ tmp185,
	mov	r2, #18	@ tmp186,
	movw	r1, #21220	@ tmp188,
	strb	r2, [r5, ip]	@ tmp186, <variable>.MP4Vop.num_gobs_invop
	movw	r3, #21976	@ tmp191,
	movw	ip, #21972	@ tmp193,
	mov	r0, #22	@ tmp189,
	mov	lr, #352	@ tmp192,
	mov	r2, #288	@ tmp194,
	strb	r0, [r5, r1]	@ tmp189, <variable>.MP4Vop.num_mb_ingob
	str	lr, [r5, r3]	@ tmp192, <variable>.MP4Syntax.image_width
	str	r2, [r5, ip]	@ tmp194, <variable>.MP4Syntax.image_height
	b	.L517	@
.L513:
	movw	r1, #21219	@ tmp175,
	mov	r0, #9	@ tmp176,
	movw	r3, #21220	@ tmp178,
	strb	r0, [r5, r1]	@ tmp176, <variable>.MP4Vop.num_gobs_invop
	movw	ip, #21976	@ tmp181,
	movw	r1, #21972	@ tmp183,
	mov	lr, #11	@ tmp179,
	mov	r2, #176	@ tmp182,
	mov	r0, #144	@ tmp184,
	strb	lr, [r5, r3]	@ tmp179, <variable>.MP4Vop.num_mb_ingob
	str	r2, [r5, ip]	@ tmp182, <variable>.MP4Syntax.image_width
	str	r0, [r5, r1]	@ tmp184, <variable>.MP4Syntax.image_height
	b	.L517	@
.L512:
	movw	r3, #21219	@ tmp165,
	mov	lr, #6	@ tmp166,
	movw	ip, #21220	@ tmp168,
	strb	lr, [r5, r3]	@ tmp166, <variable>.MP4Vop.num_gobs_invop
	movw	r1, #21976	@ tmp171,
	movw	r3, #21972	@ tmp173,
	mov	r2, #8	@ tmp169,
	mov	r0, #128	@ tmp172,
	mov	lr, #96	@ tmp174,
	strb	r2, [r5, ip]	@ tmp169, <variable>.MP4Vop.num_mb_ingob
	str	r0, [r5, r1]	@ tmp172, <variable>.MP4Syntax.image_width
	str	lr, [r5, r3]	@ tmp174, <variable>.MP4Syntax.image_height
	b	.L517	@
.L511:
	mov	r0, r4	@, tmp312
	movw	r4, #22041	@ tmp205,
	mov	r6, #0	@ tmp206,
	strb	r6, [r5, r4]	@ tmp206, <variable>.MP4SyntaxState.vop_decode_right
	bl	BsPos	@
	mov	r4, r0	@ BitUsed,
	movw	r0, #:lower16:g_event_report	@ tmp209,
	movt	r0, #:upper16:g_event_report	@ tmp209,
	ldr	ip, [r0, #0]	@ g_event_report.462, g_event_report
	cmp	ip, r6	@ g_event_report.462,
	beq	.L518	@,
	movw	r1, #22960	@ tmp210,
	mov	r2, r6	@, tmp206
	ldr	r0, [r5, r1]	@, <variable>.ChanID
	mov	r3, r6	@, tmp2
	mov	r1, #102	@,
	blx	ip	@ g_event_report.462
	b	.L518	@
.L533:
	mov	r0, r4	@, tmp312
	add	r7, r7, #1	@ i, i,
	bl	BsPos	@
	mov	r1, #8	@,
	cmp	r0, r6	@, D.39239
	mov	r0, r4	@, tmp312
	bgt	.L534	@,
	bl	BsSkip	@
	cmp	r7, #15	@ i,
	bls	.L524	@,
	b	.L529	@
.L532:
	mov	r2, r3	@, D.39199
	mov	r0, #1	@,
	movw	r1, #:lower16:.LC23	@,
	movt	r1, #:upper16:.LC23	@,
	bl	dprint_vfmw	@
	mov	r3, #0	@ tmp155,
	str	r3, [r5, r4]	@ tmp155, <variable>.Mp4DecParam.SlcNum
	b	.L510	@
.L525:
	mov	r2, #19968	@ tmp247,
	mov	r3, #15616	@ tmp251,
	ldr	lr, [r5, r2]	@ <variable>.PicIntegrality, <variable>.PicIntegrality
	ldr	r1, [r5, r3]	@ <variable>.Mp4DecParam.SlcNum, <variable>.Mp4DecParam.SlcNum
	orr	r0, lr, #2	@ tmp250, <variable>.PicIntegrality,
	movw	lr, #21216	@ tmp255,
	str	r0, [r5, r2]	@ tmp250, <variable>.PicIntegrality
	mov	r0, r4	@, tmp312
	movw	r4, #22041	@ tmp244,
	add	ip, r1, #1	@ tmp254, <variable>.Mp4DecParam.SlcNum,
	str	ip, [r5, r3]	@ tmp254, <variable>.Mp4DecParam.SlcNum
	mov	r3, #1	@ tmp245,
	strb	r3, [r5, lr]	@ tmp245, <variable>.MP4Vop.vop_fcode_forward
	strb	r3, [r5, r4]	@ tmp245, <variable>.MP4SyntaxState.vop_decode_right
	bl	BsPos	@
	movw	r2, #15709	@ tmp279,
	ldrb	r2, [r5, r2]	@ zero_extendqisi2	@ <variable>.IsLastSeg, <variable>.IsLastSeg
	movw	r1, #22056	@ tmp266,
	mov	r4, r0	@ BitUsed,
	mov	r0, r0, asr #31	@ tmp261, BitUsed,
	cmp	r4, #0	@ BitUsed,
	rsb	r6, r4, r6	@ tmp259, BitUsed, D.39239
	mov	r3, r0, lsr #29	@ tmp262, tmp261,
	add	r0, r4, #7	@ tmp274, BitUsed,
	add	ip, r4, r3	@ tmp263, BitUsed, tmp262
	movge	r0, r4	@ BitUsed, BitUsed
	and	lr, ip, #7	@ tmp264, tmp263,
	ldr	ip, [r5, r1]	@ <variable>.BitsObj.offset, <variable>.BitsObj.offset
	movw	r1, #22048	@ tmp276,
	cmp	r2, #0	@ <variable>.IsLastSeg,
	ldr	r1, [r5, r1]	@ <variable>.BitsObj.phy_addr, <variable>.BitsObj.phy_addr
	rsb	r3, r3, lr	@ tmp265, tmp262, tmp264
	add	lr, r3, ip	@ tmp270, tmp265, <variable>.BitsObj.offset
	str	r6, [r5, #1288]	@ tmp259, <variable>.bit_len
	add	ip, r1, r0, asr #3	@, tmp278, <variable>.BitsObj.phy_addr, BitUsed,
	strb	lr, [r5, #1286]	@ tmp270, <variable>.bit_offset
	str	ip, [r5, #1296]	@ tmp278, <variable>.phy_address
	beq	.L535	@,
.L526:
	mov	r3, #0	@ tmp290,
	str	r3, [r5, #1300]	@ tmp290, <variable>.phy_address
	str	r3, [r5, #1292]	@ tmp290, <variable>.bit_len
	strb	r3, [r5, #1287]	@ tmp290, <variable>.bit_offset
.L527:
	movw	lr, #19964	@ tmp309,
	movw	ip, #21208	@ tmp294,
	movw	r0, #21217	@ tmp297,
	movw	r1, #21216	@ tmp300,
	movw	r3, #21215	@ tmp303,
	ldr	r2, [r5, lr]	@ D.39280, <variable>.StreamIDNum
	ldrb	lr, [r5, ip]	@ zero_extendqisi2	@ <variable>.MP4Vop.vop_coding_type, <variable>.MP4Vop.vop_coding_type
	ldrb	ip, [r5, r0]	@ zero_extendqisi2	@ <variable>.MP4Vop.vop_fcode_backward, <variable>.MP4Vop.vop_fcode_backward
	cmp	r2, #0	@ D.39280,
	ldrb	r0, [r5, r1]	@ zero_extendqisi2	@ <variable>.MP4Vop.vop_fcode_forward, <variable>.MP4Vop.vop_fcode_forward
	ldrb	r1, [r5, r3]	@ zero_extendqisi2	@ <variable>.MP4Vop.vop_quant, <variable>.MP4Vop.vop_quant
	movw	r3, #21212	@ tmp306,
	ldrb	r3, [r5, r3]	@ zero_extendqisi2	@ <variable>.MP4Vop.intra_dc_vlc_thr, <variable>.MP4Vop.intra_dc_vlc_thr
	strb	lr, [r5, #1284]	@ <variable>.MP4Vop.vop_coding_type, <variable>.vop_coding_type
	strb	ip, [r5, #1282]	@ <variable>.MP4Vop.vop_fcode_backward, <variable>.vop_fcode_backward
	strb	r0, [r5, #1281]	@ <variable>.MP4Vop.vop_fcode_forward, <variable>.vop_fcode_forward
	strb	r1, [r5, #1285]	@ <variable>.MP4Vop.vop_quant, <variable>.vop_quant
	strb	r3, [r5, #1283]	@ <variable>.MP4Vop.intra_dc_vlc_thr, <variable>.intra_dc_vlc_thr
	bne	.L536	@,
.L528:
	mov	r0, r5	@, pCtx
	bl	MP4_Record_SlcSegID	@
	b	.L518	@
.L519:
	mov	r0, r4	@, tmp312
	bl	BsPos	@
	mov	r4, r0	@ BitUsed,
	b	.L518	@
.L535:
	movw	r3, #15789	@ tmp281,
	ldrb	ip, [r5, r3]	@ zero_extendqisi2	@ <variable>.IsLastSeg, <variable>.IsLastSeg
	cmp	ip, #1	@ <variable>.IsLastSeg,
	bne	.L526	@,
	movw	ip, #15800	@ tmp283,
	movw	lr, #15796	@ tmp288,
	ldr	r1, [r5, ip]	@ <variable>.LenInByte, <variable>.LenInByte
	ldr	r0, [r5, lr]	@ <variable>.PhyAddr, <variable>.PhyAddr
	strb	r2, [r5, #1287]	@ <variable>.IsLastSeg, <variable>.bit_offset
	mov	r2, r1, asl #3	@ tmp285, <variable>.LenInByte,
	str	r2, [r5, #1292]	@ tmp285, <variable>.bit_len
	str	r0, [r5, #1300]	@ <variable>.PhyAddr, <variable>.phy_address
	b	.L527	@
.L536:
	mov	r0, #1	@,
	movw	r1, #:lower16:.LC29	@,
	movt	r1, #:upper16:.LC29	@,
	bl	dprint_vfmw	@
	mov	r0, r5	@, pCtx
	bl	MP4_ClearCurPic	@
	b	.L528	@
.L534:
	bl	BsPos	@
	mov	r4, r0	@ BitUsed,
	b	.L518	@
	.fnend
	.size	Mp4_Syntax_ShortHeader, .-Mp4_Syntax_ShortHeader
	.align	2
	.global	Mp4_Syntax_Gop
	.type	Mp4_Syntax_Gop, %function
Mp4_Syntax_Gop:
	.fnstart
.LFB1538:
	@ args = 0, pretend = 0, frame = 32
	@ frame_needed = 1, uses_anonymous_args = 0
	.movsp ip
	mov	ip, sp	@,
	stmfd	sp!, {r4, r5, r6, fp, ip, lr, pc}	@,
	.pad #4
	.save {r4, r5, r6, fp, ip, lr}
	.setfp fp, ip, #-4
	sub	fp, ip, #4	@,,
	.pad #36
	sub	sp, sp, #36	@,,
	push	{lr}
	bl	__gnu_mcount_nc
	sub	r4, fp, #60	@ tmp142,,
	mov	r5, r0	@ pCtx, pCtx
	mov	r0, r4	@, tmp142
	bl	BsInit	@
	mov	r1, #32	@,
	mov	r0, r4	@, tmp142
	bl	BsSkip	@
	mov	r1, #5	@,
	mov	r0, r4	@, tmp142
	bl	BsGet	@
	mov	r1, #6	@,
	mov	r0, r4	@, tmp142
	bl	BsGet	@
	mov	r0, r4	@, tmp142
	mov	r1, #1	@,
	bl	BsGet	@
	subs	r6, r0, #0	@ D.39163,
	bne	.L538	@,
	mov	r0, #1	@,
	movw	r1, #:lower16:.LC31	@,
	movt	r1, #:upper16:.LC31	@,
	bl	dprint_vfmw	@
	movw	r0, #22038	@ tmp148,
	strb	r6, [r5, r0]	@ D.39163, <variable>.MP4SyntaxState.gop_decode_right
	mov	r0, r4	@, tmp142
	bl	BsPos	@
	movw	r3, #:lower16:g_event_report	@ tmp152,
	movt	r3, #:upper16:g_event_report	@ tmp152,
	ldr	ip, [r3, #0]	@ g_event_report.459, g_event_report
	cmp	ip, #0	@ g_event_report.459,
	mov	r4, r0	@ BitUsed,
	beq	.L539	@,
	movw	r1, #22960	@ tmp153,
	mov	r2, r6	@, D.39163
	ldr	r0, [r5, r1]	@, <variable>.ChanID
	mov	r3, r6	@, tmp2
	mov	r1, #103	@,
	blx	ip	@ g_event_report.459
.L539:
	mov	r0, r4	@, BitUsed
	sub	sp, fp, #24
	ldmfd	sp, {r4, r5, r6, fp, sp, pc}
.L538:
	mov	r1, #6	@,
	mov	r0, r4	@, tmp142
	bl	BsGet	@
	mov	r0, r4	@, tmp142
	mov	r1, #1	@,
	bl	BsGet	@
	movw	r2, #21270	@ tmp157,
	mov	r1, #1	@,
	strb	r0, [r5, r2]	@, <variable>.MP4Syntax.closed_gov
	mov	r0, r4	@, tmp142
	bl	BsGet	@
	movw	r3, #22038	@ tmp162,
	movw	r2, #21271	@ tmp160,
	mov	ip, #1	@ tmp163,
	strb	ip, [r5, r3]	@ tmp163, <variable>.MP4SyntaxState.gop_decode_right
	strb	r0, [r5, r2]	@, <variable>.MP4Syntax.broken_link
	mov	r0, r4	@, tmp142
	bl	BsPos	@
	mov	r4, r0	@ BitUsed,
	b	.L539	@
	.fnend
	.size	Mp4_Syntax_Gop, .-Mp4_Syntax_Gop
	.align	2
	.global	NextStartCode
	.type	NextStartCode, %function
NextStartCode:
	.fnstart
.LFB1536:
	@ args = 0, pretend = 0, frame = 32
	@ frame_needed = 1, uses_anonymous_args = 0
	.movsp ip
	mov	ip, sp	@,
	stmfd	sp!, {r4, r5, r6, r7, r8, fp, ip, lr, pc}	@,
	.pad #4
	.save {r4, r5, r6, r7, r8, fp, ip, lr}
	.setfp fp, ip, #-4
	sub	fp, ip, #4	@,,
	.pad #36
	sub	sp, sp, #36	@,,
	push	{lr}
	bl	__gnu_mcount_nc
	sub	r4, fp, #68	@ tmp174,,
	mov	r5, r0	@ pMp4Syntax, pMp4Syntax
	mov	r7, r3	@ pStartCode, pStartCode
	mov	r0, r4	@, tmp174
	mov	r6, r2, asl #3	@ pretmp.1913, CodeLen,
	movw	r8, #438	@ tmp176,
	bl	BsInit	@
	mov	r0, #0	@ BitUsed.1924,
	b	.L552	@
.L546:
	cmp	lr, #256	@ tmp166,
	beq	.L553	@,
.L549:
	bl	BsSkip	@
	mov	r0, r4	@, tmp174
	bl	BsPos	@
.L552:
	rsb	r2, r0, r6	@ tmp170, BitUsed.1924, pretmp.1913
	mov	r1, #32	@,
	cmp	r2, #31	@ tmp170,
	mov	r0, r4	@, tmp174
	ble	.L554	@,
	bl	BsShow	@
	mov	r1, #8	@,
	mov	r3, r0	@ D.39082,
	cmp	r3, r8	@ D.39082, tmp176
	bic	r2, r0, #1020	@ tmp152, D.39082,
	bic	ip, r0, #15	@ tmp147, D.39082,
	bic	lr, r0, #255	@ tmp166, D.39082,
	bic	r2, r2, #3	@ tmp152, tmp152,
	mov	r0, r4	@, tmp174
	beq	.L543	@,
	cmp	ip, #288	@ tmp147,
	beq	.L543	@,
	cmp	r2, #32768	@ tmp152,
	bne	.L546	@,
	ldrb	r3, [r5, #9]	@ zero_extendqisi2	@ <variable>.is_short_header, <variable>.is_short_header
	mov	r1, #8	@,
	mov	r0, r4	@, tmp174
	cmp	r3, #2	@ <variable>.is_short_header,
	bne	.L555	@,
	ldr	r3, [r5, #744]	@ <variable>.SH_num, <variable>.SH_num
	add	ip, r3, #1	@ D.39097, <variable>.SH_num,
	str	ip, [r5, #744]	@ D.39097, <variable>.SH_num
	cmp	ip, #18	@ D.39097,
	bls	.L549	@,
	mov	lr, #196	@ tmp160,
	mov	r1, #1	@ tmp161,
	str	lr, [r7, #0]	@ tmp160,* pStartCode
	mov	r0, r4	@, tmp174
	strb	r1, [r5, #9]	@ tmp161, <variable>.is_short_header
	bl	BsPos	@
	b	.L545	@
.L543:
	mov	ip, #2	@ tmp148,
	mov	r1, #0	@ tmp150,
	strb	ip, [r5, #9]	@ tmp148, <variable>.is_short_header
	mov	r0, r4	@, tmp174
	str	r1, [r5, #744]	@ tmp150, <variable>.SH_num
	str	r3, [r7, #0]	@ D.39082,* pStartCode
	bl	BsPos	@
.L545:
	sub	sp, fp, #32
	ldmfd	sp, {r4, r5, r6, r7, r8, fp, sp, pc}
.L554:
	mov	ip, #197	@ tmp171,
	str	ip, [r7, #0]	@ tmp171,* pStartCode
	bl	BsPos	@
	b	.L545	@
.L553:
	str	r3, [r7, #0]	@ D.39082,* pStartCode
	mov	r0, r4	@, tmp174
	bl	BsPos	@
	b	.L545	@
.L555:
	mov	r2, #1	@ tmp155,
	mov	lr, #196	@ tmp157,
	strb	r2, [r5, #9]	@ tmp155, <variable>.is_short_header
	str	lr, [r7, #0]	@ tmp157,* pStartCode
	bl	BsPos	@
	b	.L545	@
	.fnend
	.size	NextStartCode, .-NextStartCode
	.align	2
	.global	MPEG4DEC_GetImageBuffer
	.type	MPEG4DEC_GetImageBuffer, %function
MPEG4DEC_GetImageBuffer:
	.fnstart
.LFB1563:
	@ args = 0, pretend = 0, frame = 0
	@ frame_needed = 1, uses_anonymous_args = 0
	.movsp ip
	mov	ip, sp	@,
	stmfd	sp!, {r4, r5, fp, ip, lr, pc}	@,
	.pad #4
	.save {r4, r5, fp, ip, lr}
	.setfp fp, ip, #-4
	sub	fp, ip, #4	@,,
	push	{lr}
	bl	__gnu_mcount_nc
	movw	r5, #22960	@ tmp138,
	mov	r4, r0	@ pCtx, pCtx
	ldr	r0, [r0, r5]	@, <variable>.ChanID
	bl	FSP_IsNewFsAvalible	@
	cmp	r0, #1	@ D.41440,
	ldmeqfd	sp, {r4, r5, fp, sp, pc}	@
	ldr	r0, [r4, r5]	@, <variable>.ChanID
	bl	FSP_IsNewFsAvalible	@
	cmn	r0, #1	@,
	movne	r0, #0	@ D.41443,
	ldmnefd	sp, {r4, r5, fp, sp, pc}	@
	add	r1, r4, #22528	@, pCtx,
	ldr	r0, [r4, r5]	@, <variable>.ChanID
	add	r1, r1, #80	@,,
	bl	FSP_ClearNotInVoQueue	@
	mov	r0, #0	@ D.41443,
	ldmfd	sp, {r4, r5, fp, sp, pc}	@
	.fnend
	.size	MPEG4DEC_GetImageBuffer, .-MPEG4DEC_GetImageBuffer
	.align	2
	.global	MP4_SetImgFormat
	.type	MP4_SetImgFormat, %function
MP4_SetImgFormat:
	.fnstart
.LFB1560:
	@ args = 0, pretend = 0, frame = 0
	@ frame_needed = 1, uses_anonymous_args = 0
	.movsp ip
	mov	ip, sp	@,
	stmfd	sp!, {r3, r4, fp, ip, lr, pc}	@,
	.pad #4
	.save {r3, r4, fp, ip, lr}
	.setfp fp, ip, #-4
	sub	fp, ip, #4	@,,
	push	{lr}
	bl	__gnu_mcount_nc
	movw	r1, #22960	@ tmp136,
	mov	r4, r0	@ pCtx, pCtx
	movw	r3, #56800	@ tmp138,
	ldr	r0, [r0, r1]	@, <variable>.ChanID
	ldr	r1, [r4, r3]	@, <variable>.CurFsID
	bl	FSP_GetFsImagePtr	@
	cmp	r0, #0	@ pImg
	ldmeqfd	sp, {r3, r4, fp, sp, pc}	@
	movw	r2, #21976	@ tmp140,
	ldr	r3, [r4, r2]	@ D.41252, <variable>.MP4Syntax.image_width
	cmp	r3, #0	@ D.41252,
	beq	.L563	@,
	movw	r2, #21972	@ tmp141,
	ldr	ip, [r4, r2]	@ <variable>.MP4Syntax.image_height, <variable>.MP4Syntax.image_height
	cmp	ip, #0	@ <variable>.MP4Syntax.image_height,
	beq	.L563	@,
	ldr	r1, [r0, #164]	@ <variable>.image_width, <variable>.image_width
	ldr	lr, [r0, #168]	@ <variable>.image_height, <variable>.image_height
	cmp	r1, r3	@ <variable>.image_width, D.41252
	strls	r1, [r0, #172]	@, <variable>.image_width, <variable>.disp_width
	strhi	r3, [r0, #172]	@, D.41252, <variable>.disp_width
	ldr	r3, [r4, r2]	@ <variable>.MP4Syntax.image_height, <variable>.MP4Syntax.image_height
	cmp	lr, r3	@ <variable>.image_height, <variable>.MP4Syntax.image_height
	strls	lr, [r0, #176]	@, <variable>.image_height, <variable>.disp_height
	strhi	r3, [r0, #176]	@, <variable>.MP4Syntax.image_height, <variable>.disp_height
	b	.L564	@
.L563:
	ldr	r2, [r0, #164]	@ <variable>.image_width, <variable>.image_width
	ldr	ip, [r0, #168]	@ <variable>.image_height, <variable>.image_height
	str	r2, [r0, #172]	@ <variable>.image_width, <variable>.disp_width
	str	ip, [r0, #176]	@ <variable>.image_height, <variable>.disp_height
.L564:
	mov	lr, #8	@ tmp156,
	mov	r3, #0	@ tmp152,
	mov	ip, #2	@ tmp151,
	mov	r1, #1	@ tmp159,
	str	lr, [r0, #392]	@ tmp156, <variable>.ImageDnr.QP_U
	str	lr, [r0, #388]	@ tmp156, <variable>.ImageDnr.QP_Y
	strb	r3, [r0, #379]	@ tmp152, <variable>.ImageDnr.use_pic_qp_en
	str	ip, [r0, #384]	@ tmp151, <variable>.ImageDnr.video_standard
	strb	r1, [r0, #377]	@ tmp159, <variable>.ImageDnr.chroma_format_idc
	strb	r3, [r0, #372]	@ tmp152, <variable>.ImageDnr.pic_structure
	str	lr, [r0, #396]	@ tmp156, <variable>.ImageDnr.QP_V
	ldmfd	sp, {r3, r4, fp, sp, pc}	@
	.fnend
	.size	MP4_SetImgFormat, .-MP4_SetImgFormat
	.align	2
	.global	Mp4_ClearUsrData
	.type	Mp4_ClearUsrData, %function
Mp4_ClearUsrData:
	.fnstart
.LFB1532:
	@ args = 0, pretend = 0, frame = 0
	@ frame_needed = 1, uses_anonymous_args = 0
	.movsp ip
	mov	ip, sp	@,
	stmfd	sp!, {r3, r4, r5, r6, fp, ip, lr, pc}	@,
	.pad #4
	.save {r3, r4, r5, r6, fp, ip, lr}
	.setfp fp, ip, #-4
	sub	fp, ip, #4	@,,
	push	{lr}
	bl	__gnu_mcount_nc
	mov	r4, r1	@ pUserData, pUserData
	mov	r6, r0	@ ChanID, ChanID
	ldr	r1, [r1, #0]	@,* pUserData
	mov	r5, #0	@ tmp139,
	bl	FreeUsdByDec	@
	mov	r0, r6	@, ChanID
	ldr	r1, [r4, #4]	@,
	str	r5, [r4, #0]	@ tmp139,* pUserData
	bl	FreeUsdByDec	@
	mov	r0, r6	@, ChanID
	ldr	r1, [r4, #8]	@,
	str	r5, [r4, #4]	@ tmp139,
	bl	FreeUsdByDec	@
	str	r5, [r4, #8]	@ tmp139,
	mov	r0, r6	@, ChanID
	ldr	r1, [r4, #12]	@,
	bl	FreeUsdByDec	@
	str	r5, [r4, #12]	@ tmp139,
	ldmfd	sp, {r3, r4, r5, r6, fp, sp, pc}	@
	.fnend
	.size	Mp4_ClearUsrData, .-Mp4_ClearUsrData
	.align	2
	.global	MPEG4DEC_RecycleImage
	.type	MPEG4DEC_RecycleImage, %function
MPEG4DEC_RecycleImage:
	.fnstart
.LFB1559:
	@ args = 0, pretend = 0, frame = 0
	@ frame_needed = 1, uses_anonymous_args = 0
	.movsp ip
	mov	ip, sp	@,
	stmfd	sp!, {r4, r5, r6, r7, fp, ip, lr, pc}	@,
	.pad #4
	.save {r4, r5, r6, r7, fp, ip, lr}
	.setfp fp, ip, #-4
	sub	fp, ip, #4	@,,
	push	{lr}
	bl	__gnu_mcount_nc
	subs	r4, r0, #0	@ pCtx, pCtx
	mov	r6, r1	@ ImgID, ImgID
	mvneq	r0, #1	@ D.41232,
	ldmeqfd	sp, {r4, r5, r6, r7, fp, sp, pc}	@
	movw	r5, #22960	@ tmp139,
	mov	r2, #0	@,
	ldr	r0, [r4, r5]	@, <variable>.ChanID
	bl	FSP_SetDisplay	@
	mov	r1, r6	@, ImgID
	ldr	r0, [r4, r5]	@, <variable>.ChanID
	bl	FSP_GetFsImagePtr	@
	subs	r6, r0, #0	@ pImg,
	moveq	r0, #1	@ D.41232,
	ldmeqfd	sp, {r4, r5, r6, r7, fp, sp, pc}	@
	ldr	r0, [r4, r5]	@, <variable>.ChanID
	mov	r7, #0	@ tmp146,
	ldr	r1, [r6, #212]	@, <variable>.p_usrdat
	bl	FreeUsdByDec	@
	str	r7, [r6, #212]	@ tmp146, <variable>.p_usrdat
	ldr	r1, [r6, #216]	@, <variable>.p_usrdat
	ldr	r0, [r4, r5]	@, <variable>.ChanID
	bl	FreeUsdByDec	@
	mov	r0, #1	@ D.41232,
	str	r7, [r6, #216]	@ tmp146, <variable>.p_usrdat
	ldmfd	sp, {r4, r5, r6, r7, fp, sp, pc}	@
	.fnend
	.size	MPEG4DEC_RecycleImage, .-MPEG4DEC_RecycleImage
	.align	2
	.global	Vdm_Mem_Move
	.type	Vdm_Mem_Move, %function
Vdm_Mem_Move:
	.fnstart
.LFB1549:
	@ args = 12, pretend = 0, frame = 0
	@ frame_needed = 1, uses_anonymous_args = 0
	.movsp ip
	mov	ip, sp	@,
	stmfd	sp!, {r3, r4, r5, r6, r7, r8, fp, ip, lr, pc}	@,
	.pad #4
	.save {r3, r4, r5, r6, r7, r8, fp, ip, lr}
	.setfp fp, ip, #-4
	sub	fp, ip, #4	@,,
	push	{lr}
	bl	__gnu_mcount_nc
	mov	r4, r0	@ pCtx, pCtx
	mov	r5, r1	@ pCur, pCur
	mov	r0, #2	@,
	movw	r1, #:lower16:.LC32	@,
	movt	r1, #:upper16:.LC32	@,
	mov	r7, r2	@ dst, dst
	mov	r8, r3	@ dst_2d, dst_2d
	bl	dprint_vfmw	@
	movw	r0, #15632	@ tmp145,
	str	r8, [r4, r0]	@ dst_2d, <variable>.Mp4DecParam.DispFramePhyAddr
	movw	r6, #22060	@ tmp158,
	str	r7, [r4, #1252]	@ dst, <variable>.Mp4DecParam.CurPicPhyAddr
	ldr	r3, [fp, #8]	@ ImgWidth, ImgWidth
	ldr	r1, [fp, #12]	@ ImgHeight, ImgHeight
	ldr	r2, [fp, #4]	@ src, src
	add	ip, r3, #15	@ tmp148, ImgWidth,
	ldr	r3, [r5, #532]	@ <variable>.PmvAddr, <variable>.PmvAddr
	add	r1, r1, #15	@ tmp151, ImgHeight,
	mov	r0, ip, lsr #4	@ tmp149, tmp148,
	movw	ip, #1206	@ tmp150,
	str	r2, [r4, #1260]	@ src, <variable>.Mp4DecParam.FwdRefPicPhyAddr
	movw	r2, #1204	@ tmp147,
	strh	r0, [r4, r2]	@ movhi	@ tmp149, <variable>.Mp4DecParam.PicWidthInMb
	mov	r1, r1, lsr #4	@ tmp152, tmp151,
	str	r3, [r4, #1268]	@ <variable>.PmvAddr, <variable>.Mp4DecParam.CurPmvPhyAddr
	movw	r0, #15644	@ tmp153,
	strh	r1, [r4, ip]	@ movhi	@ tmp152, <variable>.Mp4DecParam.PicHeightInMb
	add	r1, r4, #1040	@ D.40508, pCtx,
	ldr	r2, [r5, #524]	@ <variable>.pstDispOutFs, <variable>.pstDispOutFs
	ldr	r3, [r4, r6]	@ <variable>.pstExtraData, <variable>.pstExtraData
	ldr	ip, [r2, #20]	@ <variable>.Stride, <variable>.Stride
	movw	r2, #15700	@ tmp156,
	str	ip, [r4, r0]	@ <variable>.Stride, <variable>.Mp4DecParam.VahbStride
	ldr	r0, [r3, #684]	@ <variable>.s32Compress_en, <variable>.s32Compress_en
	str	r1, [r4, #1036]	@ D.40508, <variable>.pMp4DecParam
	str	r0, [r4, r2]	@ <variable>.s32Compress_en, <variable>.Mp4DecParam.Compress_en
	ldr	r2, [r3, #896]	@ D.40509, <variable>.stDisParams.s32Mode
	cmp	r2, #1	@ D.40509,
	beq	.L578	@,
	cmp	r2, #2	@ D.40509,
	beq	.L579	@,
.L575:
	mov	r0, #1	@ tmp175,
	strb	r0, [r4, #1198]	@ tmp175, <variable>.Mp4DecParam.IsNvopCopy
	ldmfd	sp, {r3, r4, r5, r6, r7, r8, fp, sp, pc}	@
.L578:
	cmp	r1, #0	@ D.40508,
	beq	.L575	@,
	movw	ip, #22960	@ tmp162,
	movw	lr, #56800	@ tmp164,
	mov	r2, #0	@ tmp161,
	ldr	r0, [r4, ip]	@, <variable>.ChanID
	str	r2, [r4, #1036]	@ tmp161, <variable>.pMp4DecParam
	ldr	r1, [r4, lr]	@, <variable>.CurFsID
	bl	FSP_SetDisplay	@
	mov	r0, r4	@, pCtx
	bl	MP4_ClearCurPic	@
	ldmfd	sp, {r3, r4, r5, r6, r7, r8, fp, sp, pc}	@
.L579:
	ldr	r2, [r3, #900]	@ <variable>.stDisParams.s32DisNums, <variable>.stDisParams.s32DisNums
	cmp	r2, #0	@ <variable>.stDisParams.s32DisNums,
	ble	.L575	@,
	cmp	r1, #0	@ D.40508,
	beq	.L575	@,
	movw	lr, #56800	@ tmp170,
	movw	r1, #22960	@ tmp168,
	ldr	r0, [r4, r1]	@, <variable>.ChanID
	mov	r2, #0	@ tmp167,
	ldr	r1, [r4, lr]	@, <variable>.CurFsID
	str	r2, [r4, #1036]	@ tmp167, <variable>.pMp4DecParam
	bl	FSP_SetDisplay	@
	ldr	r3, [r4, r6]	@ temp.2071, <variable>.pstExtraData
	mov	r0, r4	@, pCtx
	ldr	ip, [r3, #900]	@ <variable>.stDisParams.s32DisNums, <variable>.stDisParams.s32DisNums
	sub	r1, ip, #1	@ tmp174, <variable>.stDisParams.s32DisNums,
	str	r1, [r3, #900]	@ tmp174, <variable>.stDisParams.s32DisNums
	bl	MP4_ClearCurPic	@
	ldmfd	sp, {r3, r4, r5, r6, r7, r8, fp, sp, pc}	@
	.fnend
	.size	Vdm_Mem_Move, .-Vdm_Mem_Move
	.align	2
	.global	Mp4_Set_DecPar
	.type	Mp4_Set_DecPar, %function
Mp4_Set_DecPar:
	.fnstart
.LFB1553:
	@ args = 0, pretend = 0, frame = 80
	@ frame_needed = 1, uses_anonymous_args = 0
	.movsp ip
	mov	ip, sp	@,
	stmfd	sp!, {r4, r5, r6, r7, r8, r9, sl, fp, ip, lr, pc}	@,
	.pad #4
	.save {r4, r5, r6, r7, r8, r9, sl, fp, ip, lr}
	.setfp fp, ip, #-4
	sub	fp, ip, #4	@,,
	.pad #100
	sub	sp, sp, #100	@,,
	push	{lr}
	bl	__gnu_mcount_nc
	mov	r1, #48	@,
	mov	r4, r2	@ ptr_strm_para, ptr_strm_para
	mov	r6, r0	@ pCtx, pCtx
	sub	r0, fp, #92	@,,
	bl	__memzero	@
	ldrb	r3, [r4, #5]	@ zero_extendqisi2	@ <variable>.IsLastSeg, <variable>.IsLastSeg
	cmp	r3, #1	@ <variable>.IsLastSeg,
	beq	.L608	@,
	movw	r3, #22048	@ tmp208,
	movw	r5, #22044	@ tmp210,
	ldr	sl, [r6, r3]	@ <variable>.BitsObj.phy_addr, <variable>.BitsObj.phy_addr
	movw	r2, #22052	@ tmp219,
	ldr	lr, [r6, r5]	@ <variable>.BitsObj.vir_addr, <variable>.BitsObj.vir_addr
	movw	r9, #22056	@ tmp216,
	ldr	r8, [r6, r2]	@ <variable>.BitsObj.len, <variable>.BitsObj.len
	and	r1, sl, #3	@ tmp213, <variable>.BitsObj.phy_addr,
	ldr	r7, [r4, #92]	@ <variable>.PhyAddr, <variable>.PhyAddr
	ldr	r5, [r6, r9]	@ <variable>.BitsObj.offset, <variable>.BitsObj.offset
	str	lr, [r6, #1056]	@ <variable>.BitsObj.vir_addr, <variable>.Mp4DecParam.StreamVirAddr
	bic	r0, r7, #3	@ tmp207, <variable>.PhyAddr,
	rsb	ip, r5, r8, asl #3	@, tmp224, <variable>.BitsObj.offset, <variable>.BitsObj.len,
	str	r0, [r6, #1208]	@ tmp207, <variable>.Mp4DecParam.StreamBaseAddr
	str	ip, [r6, #1236]	@ tmp224, <variable>.Mp4DecParam.StreamLength
	add	r2, r5, r1, asl #3	@, tmp218, <variable>.BitsObj.offset, tmp213,
	str	sl, [r6, #1220]	@ <variable>.BitsObj.phy_addr, <variable>.Mp4DecParam.StreamPhyAddr
	mov	r5, #0	@ tmp232,
	str	r2, [r6, #1228]	@ tmp218, <variable>.Mp4DecParam.StreamBitOffset
	ldr	r9, [r4, #92]	@ <variable>.PhyAddr, <variable>.PhyAddr
	str	r9, [r6, #1224]	@ <variable>.PhyAddr, <variable>.Mp4DecParam.StreamPhyAddr
	ldr	r8, [r4, #80]	@ <variable>.VirAddr, <variable>.VirAddr
	str	r8, [r6, #1060]	@ <variable>.VirAddr, <variable>.Mp4DecParam.StreamVirAddr
	ldr	r7, [r4, #92]	@ <variable>.PhyAddr, <variable>.PhyAddr
	and	lr, r7, #3	@ tmp227, <variable>.PhyAddr,
	mov	ip, lr, asl #3	@ tmp229, tmp227,
	str	ip, [r6, #1232]	@ tmp229, <variable>.Mp4DecParam.StreamBitOffset
	ldr	r1, [r4, #96]	@ <variable>.LenInByte, <variable>.LenInByte
	str	r5, [r6, #1216]	@ tmp232, <variable>.Mp4DecParam.StreamFirstIsLastFlag
	mov	r3, r1, asl #3	@ tmp231, <variable>.LenInByte,
	str	r3, [r6, #1240]	@ tmp231, <variable>.Mp4DecParam.StreamLength
.L582:
	movw	r8, #21912	@ tmp243,
	movw	r1, #21976	@ tmp234,
	ldrb	r7, [r6, r8]	@ zero_extendqisi2	@, <variable>.MP4Syntax.syn_vop.vop_coding_type
	movw	r5, #21322	@ tmp246,
	movw	r4, #21277	@ tmp249,
	movw	lr, #21919	@ tmp252,
	movw	ip, #21924	@ tmp255,
	movw	r0, #21923	@ tmp258,
	movw	sl, #21376	@ tmp261,
	movw	r3, #21972	@ tmp239,
	ldr	r2, [r6, r1]	@ <variable>.MP4Syntax.image_width, <variable>.MP4Syntax.image_width
	movw	r1, #21920	@ tmp264,
	ldr	r3, [r6, r3]	@ <variable>.MP4Syntax.image_height, <variable>.MP4Syntax.image_height
	str	r7, [fp, #-100]	@, %sfp
	add	r9, r2, #15	@ tmp235, <variable>.MP4Syntax.image_width,
	ldrb	r7, [r6, r5]	@ zero_extendqisi2	@ <variable>.MP4Syntax.syn_vol.quant_type, <variable>.MP4Syntax.syn_vol.quant_type
	add	r8, r3, #15	@ tmp240, <variable>.MP4Syntax.image_height,
	ldrb	r5, [r6, r4]	@ zero_extendqisi2	@ <variable>.MP4Syntax.is_short_header, <variable>.MP4Syntax.is_short_header
	mov	r9, r9, lsr #4	@ tmp237, tmp235,
	ldrb	r4, [r6, lr]	@ zero_extendqisi2	@ <variable>.MP4Syntax.syn_vop.vop_quant, <variable>.MP4Syntax.syn_vop.vop_quant
	mov	r8, r8, lsr #4	@ tmp242, tmp240,
	ldrb	lr, [r6, ip]	@ zero_extendqisi2	@ <variable>.MP4Syntax.syn_vop.num_mb_ingob, <variable>.MP4Syntax.syn_vop.num_mb_ingob
	ldrb	ip, [r6, r0]	@ zero_extendqisi2	@ <variable>.MP4Syntax.syn_vop.num_gobs_invop, <variable>.MP4Syntax.syn_vop.num_gobs_invop
	ldr	r0, [r6, sl]	@ <variable>.MP4Syntax.syn_vol.vop_time_incr_bits, <variable>.MP4Syntax.syn_vol.vop_time_incr_bits
	movw	sl, #21921	@ tmp267,
	ldrb	sl, [r6, sl]	@ zero_extendqisi2	@, <variable>.MP4Syntax.syn_vop.vop_fcode_backward
	ldrb	r1, [r6, r1]	@ zero_extendqisi2	@ <variable>.MP4Syntax.syn_vop.vop_fcode_forward, <variable>.MP4Syntax.syn_vop.vop_fcode_forward
	str	sl, [fp, #-96]	@, %sfp
	movw	sl, #21916	@ tmp270,
	ldrb	sl, [r6, sl]	@ zero_extendqisi2	@, <variable>.MP4Syntax.syn_vop.intra_dc_vlc_thr
	str	sl, [fp, #-104]	@, %sfp
	movw	sl, #21327	@ tmp273,
	ldrb	sl, [r6, sl]	@ zero_extendqisi2	@, <variable>.MP4Syntax.syn_vol.resync_marker_disable
	str	sl, [fp, #-108]	@, %sfp
	movw	sl, #21325	@ tmp276,
	ldrb	sl, [r6, sl]	@ zero_extendqisi2	@, <variable>.MP4Syntax.syn_vol.quarter_sample
	str	sl, [fp, #-112]	@, %sfp
	movw	sl, #21914	@ tmp279,
	ldrb	sl, [r6, sl]	@ zero_extendqisi2	@, <variable>.MP4Syntax.syn_vop.vop_rounding_type
	str	sl, [fp, #-116]	@, %sfp
	movw	sl, #21918	@ tmp282,
	ldrb	sl, [r6, sl]	@ zero_extendqisi2	@, <variable>.MP4Syntax.syn_vop.alternate_vertical_scan_flag
	str	sl, [fp, #-120]	@, %sfp
	movw	sl, #21917	@ tmp285,
	ldrb	sl, [r6, sl]	@ zero_extendqisi2	@, <variable>.MP4Syntax.syn_vop.top_field_first
	str	sl, [fp, #-124]	@, %sfp
	movw	sl, #1204	@ tmp233,
	strh	r9, [r6, sl]	@ movhi	@ tmp237, <variable>.Mp4DecParam.PicWidthInMb
	movw	sl, #1206	@ tmp238,
	strh	r8, [r6, sl]	@ movhi	@ tmp242, <variable>.Mp4DecParam.PicHeightInMb
	movw	sl, #21320	@ tmp320,
	strb	r7, [r6, #1041]	@ <variable>.MP4Syntax.syn_vol.quant_type, <variable>.Mp4DecParam.PicQuantType
	movw	r8, #21318	@ tmp288,
	strb	r5, [r6, #1042]	@ <variable>.MP4Syntax.is_short_header, <variable>.Mp4DecParam.IsShortHeader
	strb	r4, [r6, #1043]	@ <variable>.MP4Syntax.syn_vop.vop_quant, <variable>.Mp4DecParam.VopQuant
	strb	lr, [r6, #1044]	@ <variable>.MP4Syntax.syn_vop.num_mb_ingob, <variable>.Mp4DecParam.GobMbNum
	strb	ip, [r6, #1045]	@ <variable>.MP4Syntax.syn_vop.num_gobs_invop, <variable>.Mp4DecParam.VopGobNum
	strb	r0, [r6, #1046]	@ <variable>.MP4Syntax.syn_vol.vop_time_incr_bits, <variable>.Mp4DecParam.BitsOfVopTimeIncr
	strb	r1, [r6, #1047]	@ <variable>.MP4Syntax.syn_vop.vop_fcode_forward, <variable>.Mp4DecParam.FwdFcode
	ldr	r0, [fp, #-96]	@, %sfp
	strb	r0, [r6, #1048]	@, <variable>.Mp4DecParam.BwdFcode
	movw	r0, #22008	@ tmp291,
	ldr	r9, [fp, #-104]	@, %sfp
	strb	r9, [r6, #1049]	@, <variable>.Mp4DecParam.intra_dc_vlc_thr
	movw	r9, #22004	@ tmp293,
	ldr	r7, [fp, #-108]	@, %sfp
	strb	r7, [r6, #1050]	@, <variable>.Mp4DecParam.resync_marker_disable
	ldr	r5, [fp, #-112]	@, %sfp
	ldr	r7, [r6, r9]	@, <variable>.MP4Syntax.time_pp
	movw	r9, #21283	@ tmp310,
	strb	r5, [r6, #1051]	@, <variable>.Mp4DecParam.QuarterSample
	movw	r5, #21280	@ tmp295,
	ldr	r4, [fp, #-116]	@, %sfp
	strb	r4, [r6, #1052]	@, <variable>.Mp4DecParam.vop_rounding_type
	movw	r4, #21279	@ tmp298,
	ldr	lr, [fp, #-120]	@, %sfp
	strb	lr, [r6, #1053]	@, <variable>.Mp4DecParam.alternate_vertical_scan
	movw	lr, #21278	@ tmp301,
	ldr	ip, [fp, #-100]	@, %sfp
	strb	ip, [r6, #1040]	@, <variable>.Mp4DecParam.PicCodingType
	movw	ip, #21281	@ tmp304,
	ldr	r1, [fp, #-124]	@, %sfp
	str	r7, [r6, #1248]	@, <variable>.Mp4DecParam.Trd
	ldrb	r7, [r6, r5]	@ zero_extendqisi2	@ <variable>.MP4Syntax.FF_BUG_DIVX500B413, <variable>.MP4Syntax.FF_BUG_DIVX500B413
	strb	r1, [r6, #1054]	@, <variable>.Mp4DecParam.top_field_first
	ldrb	r5, [r6, r4]	@ zero_extendqisi2	@ <variable>.MP4Syntax.FF_BUG_EDGE_EXTEND, <variable>.MP4Syntax.FF_BUG_EDGE_EXTEND
	ldrb	r1, [r6, sl]	@ zero_extendqisi2	@ <variable>.MP4Syntax.syn_vol.sprite_enable, <variable>.MP4Syntax.syn_vol.sprite_enable
	ldrb	r4, [r6, lr]	@ zero_extendqisi2	@ <variable>.MP4Syntax.FF_BUG_EDGE_FIND_POINT, <variable>.MP4Syntax.FF_BUG_EDGE_FIND_POINT
	ldrb	sl, [r6, r8]	@ zero_extendqisi2	@ <variable>.MP4Syntax.syn_vol.interlaced, <variable>.MP4Syntax.syn_vol.interlaced
	cmp	r1, #2	@ <variable>.MP4Syntax.syn_vol.sprite_enable,
	ldr	r8, [r6, r0]	@ <variable>.MP4Syntax.time_bp, <variable>.MP4Syntax.time_bp
	movw	r0, #21282	@ tmp307,
	ldrb	lr, [r6, ip]	@ zero_extendqisi2	@ <variable>.MP4Syntax.FF_BUG_QPEL_CHROMA, <variable>.MP4Syntax.FF_BUG_QPEL_CHROMA
	ldrb	ip, [r6, r0]	@ zero_extendqisi2	@ <variable>.MP4Syntax.FF_BUG_QPEL_CHROMA2, <variable>.MP4Syntax.FF_BUG_QPEL_CHROMA2
	ldrb	r0, [r6, r9]	@ zero_extendqisi2	@ <variable>.MP4Syntax.FF_BUG_QPEL_FILED, <variable>.MP4Syntax.FF_BUG_QPEL_FILED
	movw	r9, #15652	@ tmp313,
	str	r2, [r6, r9]	@ <variable>.MP4Syntax.image_width, <variable>.Mp4DecParam.image_width
	movw	r2, #15648	@ tmp316,
	str	r3, [r6, r2]	@ <variable>.MP4Syntax.image_height, <variable>.Mp4DecParam.image_height
	strb	sl, [r6, #1055]	@ <variable>.MP4Syntax.syn_vol.interlaced, <variable>.Mp4DecParam.Interlaced
	str	r8, [r6, #1244]	@ <variable>.MP4Syntax.time_bp, <variable>.Mp4DecParam.Trb
	strb	r7, [r6, #1194]	@ <variable>.MP4Syntax.FF_BUG_DIVX500B413, <variable>.Mp4DecParam.FF_BUG_DIVX500B413
	strb	r5, [r6, #1193]	@ <variable>.MP4Syntax.FF_BUG_EDGE_EXTEND, <variable>.Mp4DecParam.FF_BUG_EDGE_EXTEND
	strb	r4, [r6, #1192]	@ <variable>.MP4Syntax.FF_BUG_EDGE_FIND_POINT, <variable>.Mp4DecParam.FF_BUG_EDGE_FIND_POINT
	movw	r4, #15656	@ tmp319,
	strb	lr, [r6, #1195]	@ <variable>.MP4Syntax.FF_BUG_QPEL_CHROMA, <variable>.Mp4DecParam.FF_BUG_QPEL_CHROMA
	strb	ip, [r6, #1196]	@ <variable>.MP4Syntax.FF_BUG_QPEL_CHROMA2, <variable>.Mp4DecParam.FF_BUG_QPEL_CHROMA2
	strb	r0, [r6, #1197]	@ <variable>.MP4Syntax.FF_BUG_QPEL_FILED, <variable>.Mp4DecParam.FF_BUG_QPEL_FILED
	str	r1, [r6, r4]	@ <variable>.MP4Syntax.syn_vol.sprite_enable, <variable>.Mp4DecParam.sprite_enable
	beq	.L609	@,
.L583:
	movw	ip, #21333	@ tmp351,
	movw	r0, #15664	@ tmp350,
	ldrb	r1, [r6, ip]	@ zero_extendqisi2	@ <variable>.MP4Syntax.syn_vol.sprite_warping_accuracy, <variable>.MP4Syntax.syn_vol.sprite_warping_accuracy
	movw	r2, #15696	@ tmp369,
	movw	r3, #15660	@ tmp353,
	movw	r8, #15668	@ tmp355,
	movw	r7, #15672	@ tmp357,
	movw	r4, #15676	@ tmp359,
	str	r1, [r6, r0]	@ <variable>.MP4Syntax.syn_vol.sprite_warping_accuracy, <variable>.Mp4DecParam.sprite_warping_accuracy
	mov	lr, #15680	@ tmp361,
	mov	r1, #0	@ tmp354,
	movw	ip, #15684	@ tmp363,
	str	r1, [r6, r2]	@ tmp354, <variable>.Mp4DecParam.Vco
	movw	r0, #15688	@ tmp365,
	movw	r2, #15692	@ tmp367,
	str	r1, [r6, r8]	@ tmp354, <variable>.Mp4DecParam.dU
	str	r1, [r6, r4]	@ tmp354, <variable>.Mp4DecParam.dV
	str	r1, [r6, r3]	@ tmp354, <variable>.Mp4DecParam.sprite_warping_points
	str	r1, [r6, r7]	@ tmp354, <variable>.Mp4DecParam.dU
	str	r1, [r6, lr]	@ tmp354, <variable>.Mp4DecParam.dV
	str	r1, [r6, ip]	@ tmp354, <variable>.Mp4DecParam.Uo
	str	r1, [r6, r0]	@ tmp354, <variable>.Mp4DecParam.Vo
	str	r1, [r6, r2]	@ tmp354, <variable>.Mp4DecParam.Uco
.L584:
	movw	lr, #56800	@ tmp373,
	movw	r4, #22960	@ tmp371,
	ldr	r1, [r6, lr]	@, <variable>.CurFsID
	movw	r8, #56784	@ tmp377,
	ldr	r0, [r6, r4]	@, <variable>.ChanID
	bl	FSP_GetLogicFs	@
	ldr	r1, [r6, r8]	@, <variable>.FwdFsID
	mov	r7, r0	@ pCur,
	ldr	r0, [r6, r4]	@, <variable>.ChanID
	bl	FSP_GetLogicFs	@
	movw	r3, #56792	@ tmp381,
	ldr	r1, [r6, r3]	@, <variable>.BwdFsID
	mov	r8, r0	@ pFwd,
	ldr	r0, [r6, r4]	@, <variable>.ChanID
	bl	FSP_GetLogicFs	@
	cmp	r7, #0	@ pCur,
	cmpne	r8, #0	@, pFwd,
	beq	.L585	@,
	cmp	r0, #0	@ pBwd,
	beq	.L585	@,
	ldr	ip, [r7, #520]	@ D.40839, <variable>.pstDecodeFs
	cmp	ip, #0	@ D.40839,
	ldreq	r5, [r7, #524]	@ prephitmp.2153, <variable>.pstDispOutFs
	ldreq	r4, [r7, #528]	@ prephitmp.2090, <variable>.pstTfOutFs
	beq	.L589	@,
	ldr	r4, [r7, #528]	@ prephitmp.2090, <variable>.pstTfOutFs
	cmp	r4, #0	@ prephitmp.2090,
	ldreq	r5, [r7, #524]	@ prephitmp.2153, <variable>.pstDispOutFs
	beq	.L589	@,
	ldr	r5, [r7, #524]	@ prephitmp.2153, <variable>.pstDispOutFs
	cmp	r5, #0	@ prephitmp.2153,
	beq	.L589	@,
	ldr	ip, [r7, #532]	@ <variable>.PmvAddr, <variable>.PmvAddr
	str	ip, [r6, #1268]	@ <variable>.PmvAddr, <variable>.Mp4DecParam.CurPmvPhyAddr
	ldr	r4, [r0, #532]	@ <variable>.PmvAddr, <variable>.PmvAddr
	str	r4, [r6, #1272]	@ <variable>.PmvAddr, <variable>.Mp4DecParam.BwdPmvPhyAddr
	ldr	r5, [r0, #520]	@ D.40850, <variable>.pstDecodeFs
	cmp	r5, #0	@ D.40850,
	ldreq	r5, [r7, #520]	@ <variable>.pstDecodeFs, <variable>.pstDecodeFs
	ldr	r1, [r5, #12]	@ iftmp.572, <variable>.PhyAddr
	movw	r5, #15620	@ tmp408,
	str	r1, [r6, #1264]	@ iftmp.572, <variable>.Mp4DecParam.BwdRefPicPhyAddr
	ldr	lr, [r8, #520]	@ D.40857, <variable>.pstDecodeFs
	cmp	lr, #0	@ D.40857,
	ldreq	lr, [r7, #520]	@ <variable>.pstDecodeFs, <variable>.pstDecodeFs
	ldr	r3, [lr, #12]	@ iftmp.573, <variable>.PhyAddr
	str	r3, [r6, #1260]	@ iftmp.573, <variable>.Mp4DecParam.FwdRefPicPhyAddr
	movw	r3, #15624	@ tmp410,
	ldr	r2, [r7, #520]	@ <variable>.pstDecodeFs, <variable>.pstDecodeFs
	ldr	ip, [r2, #12]	@ <variable>.PhyAddr, <variable>.PhyAddr
	add	r2, r6, #21248	@ ivtmp.2108, pCtx,
	str	ip, [r6, #1252]	@ <variable>.PhyAddr, <variable>.Mp4DecParam.CurPicPhyAddr
	ldr	r4, [r0, #528]	@ D.40864, <variable>.pstTfOutFs
	cmp	r4, #0	@ D.40864,
	ldreq	r4, [r7, #528]	@ <variable>.pstTfOutFs, <variable>.pstTfOutFs
	ldr	r1, [r4, #12]	@ iftmp.574, <variable>.PhyAddr
	str	r1, [r6, r5]	@ iftmp.574, <variable>.Mp4DecParam.TfBwdPhyAddr
	movw	r5, #15628	@ tmp411,
	ldr	lr, [r8, #528]	@ D.40871, <variable>.pstTfOutFs
	movw	r8, #15632	@ tmp414,
	cmp	lr, #0	@ D.40871,
	ldreq	lr, [r7, #528]	@ <variable>.pstTfOutFs, <variable>.pstTfOutFs
	ldr	r0, [lr, #12]	@ iftmp.575, <variable>.PhyAddr
	str	r0, [r6, r3]	@ iftmp.575, <variable>.Mp4DecParam.TfFwdPhyAddr
	add	r3, r2, #148	@ ivtmp.2108, ivtmp.2108,
	ldr	ip, [r7, #528]	@ <variable>.pstTfOutFs, <variable>.pstTfOutFs
	mov	r2, r6	@ ivtmp.2112, pCtx
	mov	r0, #0	@ i,
	ldr	r4, [ip, #12]	@ <variable>.PhyAddr, <variable>.PhyAddr
	str	r4, [r6, r5]	@ <variable>.PhyAddr, <variable>.Mp4DecParam.TfCurPhyAddr
	movw	r5, #15644	@ tmp417,
	ldr	r1, [r7, #524]	@ <variable>.pstDispOutFs, <variable>.pstDispOutFs
	ldr	lr, [r1, #12]	@ <variable>.PhyAddr, <variable>.PhyAddr
	str	lr, [r6, r8]	@ <variable>.PhyAddr, <variable>.Mp4DecParam.DispFramePhyAddr
	ldr	ip, [r7, #524]	@ <variable>.pstDispOutFs, <variable>.pstDispOutFs
	ldr	r4, [ip, #20]	@ <variable>.Stride, <variable>.Stride
	str	r4, [r6, r5]	@ <variable>.Stride, <variable>.Mp4DecParam.VahbStride
.L600:
	add	r1, r3, #4	@ tmp436, ivtmp.2108,
	ldr	r5, [r3, #4]	@ tmp442, <variable>.MP4Syntax.syn_vol.intra_quant_mat
	ldr	r8, [r3, #0]	@ tmp421, <variable>.MP4Syntax.syn_vol.intra_quant_mat
	add	r0, r0, #2	@ i, i,
	ldr	r7, [r3, #256]	@ tmp423, <variable>.MP4Syntax.syn_vol.nonintra_quant_mat
	add	lr, r2, #1	@ tmp437, ivtmp.2112,
	ldr	r4, [r1, #256]	@ tmp443, <variable>.MP4Syntax.syn_vol.nonintra_quant_mat
	cmp	r0, #64	@ i,
	strb	r8, [r2, #1064]	@ tmp421, <variable>.Mp4DecParam.IntraQuantTab
	add	r3, r1, #4	@ ivtmp.2108, tmp436,
	strb	r7, [r2, #1128]	@ tmp423, <variable>.Mp4DecParam.NonintraQuantTab
	add	r2, lr, #1	@ ivtmp.2112, tmp437,
	strb	r5, [lr, #1064]	@ tmp442, <variable>.Mp4DecParam.IntraQuantTab
	strb	r4, [lr, #1128]	@ tmp443, <variable>.Mp4DecParam.NonintraQuantTab
	bne	.L600	@,
	movw	ip, #1206	@ tmp426,
	movw	r3, #1204	@ tmp428,
	ldrh	r0, [r6, ip]	@ <variable>.Mp4DecParam.PicHeightInMb, <variable>.Mp4DecParam.PicHeightInMb
	movw	r2, #22060	@ tmp433,
	ldrh	r1, [r6, r3]	@ <variable>.Mp4DecParam.PicWidthInMb, <variable>.Mp4DecParam.PicWidthInMb
	movw	lr, #21944	@ tmp425,
	ldr	r3, [r6, r2]	@ <variable>.pstExtraData, <variable>.pstExtraData
	movw	r2, #15700	@ tmp431,
	mul	ip, r1, r0	@ tmp430, <variable>.Mp4DecParam.PicWidthInMb, <variable>.Mp4DecParam.PicHeightInMb
	str	ip, [r6, lr]	@ tmp430, <variable>.MP4Syntax.syn_vop.mb_total
	ldr	r0, [r3, #684]	@ <variable>.s32Compress_en, <variable>.s32Compress_en
	str	r0, [r6, r2]	@ <variable>.s32Compress_en, <variable>.Mp4DecParam.Compress_en
.L601:
	sub	sp, fp, #40
	ldmfd	sp, {r4, r5, r6, r7, r8, r9, sl, fp, sp, pc}
.L585:
	movw	r1, #:lower16:.LC33	@,
	ldr	r2, .L610	@,
	movt	r1, #:upper16:.LC33	@,
	movw	r3, #3297	@,
	mov	r0, #0	@,
	bl	dprint_vfmw	@
	b	.L601	@
.L609:
	ldr	r2, [fp, #-100]	@, %sfp
	cmp	r2, #3	@,
	bne	.L583	@,
	add	sl, r6, #21248	@, pCtx,
	sub	r1, fp, #92	@,,
	add	r0, sl, #20	@,,
	movw	r5, #21333	@ tmp330,
	bl	MP4_GetGMCparam	@
	ldrb	sl, [r6, r5]	@ zero_extendqisi2	@ <variable>.MP4Syntax.syn_vol.sprite_warping_accuracy, <variable>.MP4Syntax.syn_vol.sprite_warping_accuracy
	ldr	r8, [fp, #-92]	@ gmc.num_wp, gmc.num_wp
	movw	r3, #15664	@ tmp329,
	ldr	r7, [fp, #-76]	@ gmc.dU, gmc.dU
	ldr	r4, [fp, #-68]	@ gmc.dV, gmc.dV
	ldr	lr, [fp, #-64]	@ gmc.dV, gmc.dV
	ldr	ip, [fp, #-60]	@ gmc.Uo, gmc.Uo
	ldr	r0, [fp, #-56]	@ gmc.Vo, gmc.Vo
	ldr	r5, [fp, #-72]	@ gmc.dU, gmc.dU
	ldr	r1, [fp, #-52]	@ gmc.Uco, gmc.Uco
	ldr	r2, [fp, #-48]	@ gmc.Vco, gmc.Vco
	str	sl, [r6, r3]	@ <variable>.MP4Syntax.syn_vol.sprite_warping_accuracy, <variable>.Mp4DecParam.sprite_warping_accuracy
	movw	r3, #15660	@ tmp332,
	str	r8, [r6, r3]	@ gmc.num_wp, <variable>.Mp4DecParam.sprite_warping_points
	movw	r8, #15668	@ tmp334,
	str	r7, [r6, r8]	@ gmc.dU, <variable>.Mp4DecParam.dU
	movw	r8, #15676	@ tmp338,
	mov	r7, #15680	@ tmp340,
	str	r4, [r6, r8]	@ gmc.dV, <variable>.Mp4DecParam.dV
	str	lr, [r6, r7]	@ gmc.dV, <variable>.Mp4DecParam.dV
	movw	r4, #15684	@ tmp342,
	movw	lr, #15688	@ tmp344,
	movw	r3, #15672	@ tmp336,
	str	ip, [r6, r4]	@ gmc.Uo, <variable>.Mp4DecParam.Uo
	movw	ip, #15692	@ tmp346,
	str	r0, [r6, lr]	@ gmc.Vo, <variable>.Mp4DecParam.Vo
	movw	r0, #15696	@ tmp348,
	str	r5, [r6, r3]	@ gmc.dU, <variable>.Mp4DecParam.dU
	str	r1, [r6, ip]	@ gmc.Uco, <variable>.Mp4DecParam.Uco
	str	r2, [r6, r0]	@ gmc.Vco, <variable>.Mp4DecParam.Vco
	b	.L584	@
.L608:
	movw	r0, #22048	@ tmp182,
	movw	r2, #22044	@ tmp187,
	ldr	r1, [r6, r0]	@ <variable>.BitsObj.phy_addr, <variable>.BitsObj.phy_addr
	movw	sl, #22052	@ tmp196,
	ldr	r8, [r6, r2]	@ <variable>.BitsObj.vir_addr, <variable>.BitsObj.vir_addr
	movw	r9, #22056	@ tmp193,
	ldr	r7, [r6, sl]	@ <variable>.BitsObj.len, <variable>.BitsObj.len
	and	ip, r1, #3	@ tmp190, <variable>.BitsObj.phy_addr,
	ldr	r5, [r6, r9]	@ <variable>.BitsObj.offset, <variable>.BitsObj.offset
	mov	r2, #0	@ tmp203,
	bic	r4, r1, #3	@ tmp186, <variable>.BitsObj.phy_addr,
	str	r8, [r6, #1056]	@ <variable>.BitsObj.vir_addr, <variable>.Mp4DecParam.StreamVirAddr
	rsb	lr, r5, r7, asl #3	@, tmp201, <variable>.BitsObj.offset, <variable>.BitsObj.len,
	add	r0, r5, ip, asl #3	@, tmp195, <variable>.BitsObj.offset, tmp190,
	str	r4, [r6, #1220]	@ tmp186, <variable>.Mp4DecParam.StreamPhyAddr
	str	lr, [r6, #1236]	@ tmp201, <variable>.Mp4DecParam.StreamLength
	str	r3, [r6, #1216]	@ <variable>.IsLastSeg, <variable>.Mp4DecParam.StreamFirstIsLastFlag
	str	r0, [r6, #1228]	@ tmp195, <variable>.Mp4DecParam.StreamBitOffset
	str	r2, [r6, #1240]	@ tmp203, <variable>.Mp4DecParam.StreamLength
	str	r1, [r6, #1208]	@ <variable>.BitsObj.phy_addr, <variable>.Mp4DecParam.StreamBaseAddr
	str	r2, [r6, #1224]	@ tmp203, <variable>.Mp4DecParam.StreamPhyAddr
	str	r2, [r6, #1232]	@ tmp203, <variable>.Mp4DecParam.StreamBitOffset
	b	.L582	@
.L589:
	movw	r0, #56792	@ tmp399,
	movw	r3, #56784	@ tmp395,
	ldr	lr, [r6, r0]	@ <variable>.BwdFsID, <variable>.BwdFsID
	movw	r1, #56800	@ tmp397,
	ldr	r2, [r6, r3]	@ <variable>.FwdFsID, <variable>.FwdFsID
	mov	r0, #0	@,
	ldr	r3, [r6, r1]	@ <variable>.CurFsID, <variable>.CurFsID
	movw	r1, #:lower16:.LC34	@,
	movt	r1, #:upper16:.LC34	@,
	str	ip, [sp, #4]	@ D.40839,
	str	lr, [sp, #0]	@ <variable>.BwdFsID,
	str	r4, [sp, #8]	@ prephitmp.2090,
	str	r5, [sp, #12]	@ prephitmp.2153,
	bl	dprint_vfmw	@
	b	.L601	@
.L611:
	.align	2
.L610:
	.word	.LANCHOR0+1340
	.fnend
	.size	Mp4_Set_DecPar, .-Mp4_Set_DecPar
	.align	2
	.global	MPEG4DEC_VDMPostProc
	.type	MPEG4DEC_VDMPostProc, %function
MPEG4DEC_VDMPostProc:
	.fnstart
.LFB1562:
	@ args = 0, pretend = 0, frame = 32
	@ frame_needed = 1, uses_anonymous_args = 0
	.movsp ip
	mov	ip, sp	@,
	stmfd	sp!, {r4, r5, r6, r7, r8, r9, sl, fp, ip, lr, pc}	@,
	.pad #4
	.save {r4, r5, r6, r7, r8, r9, sl, fp, ip, lr}
	.setfp fp, ip, #-4
	sub	fp, ip, #4	@,,
	.pad #44
	sub	sp, sp, #44	@,,
	push	{lr}
	bl	__gnu_mcount_nc
	mov	r4, r0	@ pCtx, pCtx
	mov	r7, r1	@ ErrRatio, ErrRatio
	add	r0, r0, #1040	@, pCtx,
	movw	r1, #14664	@,
	movw	r5, #22960	@ tmp158,
	bl	__memzero	@
	mov	r0, r4	@, pCtx
	bl	MP4_ClearCurPic	@
	mov	r0, r4	@, pCtx
	bl	MP4_Clean_HeadPacket	@
	movw	r6, #22544	@ tmp157,
	movw	r0, #56800	@ tmp160,
	str	r7, [r4, r6]	@ ErrRatio, <variable>.ErrorLevel
	ldr	r1, [r4, r0]	@, <variable>.CurFsID
	ldr	r0, [r4, r5]	@, <variable>.ChanID
	bl	FSP_GetFsImagePtr	@
	movw	r3, #56792	@ tmp164,
	ldr	r1, [r4, r3]	@, <variable>.BwdFsID
	mov	r7, r0	@ pCurImg,
	ldr	r0, [r4, r5]	@, <variable>.ChanID
	bl	FSP_GetFsImagePtr	@
	cmp	r7, #0	@ pCurImg,
	str	r0, [fp, #-72]	@, %sfp
	beq	.L635	@,
	movw	sl, #22552	@ tmp168,
	movw	r8, #21912	@ tmp171,
	ldr	r2, [r4, sl]	@, <variable>.FrameNum
	mov	r0, #11	@,
	movw	r1, #:lower16:.LC36	@,
	movt	r1, #:upper16:.LC36	@,
	bl	dprint_vfmw	@
	ldrb	r2, [r4, r8]	@ zero_extendqisi2	@, <variable>.MP4Syntax.syn_vop.vop_coding_type
	mov	r0, #11	@,
	movw	r1, #:lower16:.LC37	@,
	movt	r1, #:upper16:.LC37	@,
	add	sl, r4, #22528	@ tmp354, pCtx,
	bl	dprint_vfmw	@
	ldr	r2, [r4, r6]	@ <variable>.ErrorLevel, <variable>.ErrorLevel
	add	r1, sl, #52	@, tmp354,
	str	r2, [r7, #200]	@ <variable>.ErrorLevel, <variable>.error_level
	ldr	r0, [r4, r5]	@, <variable>.ChanID
	bl	Mp4_ClearUsrData	@
	ldrb	r1, [r4, r8]	@ zero_extendqisi2	@ <variable>.MP4Syntax.syn_vop.vop_coding_type, <variable>.MP4Syntax.syn_vop.vop_coding_type
	cmp	r1, #2	@ <variable>.MP4Syntax.syn_vop.vop_coding_type,
	beq	.L615	@,
	movw	lr, #22060	@ tmp183,
	ldr	r2, [r4, r6]	@ temp.2216, <variable>.ErrorLevel
	ldr	r3, [r4, lr]	@ <variable>.pstExtraData, <variable>.pstExtraData
	ldr	ip, [r3, #0]	@ <variable>.s32RefErrThr, <variable>.s32RefErrThr
	cmp	r2, ip	@ temp.2216, <variable>.s32RefErrThr
	bhi	.L636	@,
.L615:
	movw	r0, #22600	@ tmp232,
	mov	lr, #0	@ tmp233,
	str	lr, [r4, r0]	@ tmp233, <variable>.IPVopErr
	mov	r0, r4	@, pCtx
	bl	MP4_SetImgFormat	@
	movw	r3, #22060	@ tmp235,
	ldr	ip, [r4, r3]	@ <variable>.pstExtraData, <variable>.pstExtraData
	ldr	r2, [ip, #12]	@ <variable>.s32DecOrderOutput, <variable>.s32DecOrderOutput
	cmp	r2, #1	@ <variable>.s32DecOrderOutput,
	beq	.L618	@,
	movw	r1, #21912	@ tmp237,
	ldrb	r5, [r4, r1]	@ zero_extendqisi2	@ <variable>.MP4Syntax.syn_vop.vop_coding_type, <variable>.MP4Syntax.syn_vop.vop_coding_type
	cmp	r5, #2	@ <variable>.MP4Syntax.syn_vop.vop_coding_type,
	beq	.L619	@,
	movw	r0, #22968	@ tmp239,
	movw	ip, #22968	@ tmp243,
	ldr	lr, [r4, r0]	@ <variable>.RefNum, <variable>.RefNum
	movw	r2, #56804	@ tmp242,
	ldr	r3, [r4, ip]	@ <variable>.RefNum, <variable>.RefNum
	cmp	lr, #1	@ <variable>.RefNum,
	movwgt	lr, #56784	@ tmp241,
	mvnle	r1, #0	@ prephitmp.2184,
	ldrgt	r1, [r4, lr]	@ prephitmp.2184, <variable>.FwdFsID
	cmp	r3, #1	@ <variable>.RefNum,
	movwgt	r3, #56788	@ tmp245,
	ldrgtb	r7, [r4, #0]	@ zero_extendqisi2	@ ToQueCodingType, <variable>.FwdCodingType
	ldrgt	ip, [r4, r3]	@ ToQueTimePP, <variable>.FwdTimePP
	mvnle	ip, #0	@ ToQueTimePP,
	movle	r7, ip	@ ToQueCodingType, ToQueTimePP
	str	r1, [r4, r2]	@ prephitmp.2184, <variable>.ToQueFsID
.L623:
	cmn	r1, #1	@ prephitmp.2184,
	beq	.L625	@,
	movw	r6, #22960	@ tmp254,
	ldr	r0, [r4, r6]	@, <variable>.ChanID
	str	ip, [fp, #-76]	@,
	bl	FSP_GetFsImagePtr	@
	ldr	ip, [fp, #-76]	@,
	subs	r5, r0, #0	@ pToQueImg,
	beq	.L637	@,
	cmp	ip, #0	@ ToQueTimePP,
	cmpeq	r7, #4	@, ToQueCodingType,
	beq	.L638	@,
	ldr	r2, [r5, #200]	@ prephitmp.2186, <variable>.error_level
	cmp	r2, #0	@ prephitmp.2186,
	beq	.L628	@,
	movw	r8, #22060	@ tmp292,
	ldr	r0, [r4, r8]	@ <variable>.pstExtraData, <variable>.pstExtraData
	ldr	r3, [r0, #4]	@ prephitmp.2190, <variable>.s32OutErrThr
	cmp	r2, r3	@ prephitmp.2186, prephitmp.2190
	bhi	.L629	@,
.L628:
	movw	r6, #22960	@ tmp293,
	movw	r8, #56804	@ tmp295,
	ldr	r0, [r4, r6]	@, <variable>.ChanID
	ldr	r1, [r4, r8]	@, <variable>.ToQueFsID
	bl	FSP_GetLogicFs	@
	subs	r9, r0, #0	@ pstLogicFs,
	beq	.L639	@,
	cmp	r7, #2	@ ToQueCodingType,
	beq	.L631	@,
	ldrsb	r1, [r9, #1]	@ <variable>.s32DispState, <variable>.s32DispState
	cmp	r1, #2	@ <variable>.s32DispState,
	beq	.L631	@,
	movw	r1, #:lower16:.LC39	@,
	ldr	r2, [r4, r8]	@, <variable>.ToQueFsID
	movt	r1, #:upper16:.LC39	@,
	mov	r0, #11	@,
	bl	dprint_vfmw	@
.L625:
	movw	ip, #22552	@ tmp349,
	mov	r0, #0	@ D.41336,
	ldr	r1, [r4, ip]	@ <variable>.FrameNum, <variable>.FrameNum
	add	r2, r1, #1	@ tmp352, <variable>.FrameNum,
	str	r2, [r4, ip]	@ tmp352, <variable>.FrameNum
.L614:
	sub	sp, fp, #40
	ldmfd	sp, {r4, r5, r6, r7, r8, r9, sl, fp, sp, pc}
.L618:
	movw	r7, #56800	@ tmp250,
	movw	ip, #21912	@ tmp252,
	ldr	r1, [r4, r7]	@ prephitmp.2184, <variable>.CurFsID
	movw	lr, #22004	@ tmp253,
	movw	r2, #56804	@ tmp251,
	ldrb	r7, [r4, ip]	@ zero_extendqisi2	@ ToQueCodingType, <variable>.MP4Syntax.syn_vop.vop_coding_type
	ldr	ip, [r4, lr]	@ ToQueTimePP, <variable>.MP4Syntax.time_pp
	str	r1, [r4, r2]	@ prephitmp.2184, <variable>.ToQueFsID
	b	.L623	@
.L619:
	ldr	r1, [fp, #-72]	@, %sfp
	movw	r6, #56800	@ tmp246,
	movw	r3, #22004	@ tmp248,
	cmp	r1, #0	@,
	ldr	r1, [r4, r6]	@ prephitmp.2184, <variable>.CurFsID
	movw	r6, #56804	@ tmp247,
	ldr	ip, [r4, r3]	@ ToQueTimePP, <variable>.MP4Syntax.time_pp
	str	r1, [r4, r6]	@ prephitmp.2184, <variable>.ToQueFsID
	beq	.L624	@,
	ldr	r3, [fp, #-72]	@, %sfp
	ldrd	r2, [r3, #8]	@,,
	strd	r2, [fp, #-68]	@,,
	ldrd	r8, [r7, #8]	@, pCurImg,
	strd	r8, [fp, #-60]	@,,
	cmp	r2, r8	@,
	sbcs	r9, r3, r9	@,,
	bge	.L624	@,
	strd	r2, [r7, #8]	@, pCurImg,
	mov	r7, r5	@ ToQueCodingType, <variable>.MP4Syntax.syn_vop.vop_coding_type
	ldrd	r2, [fp, #-60]	@,,
	ldr	r8, [fp, #-72]	@, %sfp
	strd	r2, [r8, #8]	@,,
	ldr	r1, [r4, r6]	@ prephitmp.2184, <variable>.ToQueFsID
	b	.L623	@
.L629:
	movw	r7, #:lower16:g_event_report	@ tmp327,
	movt	r7, #:upper16:g_event_report	@ tmp327,
	ldr	ip, [r7, #0]	@ g_event_report.2241, g_event_report
	cmp	ip, #0	@ g_event_report.2241,
	beq	.L633	@,
	str	r2, [fp, #-52]	@ prephitmp.2186, para
	mov	r3, #8	@,
	ldr	lr, [r0, #4]	@ <variable>.s32OutErrThr, <variable>.s32OutErrThr
	sub	r2, fp, #52	@,,
	ldr	r0, [r4, r6]	@, <variable>.ChanID
	mov	r1, #104	@,
	str	lr, [fp, #-48]	@ <variable>.s32OutErrThr, para
	blx	ip	@ g_event_report.2241
	ldr	r6, [r4, r8]	@ <variable>.pstExtraData, <variable>.pstExtraData
	ldr	r2, [r5, #200]	@ prephitmp.2186, <variable>.error_level
	ldr	r3, [r6, #4]	@ prephitmp.2190, <variable>.s32OutErrThr
.L633:
	movw	r6, #22960	@ tmp337,
	mov	r0, #1	@,
	movw	r1, #:lower16:.LC40	@,
	movt	r1, #:upper16:.LC40	@,
	bl	dprint_vfmw	@
	ldr	r0, [r4, r6]	@, <variable>.ChanID
	ldr	r1, [r5, #212]	@, <variable>.p_usrdat
	mov	r7, #0	@ tmp340,
	bl	FreeUsdByDec	@
	str	r7, [r5, #212]	@ tmp340, <variable>.p_usrdat
	ldr	r1, [r5, #216]	@, <variable>.p_usrdat
	ldr	r0, [r4, r6]	@, <variable>.ChanID
	bl	FreeUsdByDec	@
	movw	r3, #56804	@ tmp347,
	str	r7, [r5, #216]	@ tmp340, <variable>.p_usrdat
	mov	r2, r7	@, tmp340
	ldr	r0, [r4, r6]	@, <variable>.ChanID
	ldr	r1, [r4, r3]	@, <variable>.ToQueFsID
	bl	FSP_SetDisplay	@
	b	.L625	@
.L631:
	movw	r6, #22960	@ tmp304,
	movw	r7, #56804	@ tmp306,
	ldr	r0, [r4, r6]	@, <variable>.ChanID
	mov	r2, #1	@,
	ldr	r1, [r4, r7]	@, <variable>.ToQueFsID
	bl	FSP_SetDisplay	@
	ldr	r0, [r4, r6]	@ <variable>.ChanID, <variable>.ChanID
	add	r3, sl, #80	@, tmp354,
	mov	r1, #2	@,
	mov	r2, r4	@, pCtx
	str	r5, [sp, #0]	@ pToQueImg,
	bl	InsertImgToVoQueue	@
	cmp	r0, #1	@,
	beq	.L625	@,
	ldr	r0, [r4, r6]	@, <variable>.ChanID
	mov	r8, #0	@ tmp315,
	ldr	r1, [r5, #212]	@, <variable>.p_usrdat
	bl	FreeUsdByDec	@
	str	r8, [r5, #212]	@ tmp315, <variable>.p_usrdat
	ldr	r1, [r5, #216]	@, <variable>.p_usrdat
	ldr	r0, [r4, r6]	@, <variable>.ChanID
	bl	FreeUsdByDec	@
	str	r8, [r5, #216]	@ tmp315, <variable>.p_usrdat
	mov	r2, r8	@, tmp315
	ldr	r0, [r4, r6]	@, <variable>.ChanID
	ldr	r1, [r4, r7]	@, <variable>.ToQueFsID
	bl	FSP_SetDisplay	@
	mvn	r0, #0	@ D.41336,
	b	.L614	@
.L624:
	mov	r7, #2	@ ToQueCodingType,
	b	.L623	@
.L636:
	movw	r6, #:lower16:g_event_report	@ tmp185,
	movt	r6, #:upper16:g_event_report	@ tmp185,
	ldr	ip, [r6, #0]	@ g_event_report.596, g_event_report
	cmp	ip, #0	@ g_event_report.596,
	beq	.L616	@,
	str	r2, [fp, #-52]	@ temp.2216, para
	mov	r1, #104	@,
	ldr	r8, [r3, #0]	@ <variable>.s32RefErrThr, <variable>.s32RefErrThr
	sub	r2, fp, #52	@,,
	ldr	r0, [r4, r5]	@, <variable>.ChanID
	mov	r3, #8	@,
	str	r8, [fp, #-48]	@ <variable>.s32RefErrThr, para
	blx	ip	@ g_event_report.596
.L616:
	movw	r3, #22600	@ tmp192,
	movw	r5, #22960	@ tmp194,
	movw	r8, #56792	@ tmp196,
	mov	sl, #1	@ tmp193,
	ldr	r0, [r4, r5]	@, <variable>.ChanID
	str	sl, [r4, r3]	@ tmp193, <variable>.IPVopErr
	ldr	r1, [r4, r8]	@, <variable>.BwdFsID
	bl	FSP_GetFsImagePtr	@
	subs	r6, r0, #0	@ pImg,
	beq	.L617	@,
	ldr	r0, [r4, r5]	@, <variable>.ChanID
	mov	r7, #0	@ tmp210,
	ldr	r1, [r6, #212]	@, <variable>.p_usrdat
	movw	r9, #56784	@ tmp220,
	bl	FreeUsdByDec	@
	ldr	r0, [r4, r5]	@, <variable>.ChanID
	ldr	r1, [r6, #216]	@, <variable>.p_usrdat
	bl	FreeUsdByDec	@
	ldr	r0, [r4, r5]	@, <variable>.ChanID
	ldr	r1, [r6, #220]	@, <variable>.p_usrdat
	bl	FreeUsdByDec	@
	ldr	r0, [r4, r5]	@, <variable>.ChanID
	ldr	r1, [r6, #224]	@, <variable>.p_usrdat
	bl	FreeUsdByDec	@
	str	r7, [r6, #224]	@ tmp210, <variable>.p_usrdat
	str	r7, [r6, #212]	@ tmp210, <variable>.p_usrdat
	mov	r2, sl	@, tmp193
	str	r7, [r6, #216]	@ tmp210, <variable>.p_usrdat
	str	r7, [r6, #220]	@ tmp210, <variable>.p_usrdat
	ldr	r0, [r4, r5]	@, <variable>.ChanID
	ldr	r1, [r4, r8]	@, <variable>.BwdFsID
	bl	FSP_ClearLogicFs	@
	mov	r2, sl	@, tmp193
	ldr	r0, [r4, r5]	@, <variable>.ChanID
	ldr	r1, [r4, r9]	@, <variable>.FwdFsID
	bl	FSP_ClearLogicFs	@
	str	r7, [r4, r8]	@ tmp210, <variable>.BwdFsID
	str	r7, [r4, r9]	@ tmp210, <variable>.FwdFsID
	ldr	r0, [r4, r5]	@, <variable>.ChanID
	bl	FSP_GetNullLogicFs	@
	str	r0, [r4, r9]	@ D.41364, <variable>.FwdFsID
	str	r0, [r4, r8]	@ D.41364, <variable>.BwdFsID
.L617:
	movw	r1, #22968	@ tmp230,
	mov	r0, #0	@ tmp231,
	str	r0, [r4, r1]	@ tmp231, <variable>.RefNum
	mvn	r0, #0	@ D.41336,
	b	.L614	@
.L638:
	ldr	r0, [r4, r6]	@ temp.2236, <variable>.ChanID
	movw	lr, #:lower16:g_VfmwChanStat	@ tmp265,
	movt	lr, #:upper16:g_VfmwChanStat	@ tmp265,
	mov	ip, #300	@ tmp268,
	mov	r7, #0	@ tmp282,
	mla	r3, ip, r0, lr	@ tmp269, tmp268, temp.2236, tmp265
	ldr	r2, [r3, #16]	@ <variable>.u32SkipDiscard, <variable>.u32SkipDiscard
	add	r1, r2, #1	@ tmp278, <variable>.u32SkipDiscard,
	str	r1, [r3, #16]	@ tmp278, <variable>.u32SkipDiscard
	ldr	r0, [r4, r6]	@, <variable>.ChanID
	ldr	r1, [r5, #212]	@, <variable>.p_usrdat
	bl	FreeUsdByDec	@
	str	r7, [r5, #212]	@ tmp282, <variable>.p_usrdat
	ldr	r1, [r5, #216]	@, <variable>.p_usrdat
	ldr	r0, [r4, r6]	@, <variable>.ChanID
	bl	FreeUsdByDec	@
	movw	r0, #56804	@ tmp289,
	str	r7, [r5, #216]	@ tmp282, <variable>.p_usrdat
	mov	r2, r7	@, tmp282
	ldr	r1, [r4, r0]	@, <variable>.ToQueFsID
	ldr	r0, [r4, r6]	@, <variable>.ChanID
	bl	FSP_SetDisplay	@
	mvn	r0, #0	@ D.41336,
	b	.L614	@
.L635:
	mov	r0, r7	@, pCurImg
	ldr	r3, [fp, #-72]	@, %sfp
	movw	r1, #:lower16:.LC35	@,
	mov	r2, r7	@,
	movt	r1, #:upper16:.LC35	@,
	bl	dprint_vfmw	@
	mvn	r0, #0	@ D.41336,
	b	.L614	@
.L637:
	movw	r1, #:lower16:.LC38	@,
	movw	r2, #4275	@,
	movt	r1, #:upper16:.LC38	@,
	bl	dprint_vfmw	@
	mvn	r0, #0	@ D.41336,
	b	.L614	@
.L639:
	ldr	r0, [r4, r6]	@, <variable>.ChanID
	ldr	r1, [r5, #212]	@, <variable>.p_usrdat
	bl	FreeUsdByDec	@
	str	r9, [r5, #212]	@ pstLogicFs, <variable>.p_usrdat
	ldr	r1, [r5, #216]	@, <variable>.p_usrdat
	ldr	r0, [r4, r6]	@, <variable>.ChanID
	bl	FreeUsdByDec	@
	str	r9, [r5, #216]	@ pstLogicFs, <variable>.p_usrdat
	mov	r2, r9	@, pstLogicFs
	ldr	r0, [r4, r6]	@, <variable>.ChanID
	ldr	r1, [r4, r8]	@, <variable>.ToQueFsID
	bl	FSP_SetDisplay	@
	mvn	r0, #0	@ D.41336,
	b	.L614	@
	.fnend
	.size	MPEG4DEC_VDMPostProc, .-MPEG4DEC_VDMPostProc
	.align	2
	.global	MPEG4DEC_GetRemainImg
	.type	MPEG4DEC_GetRemainImg, %function
MPEG4DEC_GetRemainImg:
	.fnstart
.LFB1561:
	@ args = 0, pretend = 0, frame = 0
	@ frame_needed = 1, uses_anonymous_args = 0
	.movsp ip
	mov	ip, sp	@,
	stmfd	sp!, {r4, r5, r6, r7, r8, fp, ip, lr, pc}	@,
	.pad #4
	.save {r4, r5, r6, r7, r8, fp, ip, lr}
	.setfp fp, ip, #-4
	sub	fp, ip, #4	@,,
	.pad #12
	sub	sp, sp, #12	@,,
	push	{lr}
	bl	__gnu_mcount_nc
	movw	r1, #22060	@ tmp141,
	mov	r4, r0	@ pCtx, pCtx
	ldr	r0, [r0, r1]	@ <variable>.pstExtraData, <variable>.pstExtraData
	ldr	r3, [r0, #12]	@ <variable>.s32DecOrderOutput, <variable>.s32DecOrderOutput
	cmp	r3, #1	@ <variable>.s32DecOrderOutput,
	beq	.L652	@,
	movw	r6, #22960	@ tmp143,
	movw	r5, #56792	@ tmp145,
	ldr	r0, [r4, r6]	@, <variable>.ChanID
	ldr	r1, [r4, r5]	@, <variable>.BwdFsID
	bl	FSP_GetFsImagePtr	@
	subs	r7, r0, #0	@ pImg,
	beq	.L652	@,
	ldr	r1, [r4, r5]	@, <variable>.BwdFsID
	ldr	r0, [r4, r6]	@, <variable>.ChanID
	bl	FSP_GetDisplay	@
	cmp	r0, #2	@ display_flag,
	mov	r8, r0	@ display_flag,
	beq	.L650	@,
.L652:
	add	r5, r4, #22528	@ tmp174, pCtx,
	add	r5, r5, #80	@ tmp174, tmp174,
.L641:
	mov	r0, r5	@, tmp174
	bl	GetVoLastImageID	@
.L643:
	sub	sp, fp, #32
	ldmfd	sp, {r4, r5, r6, r7, r8, fp, sp, pc}
.L650:
	mov	r0, r4	@, pCtx
	add	r5, r4, #22528	@ tmp174, pCtx,
	bl	MP4_SetImgFormat	@
	add	r5, r5, #80	@ tmp174, tmp174,
	mov	ip, #1	@ tmp151,
	ldr	r1, [r7, #196]	@, <variable>.image_id
	mov	r2, ip	@, tmp151
	str	ip, [r7, #244]	@ tmp151, <variable>.last_frame
	ldr	r0, [r4, r6]	@, <variable>.ChanID
	bl	FSP_SetDisplay	@
	ldr	r0, [r4, r6]	@ <variable>.ChanID, <variable>.ChanID
	mov	r1, r8	@, display_flag
	mov	r2, r4	@, pCtx
	mov	r3, r5	@, tmp174
	str	r7, [sp, #0]	@ pImg,
	bl	InsertImgToVoQueue	@
	cmp	r0, #1	@,
	beq	.L642	@,
	ldr	r1, [r7, #196]	@, <variable>.image_id
	mov	r0, r4	@, pCtx
	bl	MPEG4DEC_RecycleImage	@
	ldr	r0, [r4, r6]	@, <variable>.ChanID
	ldr	r1, [r7, #212]	@, <variable>.p_usrdat
	mov	r8, #0	@ tmp163,
	bl	FreeUsdByDec	@
	str	r8, [r7, #212]	@ tmp163, <variable>.p_usrdat
	ldr	r1, [r7, #216]	@, <variable>.p_usrdat
	ldr	r0, [r4, r6]	@, <variable>.ChanID
	bl	FreeUsdByDec	@
	str	r8, [r7, #216]	@ tmp163, <variable>.p_usrdat
	b	.L641	@
.L642:
	ldr	r2, [r7, #200]	@ <variable>.error_level, <variable>.error_level
	cmp	r2, #100	@ <variable>.error_level,
	bhi	.L641	@,
	ldr	lr, [r7, #164]	@ <variable>.image_width, <variable>.image_width
	cmp	lr, #31	@ <variable>.image_width,
	bls	.L641	@,
	ldr	r3, [r7, #168]	@ <variable>.image_height, <variable>.image_height
	cmp	r3, #31	@ <variable>.image_height,
	movhi	r0, #0	@ ret,
	bhi	.L643	@,
	b	.L641	@
	.fnend
	.size	MPEG4DEC_GetRemainImg, .-MPEG4DEC_GetRemainImg
	.align	2
	.global	MPEG4DEC_Init
	.type	MPEG4DEC_Init, %function
MPEG4DEC_Init:
	.fnstart
.LFB1556:
	@ args = 0, pretend = 0, frame = 776
	@ frame_needed = 1, uses_anonymous_args = 0
	.movsp ip
	mov	ip, sp	@,
	stmfd	sp!, {r4, r5, r6, r7, r8, fp, ip, lr, pc}	@,
	.pad #4
	.save {r4, r5, r6, r7, r8, fp, ip, lr}
	.setfp fp, ip, #-4
	sub	fp, ip, #4	@,,
	.pad #780
	sub	sp, sp, #780	@,,
	push	{lr}
	bl	__gnu_mcount_nc
	mov	r4, r0	@ pCtx, pCtx
	mov	r5, r1	@ pstExtraData, pstExtraData
	mov	r0, #2	@,
	movw	r1, #:lower16:.LC41	@,
	movt	r1, #:upper16:.LC41	@,
	bl	dprint_vfmw	@
	cmp	r4, #0	@ pCtx,
	cmpne	r5, #0	@, pstExtraData,
	beq	.L654	@,
	ldr	r3, [r5, #696]	@ <variable>.s32KeepSPSPPS, <variable>.s32KeepSPSPPS
	cmp	r3, #1	@ <variable>.s32KeepSPSPPS,
	beq	.L661	@,
.L655:
	movw	r6, #22952	@ tmp170,
	movw	r1, #56824	@,
	ldr	r7, [r4, r6]	@ D.40954, <variable>.ImageQue.ResetMagicWord
	mov	r0, r4	@, pCtx
	bl	__memzero	@
	add	r1, r4, #22528	@, pCtx,
	add	r0, r1, #80	@,,
	mov	r8, #0	@ tmp175,
	str	r7, [r4, r6]	@ D.40954, <variable>.ImageQue.ResetMagicWord
	bl	ResetVoQueue	@
	movw	r0, #22060	@ tmp174,
	str	r5, [r4, r0]	@ pstExtraData, <variable>.pstExtraData
	mov	r0, r4	@, pCtx
	str	r8, [r5, #904]	@ tmp175, <variable>.s32WaitFsFlag
	bl	VCTRL_GetChanIDByCtx	@
	movw	r2, #22960	@ tmp176,
	cmn	r0, #1	@ D.40963,
	str	r0, [r4, r2]	@ D.40963, <variable>.ChanID
	beq	.L662	@,
	mov	r0, r4	@, pCtx
	bl	Global_Data_Init	@
	subs	r6, r0, #0	@ D.40968,
	beq	.L663	@,
.L654:
	mvn	r0, #0	@ D.40950,
.L657:
	sub	sp, fp, #32
	ldmfd	sp, {r4, r5, r6, r7, r8, fp, sp, pc}
.L663:
	movw	r3, #22576	@ tmp180,
	movw	ip, #22548	@ tmp178,
	mov	lr, #1	@ tmp179,
	str	r6, [r4, r3]	@ D.40968, <variable>.PPicFound
	str	lr, [r4, ip]	@ tmp179, <variable>.InitComplete
	mov	r0, #2	@,
	movw	r1, #:lower16:.LC43	@,
	movt	r1, #:upper16:.LC43	@,
	bl	dprint_vfmw	@
	ldr	r5, [r5, #696]	@ <variable>.s32KeepSPSPPS, <variable>.s32KeepSPSPPS
	cmp	r5, #1	@ <variable>.s32KeepSPSPPS,
	beq	.L658	@,
	mov	r0, r6	@ D.40950, D.40968
	b	.L657	@
.L661:
	add	r6, r4, #21248	@, pCtx,
	mov	r2, #768	@,
	add	r1, r6, #20	@,,
	sub	r0, fp, #812	@,,
	bl	memcpy	@
	add	r3, r4, #19968	@ tmp158, pCtx,
	add	lr, r3, #8	@ tmp158, tmp158,
	sub	ip, fp, #796	@ tmp156,,
	sub	r6, fp, #44	@ tmp166,,
	ldmia	lr!, {r0, r1, r2, r3}	@ tmp209,,,,
	stmia	ip!, {r0, r1, r2, r3}	@ tmp156,,,,
	ldmia	lr, {r0, r1}	@ tmp209,,
	mov	r2, #604	@,
	stmia	ip, {r0, r1}	@ tmp210,,
	add	r1, r4, #19968	@, pCtx,
	add	r1, r1, #32	@,,
	sub	r0, fp, #772	@,,
	bl	memcpy	@
	add	r0, r4, #22016	@ tmp167, pCtx,
	add	r7, r0, #20	@ tmp167, tmp167,
	ldmia	r7, {r0, r1}	@ tmp167,,
	mov	r2, r1, lsr #16	@ tmp168,,
	strb	r2, [r6, #6]	@ tmp168, MP4SyntaxState
	str	r0, [fp, #-44]	@, MP4SyntaxState
	strh	r1, [r6, #4]	@ movhi	@, MP4SyntaxState
	b	.L655	@
.L662:
	mov	r0, r8	@, tmp175
	movw	r1, #:lower16:.LC42	@,
	movt	r1, #:upper16:.LC42	@,
	bl	dprint_vfmw	@
	mvn	r0, #19	@ D.40950,
	b	.L657	@
.L658:
	add	r2, r4, #21248	@, pCtx,
	sub	r1, fp, #812	@,,
	add	r0, r2, #20	@,,
	mov	r2, #768	@,
	bl	memcpy	@
	sub	lr, fp, #796	@ tmp192,,
	add	ip, r4, #19968	@ tmp191, pCtx,
	ldmia	lr!, {r0, r1, r2, r3}	@ tmp213,,,,
	add	ip, ip, #8	@ tmp191, tmp191,
	stmia	ip!, {r0, r1, r2, r3}	@ tmp191,,,,
	ldmia	lr, {r0, r1}	@ tmp213,,
	mov	r2, #604	@,
	stmia	ip, {r0, r1}	@ tmp214,,
	add	r1, r4, #19968	@, pCtx,
	add	r0, r1, #32	@,,
	sub	r1, fp, #772	@,,
	bl	memcpy	@
	add	r0, r4, #22016	@, pCtx,
	mov	r2, #7	@,
	add	r0, r0, #20	@,,
	sub	r1, fp, #44	@,,
	bl	memcpy	@
	movw	r2, #56809	@ tmp205,
	strb	r5, [r4, r2]	@ <variable>.s32KeepSPSPPS, <variable>.SeekReset
	mov	r0, r6	@ D.40950, D.40968
	b	.L657	@
	.fnend
	.size	MPEG4DEC_Init, .-MPEG4DEC_Init
	.global	__aeabi_uidiv
	.align	2
	.global	Mp4_RecordFrameAtr
	.type	Mp4_RecordFrameAtr, %function
Mp4_RecordFrameAtr:
	.fnstart
.LFB1551:
	@ args = 0, pretend = 0, frame = 0
	@ frame_needed = 1, uses_anonymous_args = 0
	.movsp ip
	mov	ip, sp	@,
	stmfd	sp!, {r4, r5, r6, r7, r8, r9, sl, fp, ip, lr, pc}	@,
	.pad #4
	.save {r4, r5, r6, r7, r8, r9, sl, fp, ip, lr}
	.setfp fp, ip, #-4
	sub	fp, ip, #4	@,,
	.pad #12
	sub	sp, sp, #12	@,,
	push	{lr}
	bl	__gnu_mcount_nc
	movw	r3, #21311	@ tmp150,
	ldrb	r3, [r0, r3]	@ zero_extendqisi2	@ D.40554, <variable>.MP4Syntax.syn_vol.aspect_ratio_info
	mov	r6, r0	@ pCtx, pCtx
	mov	r4, r1	@ id, id
	cmp	r3, #15	@ D.40554,
	beq	.L675	@,
	sub	r1, r3, #2	@ tmp173, D.40554,
	uxtb	ip, r1	@ tmp174, tmp173
	cmp	ip, #1	@ tmp174,
	bls	.L669	@,
	sub	lr, r3, #4	@ tmp175, D.40554,
	uxtb	r2, lr	@ tmp176, tmp175
	cmp	r2, #1	@ tmp176,
	bls	.L670	@,
	cmp	r3, #1	@ D.40554,
	moveq	r7, #5	@ aspect_ratio,
	beq	.L671	@,
.L666:
	mov	r7, #0	@ aspect_ratio,
.L671:
	mov	r1, r4	@, id
	movw	r4, #22960	@ tmp177,
	ldr	r0, [r6, r4]	@, <variable>.ChanID
	bl	FSP_GetFsImagePtr	@
	subs	r4, r0, #0	@ pImg,
	beq	.L674	@,
	movw	r1, #21976	@ tmp179,
	movw	r3, #21972	@ tmp181,
	ldr	ip, [r6, r1]	@ <variable>.MP4Syntax.image_width, <variable>.MP4Syntax.image_width
	movw	r9, #22060	@ tmp184,
	mov	r1, r7	@, aspect_ratio
	str	ip, [r4, #164]	@ <variable>.MP4Syntax.image_width, <variable>.image_width
	ldr	sl, [r6, r3]	@ <variable>.MP4Syntax.image_height, <variable>.MP4Syntax.image_height
	str	sl, [r4, #168]	@ <variable>.MP4Syntax.image_height, <variable>.image_height
	bl	SetAspectRatio	@
	ldr	r8, [r6, r9]	@ <variable>.pstExtraData, <variable>.pstExtraData
	ldr	r5, [r8, #32]	@ <variable>.eCapLevel, <variable>.eCapLevel
	cmp	r5, #25	@ <variable>.eCapLevel,
	beq	.L676	@,
.L673:
	movw	r0, #21976	@ tmp199,
	movw	r8, #21972	@ tmp201,
	ldr	r5, [r6, r0]	@ <variable>.MP4Syntax.image_width, <variable>.MP4Syntax.image_width
	movw	r9, #21912	@ tmp214,
	movw	r3, #22060	@ tmp249,
	str	r5, [r4, #172]	@ <variable>.MP4Syntax.image_width, <variable>.disp_width
	mov	r5, #0	@ tmp239,
	ldr	r1, [r6, r8]	@ <variable>.MP4Syntax.image_height, <variable>.MP4Syntax.image_height
	str	r1, [r4, #176]	@ <variable>.MP4Syntax.image_height, <variable>.disp_height
	movw	r1, #:lower16:.LC44	@,
	ldr	r2, [r6, r0]	@ <variable>.MP4Syntax.image_width, <variable>.MP4Syntax.image_width
	movt	r1, #:upper16:.LC44	@,
	mov	r0, #29	@,
	mov	ip, r2, lsr #1	@ tmp205, <variable>.MP4Syntax.image_width,
	str	ip, [r4, #180]	@ tmp205, <variable>.disp_center_x
	ldr	sl, [r6, r8]	@ <variable>.MP4Syntax.image_height, <variable>.MP4Syntax.image_height
	movw	r2, #22540	@ tmp209,
	movw	r8, #22536	@ tmp211,
	mov	lr, sl, lsr #1	@ tmp208, <variable>.MP4Syntax.image_height,
	str	lr, [r4, #184]	@ tmp208, <variable>.disp_center_y
	ldr	ip, [r6, r2]	@ <variable>.ImgCntOfSeq, <variable>.ImgCntOfSeq
	movw	lr, #21917	@ tmp217,
	movw	r2, #21289	@ tmp222,
	str	ip, [r4, #208]	@ <variable>.ImgCntOfSeq, <variable>.seq_img_cnt
	movw	ip, #21318	@ tmp227,
	ldr	sl, [r6, r8]	@ <variable>.SeqCnt, <variable>.SeqCnt
	str	sl, [r4, #204]	@ <variable>.SeqCnt, <variable>.seq_cnt
	ldrb	r8, [r6, r9]	@ zero_extendqisi2	@ <variable>.MP4Syntax.syn_vop.vop_coding_type, <variable>.MP4Syntax.syn_vop.vop_coding_type
	ldrb	sl, [r6, lr]	@ zero_extendqisi2	@ <variable>.MP4Syntax.syn_vop.top_field_first, <variable>.MP4Syntax.syn_vop.top_field_first
	ldrb	lr, [r6, r2]	@ zero_extendqisi2	@ <variable>.MP4Syntax.syn_vos.video_format, <variable>.MP4Syntax.syn_vos.video_format
	and	r2, r8, #3	@ tmp216, <variable>.MP4Syntax.syn_vop.vop_coding_type,
	ldrb	ip, [r6, ip]	@ zero_extendqisi2	@ <variable>.MP4Syntax.syn_vol.interlaced, <variable>.MP4Syntax.syn_vol.interlaced
	orr	r8, r2, sl, asl #12	@, tmp220, tmp216, <variable>.MP4Syntax.syn_vop.top_field_first,
	mov	lr, lr, asl #5	@ tmp224, <variable>.MP4Syntax.syn_vos.video_format,
	orr	r8, r8, #3072	@ tmp221, tmp220,
	and	r2, lr, #255	@ tmp225, tmp224,
	and	ip, ip, #1	@ tmp229, <variable>.MP4Syntax.syn_vol.interlaced,
	orr	lr, r8, r2	@ tmp226, tmp221, tmp225
	orr	r8, lr, ip, asl #8	@, tmp231, tmp226, tmp229,
	orr	r2, r8, r7, asl #14	@, tmp232, tmp231, aspect_ratio,
	str	r2, [r4, #160]	@ tmp232, <variable>.format
	ldrb	ip, [r6, r9]	@ zero_extendqisi2	@ <variable>.MP4Syntax.syn_vop.vop_coding_type, <variable>.MP4Syntax.syn_vop.vop_coding_type
	movw	r2, #22580	@ tmp240,
	and	lr, ip, #3	@ tmp235, <variable>.MP4Syntax.syn_vop.vop_coding_type,
	str	lr, [r4, #152]	@ tmp235, <variable>.top_fld_type
	ldrb	r8, [r6, r9]	@ zero_extendqisi2	@ <variable>.MP4Syntax.syn_vop.vop_coding_type, <variable>.MP4Syntax.syn_vop.vop_coding_type
	movw	ip, #22584	@ tmp242,
	str	r5, [r4, #148]	@ tmp239, <variable>.is_fld_save
	and	r7, r8, #3	@ tmp238, <variable>.MP4Syntax.syn_vop.vop_coding_type,
	str	r7, [r4, #156]	@ tmp238, <variable>.bottom_fld_type
	ldr	r9, [r6, r2]	@ <variable>.UsrData, <variable>.UsrData
	movw	r8, #22588	@ tmp244,
	movw	r2, #22592	@ tmp246,
	str	r9, [r4, #212]	@ <variable>.UsrData, <variable>.p_usrdat
	ldr	lr, [r6, ip]	@ <variable>.UsrData, <variable>.UsrData
	str	lr, [r4, #216]	@ <variable>.UsrData, <variable>.p_usrdat
	ldr	r7, [r6, r8]	@ <variable>.UsrData, <variable>.UsrData
	str	r7, [r4, #220]	@ <variable>.UsrData, <variable>.p_usrdat
	ldr	r9, [r6, r2]	@ <variable>.UsrData, <variable>.UsrData
	str	r9, [r4, #224]	@ <variable>.UsrData, <variable>.p_usrdat
	ldr	ip, [r6, r3]	@ <variable>.pstExtraData, <variable>.pstExtraData
	ldrd	r8, [ip, #56]	@ <variable>.pts, <variable>.pstExtraData,
	strd	r8, [r4, #8]	@ <variable>.pts, pImg,
	ldr	lr, [r6, r3]	@ <variable>.pstExtraData, <variable>.pstExtraData
	ldrd	r8, [lr, #72]	@ <variable>.Usertag, <variable>.pstExtraData,
	strd	r8, [r4, #16]	@ <variable>.Usertag, pImg,
	ldr	r7, [r6, r3]	@ <variable>.pstExtraData, <variable>.pstExtraData
	ldrd	r8, [r7, #88]	@ <variable>.DispTime, <variable>.pstExtraData,
	strd	r8, [r4, #24]	@ <variable>.DispTime, pImg,
	ldr	r2, [r6, r3]	@ <variable>.pstExtraData, <variable>.pstExtraData
	ldr	ip, [r2, #104]	@ <variable>.DispEnableFlag, <variable>.DispEnableFlag
	str	ip, [r4, #68]	@ <variable>.DispEnableFlag, <variable>.DispEnableFlag
	ldr	lr, [r6, r3]	@ <variable>.pstExtraData, <variable>.pstExtraData
	ldr	r7, [lr, #108]	@ <variable>.DispFrameDistance, <variable>.DispFrameDistance
	str	r7, [r4, #72]	@ <variable>.DispFrameDistance, <variable>.DispFrameDistance
	ldr	r2, [r6, r3]	@ <variable>.pstExtraData, <variable>.pstExtraData
	ldr	ip, [r2, #112]	@ <variable>.DistanceBeforeFirstFrame, <variable>.DistanceBeforeFirstFrame
	str	ip, [r4, #76]	@ <variable>.DistanceBeforeFirstFrame, <variable>.DistanceBeforeFirstFrame
	ldr	lr, [r6, r3]	@ <variable>.pstExtraData, <variable>.pstExtraData
	ldr	r7, [lr, #128]	@ <variable>.GopNum, <variable>.GopNum
	str	r7, [r4, #80]	@ <variable>.GopNum, <variable>.GopNum
	mvn	r7, #0	@,
	ldr	r2, [r6, r3]	@ <variable>.pstExtraData, <variable>.pstExtraData
	mvn	r6, #0	@ tmp271,
	strd	r6, [r2, #56]	@ tmp271, <variable>.pstExtraData,
	ldrd	r6, [r4, #16]	@ <variable>.Usertag, pImg,
	ldrd	r2, [r4, #8]	@ <variable>.PTS, pImg,
	strd	r6, [sp]	@ <variable>.Usertag,
	bl	dprint_vfmw	@
	mov	r3, #8	@ tmp280,
	mov	r1, #2	@ tmp275,
	mov	ip, #1	@ tmp283,
	strb	r5, [r4, #379]	@ tmp239, <variable>.ImageDnr.use_pic_qp_en
	str	r3, [r4, #392]	@ tmp280, <variable>.ImageDnr.QP_U
	str	r1, [r4, #384]	@ tmp275, <variable>.ImageDnr.video_standard
	strb	ip, [r4, #377]	@ tmp283, <variable>.ImageDnr.chroma_format_idc
	strb	r5, [r4, #372]	@ tmp239, <variable>.ImageDnr.pic_structure
	str	r3, [r4, #388]	@ tmp280, <variable>.ImageDnr.QP_Y
	str	r3, [r4, #396]	@ tmp280, <variable>.ImageDnr.QP_V
.L674:
	sub	sp, fp, #40
	ldmfd	sp, {r4, r5, r6, r7, r8, r9, sl, fp, sp, pc}
.L675:
	movw	r0, #21340	@ tmp151,
	movw	r2, #21344	@ tmp152,
	ldr	r3, [r6, r0]	@ sar_width, <variable>.MP4Syntax.syn_vol.par_width
	ldr	r2, [r6, r2]	@ D.40560, <variable>.MP4Syntax.syn_vol.par_height
	cmp	r3, #0	@ sar_width,
	cmpne	r2, #0	@, D.40560,
	beq	.L666	@,
	movw	r7, #21392	@ tmp160,
	ldr	r1, [r6, r7]	@ <variable>.MP4Syntax.syn_vol.video_object_layer_height, <variable>.MP4Syntax.syn_vol.video_object_layer_height
	mul	r1, r1, r2	@ D.40569, <variable>.MP4Syntax.syn_vol.video_object_layer_height, D.40560
	cmp	r1, #0	@ D.40569,
	beq	.L666	@,
	movw	r0, #21388	@ tmp163,
	mov	r7, r3, asl #10	@ tmp162, sar_width,
	ldr	lr, [r6, r0]	@ <variable>.MP4Syntax.syn_vol.video_object_layer_width, <variable>.MP4Syntax.syn_vol.video_object_layer_width
	mul	r0, lr, r7	@, <variable>.MP4Syntax.syn_vol.video_object_layer_width, tmp162
	bl	__aeabi_uidiv	@
	sub	r2, r0, #1360	@ iftmp.559, true_dar,
	sub	r1, r0, #1808	@ iftmp.560, true_dar,
	sub	ip, r2, #5	@ iftmp.559, iftmp.559,
	sub	r3, r1, #12	@ iftmp.560, iftmp.560,
	cmp	ip, #0	@ iftmp.559,
	rsblt	ip, r0, #1360	@ tmp170, true_dar,
	addlt	ip, ip, #5	@ iftmp.559, tmp170,
	cmp	r3, #0	@ iftmp.560,
	rsblt	r3, r0, #1808	@ tmp172, true_dar,
	addlt	r3, r3, #12	@ iftmp.560, tmp172,
	cmp	ip, r3	@ iftmp.559, iftmp.560
	bge	.L670	@,
.L669:
	mov	r7, #1	@ aspect_ratio,
	b	.L671	@
.L670:
	mov	r7, #2	@ aspect_ratio,
	b	.L671	@
.L676:
	ldr	r0, [r4, #168]	@ <variable>.image_height, <variable>.image_height
	ldr	r5, [r4, #192]	@ D.40615, <variable>.image_stride
	add	lr, r0, #15	@ tmp187, <variable>.image_height,
	ldr	r3, [r4, #104]	@ <variable>.luma_phy_addr, <variable>.luma_phy_addr
	ldr	sl, [r4, #32]	@ <variable>.luma_vir_addr, <variable>.luma_vir_addr
	mov	r2, lr, lsr #4	@ tmp189, tmp187,
	mov	r1, r5, asl #4	@ tmp186, D.40615,
	add	ip, r3, r5	@ tmp194, <variable>.luma_phy_addr, D.40615
	str	r3, [r4, #120]	@ <variable>.luma_phy_addr, <variable>.luma_2d_phy_addr
	mul	r9, r2, r1	@ D.40621, tmp189, tmp186
	str	ip, [r4, #96]	@ tmp194, <variable>.btm_luma_phy_addr
	str	sl, [r4, #48]	@ <variable>.luma_vir_addr, <variable>.luma_2d_vir_addr
	str	r3, [r4, #88]	@ <variable>.luma_phy_addr, <variable>.top_luma_phy_addr
	add	lr, r9, r3	@ tmp191, D.40621, <variable>.luma_phy_addr
	add	r8, sl, r9	@ tmp193, <variable>.luma_vir_addr, D.40621
	add	r0, lr, r5	@ tmp195, tmp191, D.40615
	str	r8, [r4, #36]	@ tmp193, <variable>.chrom_vir_addr
	str	r0, [r4, #100]	@ tmp195, <variable>.btm_chrom_phy_addr
	mov	r0, lr	@, tmp191
	str	lr, [r4, #108]	@ tmp191, <variable>.chrom_phy_addr
	str	lr, [r4, #92]	@ tmp191, <variable>.top_chrom_phy_addr
	bl	MEM_Phy2Vir	@
	ldr	r2, [r4, #92]	@ <variable>.top_chrom_phy_addr, <variable>.top_chrom_phy_addr
	str	r2, [r4, #124]	@ <variable>.top_chrom_phy_addr, <variable>.chrom_2d_phy_addr
	str	r0, [r4, #52]	@, <variable>.chrom_2d_vir_addr
	b	.L673	@
	.fnend
	.size	Mp4_RecordFrameAtr, .-Mp4_RecordFrameAtr
	.align	2
	.global	Mp4_Frame_Atr
	.type	Mp4_Frame_Atr, %function
Mp4_Frame_Atr:
	.fnstart
.LFB1552:
	@ args = 0, pretend = 0, frame = 0
	@ frame_needed = 1, uses_anonymous_args = 0
	.movsp ip
	mov	ip, sp	@,
	stmfd	sp!, {r4, r5, r6, r7, r8, sl, fp, ip, lr, pc}	@,
	.pad #4
	.save {r4, r5, r6, r7, r8, sl, fp, ip, lr}
	.setfp fp, ip, #-4
	sub	fp, ip, #4	@,,
	push	{lr}
	bl	__gnu_mcount_nc
	mov	r4, r0	@ pCtx, pCtx
	movw	r0, #21912	@ tmp141,
	ldrb	r3, [r4, r0]	@ zero_extendqisi2	@ D.40682, <variable>.MP4Syntax.syn_vop.vop_coding_type
	cmp	r3, #4	@ D.40682,
	strb	r3, [r4, #2]	@ D.40682, <variable>.CurCodingType
	beq	.L684	@,
.L678:
	movw	lr, #22960	@ tmp158,
	mov	r1, #1	@,
	ldr	r0, [r4, lr]	@, <variable>.ChanID
	bl	FSP_NewLogicFs	@
	movw	ip, #56800	@ tmp160,
	cmp	r0, #0	@ D.40689,
	str	r0, [r4, ip]	@ D.40689, <variable>.CurFsID
	blt	.L679	@,
	movw	r3, #22964	@ tmp161,
	ldr	r1, [r4, r3]	@ <variable>.FspPartitionOK, <variable>.FspPartitionOK
	cmp	r1, #0	@ <variable>.FspPartitionOK,
	beq	.L679	@,
	mov	r1, r0	@, D.40689
	mov	r0, r4	@, pCtx
	bl	Mp4_RecordFrameAtr	@
	mov	r3, #0	@ tmp207,
	movw	r1, #22544	@ tmp206,
	mov	r0, r3	@ D.40707, tmp207
	str	r3, [r4, r1]	@ tmp207, <variable>.ErrorLevel
	ldmfd	sp, {r4, r5, r6, r7, r8, sl, fp, sp, pc}	@
.L684:
	movw	r2, #22960	@ tmp143,
	movw	lr, #:lower16:g_VfmwChanStat	@ tmp144,
	ldr	r0, [r4, r2]	@ D.40686, <variable>.ChanID
	movt	lr, #:upper16:g_VfmwChanStat	@ tmp144,
	mov	r3, #300	@ tmp147,
	mla	ip, r3, r0, lr	@ tmp148, tmp147, D.40686, tmp144
	ldr	r1, [ip, #12]	@ <variable>.u32SkipFind, <variable>.u32SkipFind
	add	r2, r1, #1	@ tmp157, <variable>.u32SkipFind,
	str	r2, [ip, #12]	@ tmp157, <variable>.u32SkipFind
	b	.L678	@
.L679:
	mov	r0, #0	@,
	movw	r1, #:lower16:.LC45	@,
	movw	r5, #22960	@ tmp164,
	movt	r1, #:upper16:.LC45	@,
	movw	r8, #56792	@ tmp166,
	bl	dprint_vfmw	@
	ldr	r0, [r4, r5]	@, <variable>.ChanID
	ldr	r1, [r4, r8]	@, <variable>.BwdFsID
	bl	FSP_GetFsImagePtr	@
	subs	r6, r0, #0	@ pImg,
	beq	.L681	@,
	ldr	r0, [r4, r5]	@, <variable>.ChanID
	mov	r7, #0	@ tmp180,
	ldr	r1, [r6, #212]	@, <variable>.p_usrdat
	movw	sl, #56784	@ tmp190,
	bl	FreeUsdByDec	@
	ldr	r0, [r4, r5]	@, <variable>.ChanID
	ldr	r1, [r6, #216]	@, <variable>.p_usrdat
	bl	FreeUsdByDec	@
	ldr	r0, [r4, r5]	@, <variable>.ChanID
	ldr	r1, [r6, #220]	@, <variable>.p_usrdat
	bl	FreeUsdByDec	@
	ldr	r0, [r4, r5]	@, <variable>.ChanID
	ldr	r1, [r6, #224]	@, <variable>.p_usrdat
	bl	FreeUsdByDec	@
	str	r7, [r6, #224]	@ tmp180, <variable>.p_usrdat
	str	r7, [r6, #212]	@ tmp180, <variable>.p_usrdat
	mov	r2, #1	@,
	str	r7, [r6, #216]	@ tmp180, <variable>.p_usrdat
	str	r7, [r6, #220]	@ tmp180, <variable>.p_usrdat
	ldr	r0, [r4, r5]	@, <variable>.ChanID
	ldr	r1, [r4, r8]	@, <variable>.BwdFsID
	bl	FSP_ClearLogicFs	@
	ldr	r0, [r4, r5]	@, <variable>.ChanID
	ldr	r1, [r4, sl]	@, <variable>.FwdFsID
	mov	r2, #1	@,
	bl	FSP_ClearLogicFs	@
	str	r7, [r4, r8]	@ tmp180, <variable>.BwdFsID
	str	r7, [r4, sl]	@ tmp180, <variable>.FwdFsID
	ldr	r0, [r4, r5]	@, <variable>.ChanID
	bl	FSP_GetNullLogicFs	@
	str	r0, [r4, sl]	@ D.40705, <variable>.FwdFsID
	str	r0, [r4, r8]	@ D.40705, <variable>.BwdFsID
.L681:
	add	r0, r4, #22528	@, pCtx,
	movw	lr, #22960	@ tmp202,
	movw	ip, #22968	@ tmp200,
	add	r1, r0, #80	@,,
	mov	r2, #0	@ tmp201,
	ldr	r0, [r4, lr]	@, <variable>.ChanID
	str	r2, [r4, ip]	@ tmp201, <variable>.RefNum
	bl	FSP_ClearNotInVoQueue	@
	mvn	r0, #0	@ D.40707,
	ldmfd	sp, {r4, r5, r6, r7, r8, sl, fp, sp, pc}	@
	.fnend
	.size	Mp4_Frame_Atr, .-Mp4_Frame_Atr
	.align	2
	.global	Frame_Init
	.type	Frame_Init, %function
Frame_Init:
	.fnstart
.LFB1546:
	@ args = 0, pretend = 0, frame = 40
	@ frame_needed = 1, uses_anonymous_args = 0
	.movsp ip
	mov	ip, sp	@,
	stmfd	sp!, {r4, r5, r6, r7, r8, r9, sl, fp, ip, lr, pc}	@,
	.pad #4
	.save {r4, r5, r6, r7, r8, r9, sl, fp, ip, lr}
	.setfp fp, ip, #-4
	sub	fp, ip, #4	@,,
	.pad #68
	sub	sp, sp, #68	@,,
	push	{lr}
	bl	__gnu_mcount_nc
	movw	r3, #22060	@ tmp164,
	ldr	r5, [r0, r3]	@ D.40382, <variable>.pstExtraData
	mov	r4, r0	@ pCtx, pCtx
	mov	r3, r2	@ PicHeight, PicHeight
	ldr	r0, [r5, #788]	@ <variable>.stChanOption.s32ReRangeEn, <variable>.stChanOption.s32ReRangeEn
	cmp	r0, #0	@ <variable>.stChanOption.s32ReRangeEn,
	bne	.L686	@,
	ldr	r2, [r5, #32]	@ <variable>.eCapLevel, <variable>.eCapLevel
	cmp	r2, #25	@ <variable>.eCapLevel,
	beq	.L715	@,
.L687:
	mov	r7, r1	@ PicWidth.2441, PicWidth
	mov	r6, r3	@ PicHeight.2440, PicHeight
	mov	r9, #2	@ PmvNum,
	mov	r8, #5	@ DispFsNum,
	mov	sl, #3	@ DecFsNum,
.L695:
	ldr	r3, [r5, #864]	@ <variable>.stChanOption.u32DynamicFrameStoreAllocEn, <variable>.stChanOption.u32DynamicFrameStoreAllocEn
	cmp	r3, #1	@ <variable>.stChanOption.u32DynamicFrameStoreAllocEn,
	beq	.L702	@,
	movw	r2, #:lower16:g_vdm_hal_fun_ptr	@ tmp175,
	movt	r2, #:upper16:g_vdm_hal_fun_ptr	@ tmp175,
	ldr	ip, [r2, #48]	@ D.40418, g_vdm_hal_fun_ptr.pfun_VDMHAL_ArrangeMem
	cmp	ip, #0	@ D.40418,
	beq	.L703	@,
	movw	r0, #22960	@ tmp181,
	ldr	r1, [r5, #28]	@ <variable>.s32SyntaxMemSize, <variable>.s32SyntaxMemSize
	ldr	lr, [r4, r0]	@ <variable>.ChanID, <variable>.ChanID
	mov	r2, #40	@ tmp179,
	ldr	r0, [r5, #24]	@ <variable>.s32SyntaxMemAddr, <variable>.s32SyntaxMemAddr
	mov	r3, r6	@, PicHeight.2440
	mov	r5, #2	@ tmp178,
	str	r2, [sp, #4]	@ tmp179,
	str	r5, [sp, #0]	@ tmp178,
	mov	r2, r7	@, PicWidth.2441
	mov	r5, #0	@ tmp180,
	str	lr, [sp, #12]	@ <variable>.ChanID,
	str	r5, [sp, #8]	@ tmp180,
	movw	r5, #:lower16:.LANCHOR2	@ tmp183,
	movt	r5, #:upper16:.LANCHOR2	@ tmp183,
	str	r5, [sp, #16]	@ tmp183,
	blx	ip	@ D.40418
	cmp	r0, #0	@,
	bne	.L703	@,
	ldr	r2, [r5, #936]	@ D.40429, MemArrange.ValidPMVNum
	cmp	r2, #1	@ D.40429,
	ldrle	r3, [r5, #548]	@ prephitmp.2449, MemArrange.ValidFrameNum
	ble	.L706	@,
	ldr	r3, [r5, #548]	@ prephitmp.2449, MemArrange.ValidFrameNum
	cmp	r3, #2	@ prephitmp.2449,
	ble	.L706	@,
	ldr	ip, [r5, #8]	@ MemArrange.FrameAddr, MemArrange.FrameAddr
	movw	r3, #22080	@ tmp189,
	str	ip, [r4, r3]	@ MemArrange.FrameAddr, <variable>.VdmMemAllot.frame_phy_addr
	ldr	r0, [r5, #8]	@, MemArrange.FrameAddr
	bl	MEM_Phy2Vir	@
	movw	r1, #22068	@ tmp194,
	str	r0, [r4, r1]	@, <variable>.VdmMemAllot.frame_vir_addr
.L702:
	sub	r5, fp, #84	@ tmp229,,
	mov	r1, #36	@,
	mov	r0, r5	@, tmp229
	bl	__memzero	@
	movw	r3, #22060	@ tmp197,
	ldr	ip, [r4, r3]	@ <variable>.pstExtraData, <variable>.pstExtraData
	mov	r0, #0	@ tmp200,
	ldr	r2, [ip, #20]	@ <variable>.s32DnrDispOutEnable, <variable>.s32DnrDispOutEnable
	strb	r0, [fp, #-82]	@ tmp200, FspInstCfg.s32RprEnable
	str	r7, [fp, #-56]	@ PicWidth.2441, FspInstCfg.s32DispFsWidth
	strb	r2, [fp, #-84]	@ <variable>.s32DnrDispOutEnable, FspInstCfg.s32DispLoopEnable
	movw	r2, #22060	@ tmp208,
	str	r6, [fp, #-52]	@ PicHeight.2440, FspInstCfg.s32DispFsHeight
	str	r7, [fp, #-72]	@ PicWidth.2441, FspInstCfg.s32DecFsWidth
	str	r6, [fp, #-68]	@ PicHeight.2440, FspInstCfg.s32DecFsHeight
	ldr	r1, [ip, #32]	@ <variable>.eCapLevel, <variable>.eCapLevel
	cmp	r1, #24	@ <variable>.eCapLevel,
	mov	r1, r5	@, tmp229
	uxtbne	r0, sl	@ iftmp.554, DecFsNum
	strb	r0, [fp, #-79]	@ iftmp.554, FspInstCfg.s32ExpectedDecFsNum
	ldr	r6, [r4, r2]	@ <variable>.pstExtraData, <variable>.pstExtraData
	strb	r8, [fp, #-77]	@ DispFsNum, FspInstCfg.s32ExpectedDispFsNum
	ldr	r7, [r6, #32]	@ <variable>.eCapLevel, <variable>.eCapLevel
	movw	r6, #22960	@ tmp213,
	ldr	r0, [r4, r6]	@, <variable>.ChanID
	cmp	r7, #24	@ <variable>.eCapLevel,
	mov	r7, #0	@ tmp211,
	uxtbne	r9, r9	@ iftmp.555, PmvNum
	strb	r7, [fp, #-80]	@ tmp211, FspInstCfg.s32UserDec
	moveq	r9, #1	@ iftmp.555,
	strb	r9, [fp, #-76]	@ iftmp.555, FspInstCfg.s32ExpectedPmvNum
	bl	FSP_ConfigInstance	@
	subs	r5, r0, #0	@ D.40453,
	bne	.L712	@,
	movw	r1, #22060	@ tmp216,
	sub	r3, fp, #48	@,,
	ldr	lr, [r4, r1]	@ temp.2461, <variable>.pstExtraData
	ldr	r0, [r4, r6]	@, <variable>.ChanID
	ldr	r2, [lr, #28]	@, <variable>.s32SyntaxMemSize
	ldr	r1, [lr, #24]	@, <variable>.s32SyntaxMemAddr
	bl	FSP_PartitionFsMemory	@
	cmp	r0, #0	@ Ret
	movweq	r3, #22964	@ tmp226,
	moveq	r2, #1	@ tmp227,
	streq	r2, [r4, r3]	@ tmp227, <variable>.FspPartitionOK
	bne	.L716	@,
.L691:
	sub	sp, fp, #40
	ldmfd	sp, {r4, r5, r6, r7, r8, r9, sl, fp, sp, pc}
.L686:
	ldr	lr, [r5, #32]	@ <variable>.eCapLevel, <variable>.eCapLevel
	cmp	lr, #25	@ <variable>.eCapLevel,
	bne	.L687	@,
	ldr	lr, [r5, #744]	@ temp.2444, <variable>.stChanOption.s32MaxWidth
	cmp	r1, lr	@ PicWidth, temp.2444
	ldrhi	ip, [r5, #748]	@ prephitmp.2451, <variable>.stChanOption.s32MaxHeight
	bhi	.L697	@,
	ldr	ip, [r5, #748]	@ prephitmp.2451, <variable>.stChanOption.s32MaxHeight
	cmp	r2, ip	@ PicHeight, prephitmp.2451
	bhi	.L697	@,
	ldr	r6, [r5, #776]	@ <variable>.stChanOption.s32SupportBFrame, <variable>.stChanOption.s32SupportBFrame
	ldr	sl, [r5, #768]	@ temp.2445, <variable>.stChanOption.s32MaxRefFrameNum
	cmp	r6, #0	@ <variable>.stChanOption.s32SupportBFrame,
	moveq	r9, #1	@ PmvNum,
	beq	.L700	@,
	add	r9, sl, #1	@ PmvNum.2448, temp.2445,
	cmp	r9, #17	@ PmvNum.2448,
	movge	r9, #17	@ PmvNum,
.L700:
	add	sl, sl, #2	@ DecFsNum, temp.2445,
	mov	r7, r1	@ PicWidth.2441, PicWidth
	mov	r6, r3	@ PicHeight.2440, PicHeight
	ldr	r8, [r5, #796]	@ DispFsNum, <variable>.stChanOption.s32DisplayFrameNum
	b	.L695	@
.L715:
	ldr	ip, [r5, #744]	@ D.40389, <variable>.stChanOption.s32MaxWidth
	cmp	ip, r1	@ D.40389, PicWidth
	mov	r7, ip	@ PicWidth.2441, D.40389
	ldrcc	r8, [r5, #748]	@ prephitmp.2452, <variable>.stChanOption.s32MaxHeight
	bcc	.L689	@,
	ldr	r6, [r5, #748]	@ PicHeight.2440, <variable>.stChanOption.s32MaxHeight
	cmp	r6, r3	@ PicHeight.2440, PicHeight
	mov	r8, r6	@ prephitmp.2452, PicHeight.2440
	bcc	.L689	@,
	movw	ip, #22964	@ tmp168,
	ldr	r1, [r4, ip]	@ <variable>.FspPartitionOK, <variable>.FspPartitionOK
	cmp	r1, #1	@ <variable>.FspPartitionOK,
	beq	.L691	@,
	ldr	r0, [r5, #776]	@ <variable>.stChanOption.s32SupportBFrame, <variable>.stChanOption.s32SupportBFrame
	ldr	sl, [r5, #768]	@ D.40399, <variable>.stChanOption.s32MaxRefFrameNum
	cmp	r0, #0	@ <variable>.stChanOption.s32SupportBFrame,
	moveq	r9, #1	@ PmvNum,
	beq	.L694	@,
	add	r9, sl, #1	@ PmvNum.2442, D.40399,
	cmp	r9, #17	@ PmvNum.2442,
	movge	r9, #17	@ PmvNum,
.L694:
	add	sl, sl, #2	@ DecFsNum, D.40399,
	ldr	r8, [r5, #796]	@ DispFsNum, <variable>.stChanOption.s32DisplayFrameNum
	b	.L695	@
.L706:
	mov	r0, #0	@,
	movw	r1, #:lower16:.LC48	@,
	movt	r1, #:upper16:.LC48	@,
	bl	dprint_vfmw	@
	mvn	r0, #0	@ D.40395,
	b	.L691	@
.L703:
	mov	r0, #0	@,
	movw	r1, #:lower16:.LC47	@,
	movt	r1, #:upper16:.LC47	@,
	bl	dprint_vfmw	@
	mvn	r0, #0	@ D.40395,
	b	.L691	@
.L712:
	mov	r0, r7	@, tmp211
	movw	r1, #:lower16:.LC50	@,
	movt	r1, #:upper16:.LC50	@,
	bl	dprint_vfmw	@
	mvn	r0, #0	@ D.40395,
	b	.L691	@
.L697:
	mov	r2, r1	@, PicWidth
	mov	r0, #0	@,
	movw	r1, #:lower16:.LC46	@,
	movt	r1, #:upper16:.LC46	@,
	str	lr, [sp, #0]	@ temp.2444,
	str	ip, [sp, #4]	@ prephitmp.2451,
	bl	dprint_vfmw	@
	mvn	r0, #0	@ D.40395,
	b	.L691	@
.L716:
	mov	r0, r5	@, D.40453
	movw	r1, #:lower16:.LC49	@,
	movt	r1, #:upper16:.LC49	@,
	bl	dprint_vfmw	@
	movw	r0, #22964	@ tmp223,
	str	r5, [r4, r0]	@ D.40453, <variable>.FspPartitionOK
	mvn	r0, #0	@ D.40395,
	b	.L691	@
.L689:
	mov	r2, r1	@, PicWidth
	mov	r0, #0	@,
	movw	r1, #:lower16:.LC46	@,
	movt	r1, #:upper16:.LC46	@,
	str	ip, [sp, #0]	@ D.40389,
	str	r8, [sp, #4]	@ prephitmp.2452,
	bl	dprint_vfmw	@
	mvn	r0, #0	@ D.40395,
	b	.L691	@
	.fnend
	.size	Frame_Init, .-Frame_Init
	.align	2
	.global	Mp4_GetUserDataBuf
	.type	Mp4_GetUserDataBuf, %function
Mp4_GetUserDataBuf:
	.fnstart
.LFB1531:
	@ args = 0, pretend = 0, frame = 8
	@ frame_needed = 1, uses_anonymous_args = 0
	.movsp ip
	mov	ip, sp	@,
	stmfd	sp!, {fp, ip, lr, pc}	@,
	.pad #4
	.save {fp, ip, lr}
	.setfp fp, ip, #-4
	sub	fp, ip, #4	@,,
	.pad #8
	sub	sp, sp, #8	@,,
	push	{lr}
	bl	__gnu_mcount_nc
	ldr	r3, [r1, r2, asl #2]	@ prephitmp.2478,* pUserData
	cmp	r3, #0	@ prephitmp.2478,
	beq	.L720	@,
.L718:
	mov	r0, r3	@, prephitmp.2478
	sub	sp, fp, #12
	ldmfd	sp, {fp, sp, pc}
.L720:
	str	r1, [fp, #-16]	@,
	str	r2, [fp, #-20]	@,
	bl	GetUsd	@
	ldr	r2, [fp, #-20]	@,
	ldr	r1, [fp, #-16]	@,
	cmp	r0, #0	@ prephitmp.2478,
	mov	r3, r0	@ prephitmp.2478,
	str	r0, [r1, r2, asl #2]	@ prephitmp.2478,* pUserData
	addne	r0, r2, #4	@ tmp140, UserID,
	strne	r0, [r3, #1036]	@ tmp140, <variable>.from
	ldrne	r3, [r1, r2, asl #2]	@ prephitmp.2478,* pUserData
	b	.L718	@
	.fnend
	.size	Mp4_GetUserDataBuf, .-Mp4_GetUserDataBuf
	.align	2
	.global	Mp4_Syntax_UserData
	.type	Mp4_Syntax_UserData, %function
Mp4_Syntax_UserData:
	.fnstart
.LFB1540:
	@ args = 0, pretend = 0, frame = 32
	@ frame_needed = 1, uses_anonymous_args = 0
	.movsp ip
	mov	ip, sp	@,
	stmfd	sp!, {r4, r5, r6, r7, r8, r9, sl, fp, ip, lr, pc}	@,
	.pad #4
	.save {r4, r5, r6, r7, r8, r9, sl, fp, ip, lr}
	.setfp fp, ip, #-4
	sub	fp, ip, #4	@,,
	.pad #44
	sub	sp, sp, #44	@,,
	push	{lr}
	bl	__gnu_mcount_nc
	cmp	r2, #6	@ len,
	mov	r4, #0	@ tmp163,
	mov	r5, r0	@ pCtx, pCtx
	str	r4, [fp, #-52]	@ tmp163, ver
	mvngt	r3, #255	@ monitor,
	str	r4, [fp, #-56]	@ tmp163, build
	movgt	r6, #4	@ i,
	str	r4, [fp, #-60]	@ tmp163, ver2
	movwgt	ip, #1027	@ tmp322,
	str	r4, [fp, #-64]	@ tmp163, ver3
	strb	r4, [fp, #-45]	@ tmp163, last
	bgt	.L727	@,
	b	.L769	@
.L759:
	ldrb	r0, [r1, r6]	@ zero_extendqisi2	@ D.39310,* i
	orr	r3, r3, r0	@ D.39312, monitor, D.39310
	mov	r3, r3, asl #8	@ monitor, D.39312,
	cmp	r3, #256	@ monitor,
	beq	.L760	@,
	add	r6, r6, #1	@ i, i,
	strb	r0, [r7, #3]	@ D.39310, <variable>.TmpUserData
	cmp	r2, r6	@ len, i
	add	r4, r4, #1	@ userdata_len, userdata_len,
	ble	.L725	@,
.L727:
	ldrb	r0, [r1, r6]	@ zero_extendqisi2	@ D.39310,* i
	add	r7, r5, r4	@ tmp173, pCtx, userdata_len
	orr	r3, r3, r0	@ D.39312, monitor, D.39310
	mov	r3, r3, asl #8	@ monitor, D.39312,
	cmp	r3, #256	@ monitor,
	beq	.L760	@,
	add	r4, r4, #1	@ userdata_len, userdata_len,
	strb	r0, [r7, #3]	@ D.39310, <variable>.TmpUserData
	cmp	r4, ip	@ userdata_len, tmp322
	add	r7, r5, r4	@ tmp329, pCtx, userdata_len
	beq	.L762	@,
	add	r6, r6, #1	@ i, i,
	cmp	r2, r6	@ len, i
	bgt	.L759	@,
.L725:
	cmp	r6, r2	@ i, len
	addgt	r2, r2, #1	@ tmp317, len,
	movgt	r6, r2, asl #3	@ BitUsed, tmp317,
	bgt	.L723	@,
.L764:
	cmp	r4, #2	@ userdata_len,
	movw	r2, #22042	@ tmp180,
	mov	ip, #1	@ tmp181,
	mov	r6, r6, asl #3	@ BitUsed, i,
	strb	ip, [r5, r2]	@ tmp181, <variable>.MP4SyntaxState.userdata_decode_right
	bhi	.L763	@,
.L723:
	mov	r0, r6	@, BitUsed
	sub	sp, fp, #40
	ldmfd	sp, {r4, r5, r6, r7, r8, r9, sl, fp, sp, pc}
.L769:
	add	r2, r2, #1	@ tmp172, len,
	movw	r3, #22042	@ tmp169,
	strb	r4, [r0, r3]	@ tmp163, <variable>.MP4SyntaxState.userdata_decode_right
	mov	r6, r2, asl #3	@ BitUsed, tmp172,
	b	.L723	@
.L760:
	sub	r6, r6, #2	@ i, i,
	cmp	r6, r2	@ i, len
	addgt	r2, r2, #1	@ tmp317, len,
	movgt	r6, r2, asl #3	@ BitUsed, tmp317,
	bgt	.L723	@,
	b	.L764	@
.L763:
	movw	r3, #22960	@ tmp183,
	add	lr, r5, #22528	@, pCtx,
	movw	r8, #22572	@ tmp187,
	ldr	r0, [r5, r3]	@, <variable>.ChanID
	add	r1, lr, #52	@,,
	ldr	r2, [r5, r8]	@, <variable>.UserID
	bl	Mp4_GetUserDataBuf	@
	movw	r3, #22596	@ tmp189,
	cmp	r0, #0	@ D.39326,
	str	r0, [r5, r3]	@ D.39326, <variable>.CurUsrData
	addeq	sl, r4, #-2147483646	@ prephitmp.2517, userdata_len,
	addeq	r7, r5, #3	@ buf, pCtx,
	beq	.L730	@,
	adds	sl, r4, #-2147483648	@ prephitmp.2517, userdata_len,
	sub	r8, r4, #2	@ userdata_len.2545, userdata_len,
	str	r8, [r0, #1048]	@ userdata_len.2545, <variable>.data_size
	movpl	r2, #0	@ iftmp.469,
	ldr	r0, [r5, r3]	@ D.39327, <variable>.CurUsrData
	bmi	.L765	@,
.L732:
	add	r7, r5, #3	@ buf, pCtx,
	mov	r1, r7	@, buf
	bl	memcpy	@
	movw	r0, #22060	@ tmp200,
	ldr	lr, [r5, r0]	@ <variable>.pstExtraData, <variable>.pstExtraData
	movw	r2, #22596	@ tmp197,
	ldr	ip, [r5, r2]	@ <variable>.CurUsrData, <variable>.CurUsrData
	movw	r3, #:lower16:g_event_report	@ tmp202,
	movt	r3, #:upper16:g_event_report	@ tmp202,
	ldrd	r0, [lr, #56]	@, <variable>.pstExtraData,
	mov	lr, #1056	@ tmp198,
	strd	r0, [ip, lr]	@, <variable>.CurUsrData, tmp198
	ldr	ip, [r3, #0]	@ g_event_report.470, g_event_report
	cmp	ip, #0	@ g_event_report.470,
	moveq	r4, r8	@ userdata_len, userdata_len.2545
	beq	.L730	@,
	movw	r4, #22960	@ tmp203,
	ldr	r2, [r5, r2]	@, <variable>.CurUsrData
	ldr	r0, [r5, r4]	@, <variable>.ChanID
	mov	r1, #6	@,
	mov	r3, #1072	@,
	mov	r4, r8	@ userdata_len, userdata_len.2545
	blx	ip	@ g_event_report.470
.L730:
	cmp	sl, #0	@ prephitmp.2517,
	movge	r3, #0	@ tmp,
	blt	.L766	@,
.L735:
	add	r2, r5, r3	@ tmp208, pCtx, tmp
	sub	sl, fp, #52	@ tmp321,,
	sub	r8, fp, #56	@ tmp319,,
	mov	r1, #0	@ tmp210,
	mov	r0, r7	@, buf
	strb	r1, [r2, #3]	@ tmp210, <variable>.TmpUserData
	mov	r3, r8	@, tmp319
	movw	r1, #:lower16:.LC51	@,
	mov	r2, sl	@, tmp321
	movt	r1, #:upper16:.LC51	@,
	sub	r4, fp, #45	@ last.473,,
	str	r4, [sp, #0]	@ last.473,
	bl	sscanf	@
	cmp	r0, #1	@ e,
	ble	.L767	@,
.L736:
	ldr	r2, [fp, #-56]	@ build, build
	cmp	r0, #3	@ e,
	ldr	ip, [fp, #-52]	@ ver, ver
	mov	lr, #22016	@ tmp218,
	movw	r3, #22020	@ tmp220,
	str	r2, [r5, r3]	@ build, <variable>.MP4Syntax.divx_build
	movne	r2, #0	@ prephitmp.2522,
	str	ip, [r5, lr]	@ ver, <variable>.MP4Syntax.divx_version
	beq	.L768	@,
.L739:
	movw	r1, #22024	@ tmp225,
	str	r2, [r5, r1]	@ prephitmp.2522, <variable>.MP4Syntax.divx_packed
.L737:
	mov	r0, r7	@, buf
	movw	r1, #:lower16:.LC53	@,
	mov	r2, r8	@, tmp319
	movt	r1, #:upper16:.LC53	@,
	bl	sscanf	@
	cmp	r0, #1	@,
	beq	.L740	@,
	sub	r9, fp, #60	@ tmp230,,
	mov	r0, r7	@, buf
	movw	r1, #:lower16:.LC54	@,
	mov	r2, sl	@, tmp321
	movt	r1, #:upper16:.LC54	@,
	mov	r3, r9	@, tmp230
	str	r8, [sp, #4]	@ tmp319,
	sub	r4, fp, #64	@ tmp231,,
	str	r4, [sp, #0]	@ tmp231,
	bl	sscanf	@
	cmp	r0, #4	@,
	beq	.L740	@,
	mov	r2, sl	@, tmp321
	mov	r3, r9	@, tmp230
	mov	r0, r7	@, buf
	movw	r1, #:lower16:.LC55	@,
	movt	r1, #:upper16:.LC55	@,
	str	r4, [sp, #0]	@ tmp231,
	bl	sscanf	@
	add	r0, r0, #1	@ e.2551,,
	cmp	r0, #1	@ e.2551,
	ble	.L741	@,
	cmp	r0, #4	@ e.2551,
	ldr	r0, [fp, #-60]	@ ver2, ver2
	ldr	ip, [fp, #-52]	@ ver, ver
	ldr	r3, [fp, #-64]	@ ver3, ver3
	mov	lr, r0, asl #8	@ tmp239, ver2,
	add	r2, lr, ip, asl #16	@, tmp241, tmp239, ver,
	add	r3, r2, r3	@ prephitmp.2521, tmp241, ver3
	str	r3, [fp, #-56]	@ prephitmp.2521, build
	beq	.L742	@,
.L741:
	mov	r2, #7	@,
	mov	r0, r7	@, buf
	movw	r1, #:lower16:.LC56	@,
	movt	r1, #:upper16:.LC56	@,
	bl	strncmp	@
	cmp	r0, #0	@,
	movweq	r3, #22032	@ tmp245,
	movweq	r2, #4600	@ tmp246,
	streq	r2, [r5, r3]	@ tmp246, <variable>.MP4Syntax.lavc_build
.L743:
	mov	r2, r8	@, tmp319
	mov	r0, r7	@, buf
	movw	r1, #:lower16:.LC57	@,
	movt	r1, #:upper16:.LC57	@,
	bl	sscanf	@
	movw	ip, #21279	@ tmp258,
	movw	r1, #21281	@ tmp252,
	cmp	r0, #1	@,
	movw	r0, #21282	@ tmp255,
	ldreq	r2, [fp, #-56]	@ build, build
	movweq	r3, #22028	@ tmp250,
	streq	r2, [r5, r3]	@ build, <variable>.MP4Syntax.xvid_build
	movw	r3, #22028	@ tmp267,
	ldr	r2, [r5, r3]	@ prephitmp.2559, <variable>.MP4Syntax.xvid_build
	mov	r3, #0	@ tmp253,
	strb	r3, [r5, r0]	@ tmp253, <variable>.MP4Syntax.FF_BUG_QPEL_CHROMA2
	movw	r0, #21278	@ tmp261,
	cmp	r2, #0	@ prephitmp.2559,
	strb	r3, [r5, ip]	@ tmp253, <variable>.MP4Syntax.FF_BUG_EDGE_EXTEND
	movw	ip, #21280	@ tmp264,
	strb	r3, [r5, r0]	@ tmp253, <variable>.MP4Syntax.FF_BUG_EDGE_FIND_POINT
	strb	r3, [r5, ip]	@ tmp253, <variable>.MP4Syntax.FF_BUG_DIVX500B413
	strb	r3, [r5, r1]	@ tmp253, <variable>.MP4Syntax.FF_BUG_QPEL_CHROMA
	bne	.L745	@,
	mov	lr, #22016	@ tmp268,
	ldr	r2, [r5, lr]	@ <variable>.MP4Syntax.divx_version, <variable>.MP4Syntax.divx_version
	cmp	r2, #500	@ <variable>.MP4Syntax.divx_version,
	movcs	r2, #1	@ tmp279,
	strcsb	r2, [r5, r1]	@ tmp279, <variable>.MP4Syntax.FF_BUG_QPEL_CHROMA
	bcc	.L747	@,
.L749:
	mov	lr, #22016	@ tmp285,
	movw	r1, #22028	@ tmp291,
	ldr	r2, [r5, lr]	@ <variable>.MP4Syntax.divx_version, <variable>.MP4Syntax.divx_version
	movw	r0, #502	@ tmp287,
	ldr	ip, [r5, r1]	@ <variable>.MP4Syntax.xvid_build, <variable>.MP4Syntax.xvid_build
	movw	lr, #22032	@ tmp297,
	cmp	r2, r0	@ <variable>.MP4Syntax.divx_version, tmp287
	movw	r1, #4668	@ tmp300,
	sub	r3, ip, #1	@ tmp292, <variable>.MP4Syntax.xvid_build,
	movwhi	r0, #21282	@ tmp288,
	movhi	r2, #1	@ tmp289,
	strhib	r2, [r5, r0]	@ tmp289, <variable>.MP4Syntax.FF_BUG_QPEL_CHROMA2
	cmp	r3, #11	@ tmp292,
	ldr	r0, [r5, lr]	@ <variable>.MP4Syntax.lavc_build, <variable>.MP4Syntax.lavc_build
	movwls	r3, #21279	@ tmp294,
	movls	r2, #1	@ tmp295,
	sub	ip, r0, #1	@ tmp298, <variable>.MP4Syntax.lavc_build,
	strlsb	r2, [r5, r3]	@ tmp295, <variable>.MP4Syntax.FF_BUG_EDGE_EXTEND
	mov	r3, #22016	@ tmp304,
	cmp	ip, r1	@ tmp298, tmp300
	ldr	r0, [r5, r3]	@ prephitmp.2519, <variable>.MP4Syntax.divx_version
	movw	r2, #498	@ tmp306,
	movwls	r1, #21279	@ tmp301,
	movls	ip, #1	@ tmp302,
	sub	lr, r0, #1	@ tmp305, prephitmp.2519,
	strlsb	ip, [r5, r1]	@ tmp302, <variable>.MP4Syntax.FF_BUG_EDGE_EXTEND
	cmp	lr, r2	@ tmp305, tmp306
	movwls	r2, #21279	@ tmp307,
	movls	lr, #1	@ tmp308,
	strlsb	lr, [r5, r2]	@ tmp308, <variable>.MP4Syntax.FF_BUG_EDGE_EXTEND
	cmp	r0, #500	@ prephitmp.2519,
	bne	.L723	@,
	movw	ip, #22020	@ tmp311,
	movw	r3, #413	@ tmp313,
	ldr	r2, [r5, ip]	@ <variable>.MP4Syntax.divx_build, <variable>.MP4Syntax.divx_build
	cmp	r2, r3	@ <variable>.MP4Syntax.divx_build, tmp313
	movweq	r3, #21280	@ tmp314,
	moveq	r2, #1	@ tmp315,
	streqb	r2, [r5, r3]	@ tmp315, <variable>.MP4Syntax.FF_BUG_DIVX500B413
	b	.L723	@
.L762:
	sub	r6, r6, #2	@ tmp176, i,
	movw	r1, #22042	@ tmp177,
	mov	r0, #0	@ tmp178,
	strb	r0, [r5, r1]	@ tmp178, <variable>.MP4SyntaxState.userdata_decode_right
	mov	r6, r6, asl #3	@ BitUsed, tmp176,
	b	.L723	@
.L740:
	ldr	r3, [fp, #-56]	@ prephitmp.2521, build
.L742:
	movw	r1, #22032	@ tmp247,
	str	r3, [r5, r1]	@ prephitmp.2521, <variable>.MP4Syntax.lavc_build
	b	.L743	@
.L765:
	cmp	r4, #1024	@ userdata_len,
	movlt	r2, r4	@ iftmp.469, userdata_len
	movge	r2, #1024	@ iftmp.469,
	b	.L732	@
.L768:
	ldrsb	r0, [fp, #-45]	@ last, last
	cmp	r0, #112	@ last,
	movne	r2, #0	@, prephitmp.2522
	moveq	r2, #1	@, prephitmp.2522
	b	.L739	@
.L745:
	mov	r1, #22016	@ tmp271,
	ldr	ip, [r5, r1]	@ <variable>.MP4Syntax.divx_version, <variable>.MP4Syntax.divx_version
	cmp	ip, #0	@ <variable>.MP4Syntax.divx_version,
	beq	.L748	@,
	str	r3, [r5, r1]	@ tmp253, <variable>.MP4Syntax.divx_version
	movw	r1, #22020	@ tmp275,
	str	r3, [r5, r1]	@ tmp253, <variable>.MP4Syntax.divx_build
.L747:
	movw	r3, #22028	@ tmp277,
	ldr	r2, [r5, r3]	@ prephitmp.2559, <variable>.MP4Syntax.xvid_build
.L748:
	cmp	r2, #1	@ prephitmp.2559,
	movweq	r3, #21281	@ tmp282,
	streqb	r2, [r5, r3]	@ prephitmp.2559, <variable>.MP4Syntax.FF_BUG_QPEL_CHROMA
	b	.L749	@
.L766:
	add	r3, r4, #2	@ tmp, userdata_len,
	cmp	r3, #1024	@ tmp,
	movge	r3, #1024	@ tmp,
	b	.L735	@
.L767:
	mov	r0, r7	@, buf
	movw	r1, #:lower16:.LC52	@,
	mov	r2, sl	@, tmp321
	movt	r1, #:upper16:.LC52	@,
	mov	r3, r8	@, tmp319
	str	r4, [sp, #0]	@ last.473,
	bl	sscanf	@
	cmp	r0, #1	@ e,
	ble	.L737	@,
	b	.L736	@
	.fnend
	.size	Mp4_Syntax_UserData, .-Mp4_Syntax_UserData
	.align	2
	.global	Mp4_Syntax_Parse
	.type	Mp4_Syntax_Parse, %function
Mp4_Syntax_Parse:
	.fnstart
.LFB1545:
	@ args = 0, pretend = 0, frame = 80
	@ frame_needed = 1, uses_anonymous_args = 0
	.movsp ip
	mov	ip, sp	@,
	stmfd	sp!, {r4, r5, r6, r7, r8, r9, sl, fp, ip, lr, pc}	@,
	.pad #4
	.save {r4, r5, r6, r7, r8, r9, sl, fp, ip, lr}
	.setfp fp, ip, #-4
	sub	fp, ip, #4	@,,
	.pad #84
	sub	sp, sp, #84	@,,
	push	{lr}
	bl	__gnu_mcount_nc
	sub	r8, fp, #84	@ tmp178,,
	mov	r4, r0	@ pCtx, pCtx
	mov	r7, r1	@ pCode, pCode
	mov	sl, r2	@ CodeLen, CodeLen
	mov	r0, r8	@, tmp178
	mov	r1, #32	@,
	mov	r9, #0	@ tmp182,
	bl	__memzero	@
	mov	r0, r8	@, tmp178
	mov	r1, r7	@, pCode
	mov	r2, sl	@, CodeLen
	bl	BsInit	@
	mov	r0, r8	@, tmp178
	mov	r1, #32	@,
	bl	BsShow	@
	movw	r3, #19972	@ tmp181,
	str	r9, [r4, r3]	@ tmp182, <variable>.IsWaitToDecFlag
	mov	r6, r0	@ D.40105,
	movw	r0, #510	@ tmp183,
	cmp	r6, r0	@ D.40105, tmp183
	mov	r5, r6	@ StartCode, D.40105
	beq	.L823	@,
.L771:
	movw	r3, #15864	@ tmp217,
	ldrb	r2, [r4, r3]	@ zero_extendqisi2	@ tmp219,
	tst	r2, #1	@ tmp219,
	beq	.L824	@,
	movw	r3, #21277	@ tmp233,
	movw	r0, #15864	@ tmp236,
	mov	r2, #1	@ tmp234,
	strb	r2, [r4, r3]	@ tmp234,
	ldrb	r8, [r4, r0]	@ zero_extendqisi2	@ tmp238,
	mov	r5, #196	@ StartCode,
	and	r6, r8, #2	@ tmp240, tmp238,
	uxtb	r6, r6	@ tmp241, tmp240
	cmp	r6, #0	@ tmp241,
	bne	.L777	@,
.L834:
	mov	r8, #19968	@ tmp242,
	ldr	r3, [r4, r8]	@ tmp244,
	ands	r9, r3, #130	@ tmp243, tmp244,
	bne	.L825	@,
	cmp	r5, #197	@ StartCode,
	beq	.L826	@,
	cmp	r5, #432	@ StartCode,
	beq	.L827	@,
	movw	lr, #437	@ tmp259,
	cmp	r5, lr	@ StartCode, tmp259
	beq	.L828	@,
	bic	ip, r5, #15	@ tmp263, StartCode,
	cmp	ip, #288	@ tmp263,
	beq	.L829	@,
	movw	r6, #435	@ tmp285,
	cmp	r5, r6	@ StartCode, tmp285
	beq	.L830	@,
	movw	r2, #438	@ tmp289,
	cmp	r5, r2	@ StartCode, tmp289
	beq	.L831	@,
	cmp	r5, #196	@ StartCode,
	beq	.L832	@,
	movw	r6, #434	@ tmp307,
	cmp	r5, r6	@ StartCode, tmp307
	beq	.L833	@,
	movw	r0, #286	@ tmp313,
	cmp	r5, r0	@ StartCode, tmp313
	bne	.L793	@,
	movw	r8, #:lower16:g_event_report	@ tmp314,
	movt	r8, #:upper16:g_event_report	@ tmp314,
	ldr	ip, [r8, #0]	@ g_event_report.2621, g_event_report
	cmp	ip, #0	@ g_event_report.2621,
	beq	.L794	@,
	mov	r2, #0	@,
	movw	lr, #22960	@ tmp315,
	ldr	r0, [r4, lr]	@, <variable>.ChanID
	mov	r1, #112	@,
	mov	r3, r2	@,
	blx	ip	@ g_event_report.2621
.L794:
	add	r6, r4, #15680	@, pCtx,
	movw	r3, #22960	@ tmp317,
	add	r1, r6, #24	@,,
	ldr	r0, [r4, r3]	@, <variable>.ChanID
	bl	MP4_ClearCurPacket	@
	mov	ip, #19968	@ tmp321,
	ldr	r2, [r4, ip]	@ temp.2625, <variable>.PicIntegrality
	sub	r8, sl, #4	@ len, CodeLen,
	add	sl, r7, #4	@ ptr, pCode,
	ands	r6, r2, #2	@ tmp322, temp.2625,
	orrne	r2, r2, #256	@ tmp324, temp.2625,
	strne	r2, [r4, ip]	@ tmp324, <variable>.PicIntegrality
	movne	r6, #0	@ BitUsed,
	b	.L781	@
.L824:
	mov	ip, r6, lsr #8	@ tmp226, D.40105,
	movw	r0, #21277	@ tmp223,
	sub	r1, ip, #128	@ tmp227, tmp226,
	mov	r8, #2	@ tmp224,
	cmp	r1, #3	@ tmp227,
	strb	r8, [r4, r0]	@ tmp224, <variable>.MP4Syntax.is_short_header
	movw	r0, #15864	@ tmp236,
	orrls	r2, r2, r8	@ tmp231, tmp219,
	strlsb	r2, [r4, r3]	@ tmp231,
	ldrb	r8, [r4, r0]	@ zero_extendqisi2	@ tmp238,
	and	r6, r8, #2	@ tmp240, tmp238,
	uxtb	r6, r6	@ tmp241, tmp240
	cmp	r6, #0	@ tmp241,
	beq	.L834	@,
.L777:
	mov	r2, sl	@, CodeLen
	mov	r0, r4	@, pCtx
	mov	r1, r7	@, pCode
	mov	r8, sl	@ len, CodeLen
	bl	MP4_Dec_Slice	@
	mov	sl, r7	@ ptr, pCode
	mov	r6, r0	@ BitUsed,
.L781:
	movw	lr, #56809	@ tmp329,
	ldrb	r0, [r4, lr]	@ zero_extendqisi2	@ <variable>.SeekReset, <variable>.SeekReset
	cmp	r0, #1	@ <variable>.SeekReset,
	beq	.L835	@,
.L796:
	cmp	r6, r8, asl #3	@ BitUsed, len,
	bhi	.L798	@,
	movw	r0, #438	@ tmp341,
	cmp	r5, r0	@ StartCode, tmp341
	cmpne	r5, #196	@, StartCode,
	bne	.L799	@,
	mov	ip, #19968	@ tmp346,
	ldr	lr, [r4, ip]	@ tmp348,
	tst	lr, #130	@ tmp348,
	beq	.L799	@,
	movw	r2, #21277	@ tmp349,
	ldrb	r3, [r4, r2]	@ zero_extendqisi2	@ <variable>.MP4Syntax.is_short_header, <variable>.MP4Syntax.is_short_header
	cmp	r3, #2	@ <variable>.MP4Syntax.is_short_header,
	beq	.L836	@,
	movw	r3, #21976	@ tmp390,
	movw	r2, #21972	@ tmp392,
	ldr	r3, [r4, r3]	@ D.40255, <variable>.MP4Syntax.image_width
	movw	r1, #22564	@ tmp391,
	ldr	r2, [r4, r2]	@ D.40256, <variable>.MP4Syntax.image_height
	movw	r0, #22568	@ tmp393,
	cmp	r3, #0	@ D.40255,
	str	r3, [r4, r1]	@ D.40255, <variable>.NewPicWidth
	str	r2, [r4, r0]	@ D.40256, <variable>.NewPicHeight
	beq	.L803	@,
	movw	lr, #22556	@ tmp394,
	ldr	ip, [r4, lr]	@ <variable>.OldPicWidth, <variable>.OldPicWidth
	cmp	r3, ip	@ D.40255, <variable>.OldPicWidth
	movne	r5, #1	@ bNeedPartition,
	beq	.L803	@,
.L804:
	movw	r2, #:lower16:g_event_report	@ tmp405,
	movt	r2, #:upper16:g_event_report	@ tmp405,
	ldr	ip, [r2, #0]	@ g_event_report.2639, g_event_report
	cmp	ip, #0	@ g_event_report.2639,
	beq	.L808	@,
	movw	r1, #22556	@ tmp406,
	movw	r0, #22560	@ tmp408,
	ldrh	r3, [r4, r1]	@, <variable>.OldPicWidth
	movw	r2, #22564	@ tmp410,
	strh	r3, [fp, #-52]	@ movhi	@, para
	movw	r3, #22568	@ tmp412,
	ldrh	lr, [r4, r0]	@, <variable>.OldPicHeight
	strh	lr, [fp, #-50]	@ movhi	@, para
	movw	lr, #22960	@ tmp414,
	ldrh	r1, [r4, r2]	@, <variable>.NewPicWidth
	sub	r2, fp, #52	@,,
	strh	r1, [fp, #-48]	@ movhi	@, para
	mov	r1, #2	@,
	ldrh	r0, [r4, r3]	@, <variable>.NewPicHeight
	mov	r3, #8	@,
	strh	r0, [fp, #-46]	@ movhi	@, para
	ldr	r0, [r4, lr]	@, <variable>.ChanID
	blx	ip	@ g_event_report.2639
.L808:
	sxtb	r5, r5	@ bNeedPartition, bNeedPartition
	cmp	r5, #1	@ bNeedPartition,
	beq	.L837	@,
.L809:
	movw	r3, #22564	@ tmp472,
	movw	r2, #22568	@ tmp475,
	ldr	r1, [r4, r3]	@ <variable>.NewPicWidth, <variable>.NewPicWidth
	movw	r0, #22556	@ tmp471,
	ldr	r5, [r4, r2]	@ <variable>.NewPicHeight, <variable>.NewPicHeight
	movw	lr, #22560	@ tmp474,
	str	r1, [r4, r0]	@ <variable>.NewPicWidth, <variable>.OldPicWidth
	str	r5, [r4, lr]	@ <variable>.NewPicHeight, <variable>.OldPicHeight
.L802:
	add	r2, r4, #20992	@ tmp479, pCtx,
	add	r5, r4, #21760	@ tmp477, pCtx,
	add	lr, r2, #216	@ tmp479, tmp479,
	add	ip, r5, #152	@ tmp477, tmp477,
	rsb	r7, r7, sl	@ tmp488, pCode, ptr
	ldmia	lr!, {r0, r1, r2, r3}	@ tmp482,,,,
	mov	r5, ip	@ tmp481, tmp477
	add	r6, r6, r7, asl #3	@, BitUsed, BitUsed, tmp488,
	stmia	r5!, {r0, r1, r2, r3}	@ tmp481,,,,
	mov	ip, r5	@ tmp613, tmp481
	ldmia	lr!, {r0, r1, r2, r3}	@ tmp612,,,,
	stmia	ip!, {r0, r1, r2, r3}	@ tmp613,,,,
	ldmia	lr!, {r0, r1, r2, r3}	@ tmp614,,,,
	stmia	ip!, {r0, r1, r2, r3}	@ tmp613,,,,
	ldmia	lr, {r0, r1, r2}	@ tmp614,,,
	stmia	ip, {r0, r1, r2}	@ tmp615,,,
	mov	r0, #2	@,
	movw	r1, #:lower16:.LC69	@,
	movt	r1, #:upper16:.LC69	@,
	bl	dprint_vfmw	@
	movw	r1, #22540	@ tmp484,
	ldr	r0, [r4, r1]	@ <variable>.ImgCntOfSeq, <variable>.ImgCntOfSeq
	add	ip, r0, #1	@ tmp487, <variable>.ImgCntOfSeq,
	str	ip, [r4, r1]	@ tmp487,
	b	.L774	@
.L799:
	movw	r0, #22039	@ tmp490,
	ldrb	r1, [r4, r0]	@ zero_extendqisi2	@ <variable>.MP4SyntaxState.vol_decode_right, <variable>.MP4SyntaxState.vol_decode_right
	cmp	r1, #1	@ <variable>.MP4SyntaxState.vol_decode_right,
	beq	.L838	@,
.L774:
	mov	r0, r6	@, BitUsed
	sub	sp, fp, #40
	ldmfd	sp, {r4, r5, r6, r7, r8, r9, sl, fp, sp, pc}
.L825:
	movw	ip, #19972	@ tmp249,
	orr	r2, r3, #32	@ tmp248, tmp244,
	mov	r1, #1	@ tmp250,
	str	r2, [r4, r8]	@ tmp248, <variable>.PicIntegrality
	str	r1, [r4, ip]	@ tmp250,
	b	.L774	@
.L803:
	cmp	r2, #0	@ D.40256,
	bne	.L839	@,
.L805:
	movw	ip, #22964	@ tmp398,
	ldr	r5, [r4, ip]	@ <variable>.FspPartitionOK, <variable>.FspPartitionOK
	subs	r5, r5, #1	@ bNeedPartition, <variable>.FspPartitionOK,
	movne	r5, #1	@ bNeedPartition
.L806:
	cmp	r3, #0	@ D.40255,
	bne	.L840	@,
.L807:
	cmp	r2, #0	@ D.40256,
	beq	.L808	@,
	movw	r1, #22560	@ tmp403,
	ldr	r3, [r4, r1]	@ <variable>.OldPicHeight, <variable>.OldPicHeight
	cmp	r2, r3	@ D.40256, <variable>.OldPicHeight
	bne	.L804	@,
	b	.L808	@
.L798:
	mov	r0, #2	@,
	movw	r1, #:lower16:.LC71	@,
	movt	r1, #:upper16:.LC71	@,
	rsb	r7, r7, sl	@ tmp609, pCode, ptr
	bl	dprint_vfmw	@
	mov	r1, #19968	@ tmp604,
	ldr	r2, [r4, r1]	@ <variable>.PicIntegrality, <variable>.PicIntegrality
	mov	r6, r7, asl #3	@ BitUsed, tmp609,
	bic	r0, r2, #432	@ tmp608, <variable>.PicIntegrality,
	bic	r3, r0, #2	@ tmp608, tmp608,
	str	r3, [r4, r1]	@ tmp608, <variable>.PicIntegrality
	b	.L774	@
.L835:
	movw	ip, #20080	@ tmp331,
	ldr	r1, [r4, ip]	@ D.40210, <variable>.MP4Vol.video_object_layer_width
	cmp	r1, #0	@ D.40210,
	beq	.L797	@,
	movw	r3, #20084	@ tmp332,
	ldr	r2, [r4, r3]	@ D.40213, <variable>.MP4Vol.video_object_layer_height
	cmp	r2, #0	@ D.40213,
	bne	.L841	@,
.L797:
	movw	r1, #56809	@ tmp334,
	mov	r2, #0	@ tmp335,
	strb	r2, [r4, r1]	@ tmp335, <variable>.SeekReset
	b	.L796	@
.L823:
	mov	lr, r8	@ tmp185, tmp178
	sub	r8, fp, #116	@ tmp184,,
	ldmia	lr!, {r0, r1, r2, r3}	@ tmp185,,,,
	mov	ip, r8	@ tmp611, tmp184
	stmia	ip!, {r0, r1, r2, r3}	@ tmp611,,,,
	ldmia	lr, {r0, r1, r2, r3}	@ tmp185,,,,
	stmia	ip, {r0, r1, r2, r3}	@ tmp611,,,,
	mov	r1, #32	@,
	mov	r0, r8	@, tmp184
	bl	BsSkip	@
	mov	r1, #32	@,
	mov	r0, r8	@, tmp184
	bl	BsGet	@
	mov	r1, #32	@,
	mov	r3, r0	@ D.40110,
	mov	r0, r8	@, tmp184
	str	r3, [fp, #-120]	@,
	bl	BsGet	@
	ldr	ip, [fp, #-120]	@,
	movw	r1, #:lower16:1128615492	@ tmp190,
	movw	r2, #:lower16:1213419593	@ tmp193,
	movt	r1, #:upper16:1128615492	@ tmp190,
	movt	r2, #:upper16:1213419593	@ tmp193,
	cmp	r0, r1	@, tmp190
	cmpeq	ip, r2	@, D.40110, tmp193
	bne	.L771	@,
	movw	r6, #:lower16:g_event_report	@ tmp201,
	movt	r6, #:upper16:g_event_report	@ tmp201,
	movw	r1, #56808	@ tmp198,
	mov	r0, #1	@ tmp199,
	strb	r0, [r4, r1]	@ tmp199, <variable>.IsStreamEndFlag
	ldr	ip, [r6, #0]	@ g_event_report.545, g_event_report
	cmp	ip, r9	@ g_event_report.545,
	beq	.L772	@,
	movw	r3, #22960	@ tmp202,
	mov	r2, r9	@, tmp182
	ldr	r0, [r4, r3]	@, <variable>.ChanID
	mov	r1, #117	@,
	mov	r3, r9	@, tmp2
	blx	ip	@ g_event_report.545
.L772:
	mov	r6, #19968	@ tmp204,
	add	r2, r4, #15680	@, pCtx,
	ldr	lr, [r4, r6]	@ tmp206,
	movw	ip, #22960	@ tmp213,
	ldr	r0, [r4, ip]	@, <variable>.ChanID
	add	r1, r2, #24	@,,
	tst	lr, #130	@ tmp206,
	orrne	lr, lr, #32	@ tmp210, tmp206,
	strne	lr, [r4, r6]	@ tmp210, <variable>.PicIntegrality
	movwne	r6, #19972	@ tmp211,
	movne	lr, #1	@ tmp212,
	strne	lr, [r4, r6]	@ tmp212, <variable>.IsWaitToDecFlag
	mov	r6, #0	@ BitUsed,
	bl	MP4_ClearCurPacket	@
	b	.L774	@
.L838:
	movw	r1, #22536	@ tmp492,
	movw	ip, #22540	@ tmp496,
	ldr	r7, [r4, r1]	@ <variable>.SeqCnt, <variable>.SeqCnt
	add	r0, r4, #21248	@, pCtx,
	add	r5, r4, #19968	@, pCtx,
	mov	lr, #0	@ tmp497,
	add	r2, r7, #1	@ tmp495, <variable>.SeqCnt,
	add	r0, r0, #60	@,,
	str	r2, [r4, r1]	@ tmp495, <variable>.SeqCnt
	add	r1, r5, #32	@,,
	str	lr, [r4, ip]	@ tmp497, <variable>.ImgCntOfSeq
	mov	r2, #604	@,
	bl	memcpy	@
	movw	r8, #21972	@ tmp507,
	movw	r3, #20084	@ tmp506,
	ldr	r7, [r4, r8]	@ <variable>.MP4Syntax.image_height, <variable>.MP4Syntax.image_height
	ldr	r3, [r4, r3]	@ prephitmp.2586, <variable>.MP4Vol.video_object_layer_height
	cmp	r7, r3	@ <variable>.MP4Syntax.image_height, prephitmp.2586
	beq	.L842	@,
.L813:
	movw	sl, #:lower16:g_event_report	@ tmp515,
	movt	sl, #:upper16:g_event_report	@ tmp515,
	ldr	ip, [sl, #0]	@ g_event_report, g_event_report
	cmp	ip, #0	@ g_event_report,
	beq	.L816	@,
	movw	sl, #21976	@ tmp517,
	movw	r3, #21972	@ tmp519,
	ldrh	r2, [r4, sl]	@, <variable>.MP4Syntax.image_width
	movw	lr, #20080	@ tmp521,
	movw	r7, #20084	@ tmp523,
	movw	r1, #22960	@ tmp526,
	strh	r2, [fp, #-52]	@ movhi	@, para
	sub	r2, fp, #52	@,,
	ldrh	r5, [r4, r3]	@, <variable>.MP4Syntax.image_height
	mov	r3, #8	@,
	strh	r5, [fp, #-50]	@ movhi	@, para
	ldrh	r8, [r4, lr]	@, <variable>.MP4Vol.video_object_layer_width
	strh	r8, [fp, #-48]	@ movhi	@, para
	ldrh	r0, [r4, r7]	@, <variable>.MP4Vol.video_object_layer_height
	strh	r0, [fp, #-46]	@ movhi	@, para
	ldr	r0, [r4, r1]	@, <variable>.ChanID
	mov	r1, #2	@,
	blx	ip	@ g_event_report
	ldr	r3, [r4, r7]	@ prephitmp.2586, <variable>.MP4Vol.video_object_layer_height
.L816:
	movw	r0, #20080	@ tmp533,
	movw	r1, #21972	@ tmp531,
	ldr	ip, [r4, r0]	@ <variable>.MP4Vol.video_object_layer_width, <variable>.MP4Vol.video_object_layer_width
	movw	r7, #21976	@ tmp532,
	str	r3, [r4, r1]	@ prephitmp.2586, <variable>.MP4Syntax.image_height
	str	ip, [r4, r7]	@ <variable>.MP4Vol.video_object_layer_width, <variable>.MP4Syntax.image_width
.L814:
	movw	r5, #22960	@ tmp535,
	movw	sl, #56792	@ tmp537,
	ldr	r0, [r4, r5]	@, <variable>.ChanID
	ldr	r1, [r4, sl]	@, <variable>.BwdFsID
	bl	FSP_GetFsImagePtr	@
	subs	r7, r0, #0	@ pImg,
	beq	.L817	@,
	ldr	r0, [r4, r5]	@, <variable>.ChanID
	mov	r8, #0	@ tmp551,
	ldr	r1, [r7, #212]	@, <variable>.p_usrdat
	movw	r9, #56784	@ tmp561,
	bl	FreeUsdByDec	@
	ldr	r0, [r4, r5]	@, <variable>.ChanID
	ldr	r1, [r7, #216]	@, <variable>.p_usrdat
	bl	FreeUsdByDec	@
	ldr	r0, [r4, r5]	@, <variable>.ChanID
	ldr	r1, [r7, #220]	@, <variable>.p_usrdat
	bl	FreeUsdByDec	@
	ldr	r0, [r4, r5]	@, <variable>.ChanID
	ldr	r1, [r7, #224]	@, <variable>.p_usrdat
	bl	FreeUsdByDec	@
	str	r8, [r7, #224]	@ tmp551, <variable>.p_usrdat
	str	r8, [r7, #212]	@ tmp551, <variable>.p_usrdat
	mov	r2, #1	@,
	str	r8, [r7, #216]	@ tmp551, <variable>.p_usrdat
	str	r8, [r7, #220]	@ tmp551, <variable>.p_usrdat
	ldr	r0, [r4, r5]	@, <variable>.ChanID
	ldr	r1, [r4, sl]	@, <variable>.BwdFsID
	bl	FSP_ClearLogicFs	@
	ldr	r0, [r4, r5]	@, <variable>.ChanID
	ldr	r1, [r4, r9]	@, <variable>.FwdFsID
	mov	r2, #1	@,
	bl	FSP_ClearLogicFs	@
	str	r8, [r4, sl]	@ tmp551, <variable>.BwdFsID
	str	r8, [r4, r9]	@ tmp551, <variable>.FwdFsID
	ldr	r0, [r4, r5]	@, <variable>.ChanID
	bl	FSP_GetNullLogicFs	@
	str	r0, [r4, r9]	@ D.40343, <variable>.FwdFsID
	str	r0, [r4, sl]	@ D.40343, <variable>.BwdFsID
.L817:
	add	r5, r4, #22528	@ temp.2685, pCtx,
	movw	ip, #22968	@ tmp571,
	add	r5, r5, #80	@ temp.2685, temp.2685,
	movw	r7, #22960	@ tmp574,
	mov	lr, #0	@ tmp572,
	ldr	r0, [r4, r7]	@, <variable>.ChanID
	str	lr, [r4, ip]	@ tmp572, <variable>.RefNum
	mov	r1, r5	@, temp.2685
	bl	FSP_ClearNotInVoQueue	@
	movw	r3, #22060	@ tmp576,
	ldr	r3, [r4, r3]	@ temp.2686, <variable>.pstExtraData
	ldr	r2, [r3, #788]	@ <variable>.stChanOption.s32ReRangeEn, <variable>.stChanOption.s32ReRangeEn
	cmp	r2, #0	@ <variable>.stChanOption.s32ReRangeEn,
	bne	.L818	@,
	ldr	r1, [r3, #32]	@ <variable>.eCapLevel, <variable>.eCapLevel
	cmp	r1, #25	@ <variable>.eCapLevel,
	beq	.L843	@,
.L818:
	movw	r2, #22960	@ tmp581,
	ldr	r0, [r4, r2]	@, <variable>.ChanID
	bl	FSP_GetFspType	@
	cmp	r0, #0	@,
	beq	.L822	@,
.L819:
	movw	lr, #21976	@ tmp583,
	movw	r3, #21972	@ tmp585,
	ldr	r1, [r4, lr]	@, <variable>.MP4Syntax.image_width
	mov	r0, r4	@, pCtx
	ldr	r2, [r4, r3]	@, <variable>.MP4Syntax.image_height
	bl	Frame_Init	@
	cmp	r0, #0	@,
	beq	.L815	@,
	movw	r1, #:lower16:.LC70	@,
	mov	r0, #0	@,
	movt	r1, #:upper16:.LC70	@,
	bl	dprint_vfmw	@
	b	.L815	@
.L793:
	movw	r8, #22960	@ tmp325,
	add	r1, r4, #15680	@, pCtx,
	ldr	r0, [r4, r8]	@, <variable>.ChanID
	add	r1, r1, #24	@,,
	sub	r8, sl, #4	@ len, CodeLen,
	bl	MP4_ClearCurPacket	@
	add	sl, r7, #4	@ ptr, pCode,
	mov	r6, #0	@ BitUsed,
	b	.L781	@
.L827:
	movw	r6, #22572	@ tmp257,
	mov	r0, #2	@,
	movw	r1, #:lower16:.LC59	@,
	movt	r1, #:upper16:.LC59	@,
	bl	dprint_vfmw	@
	mov	r2, sl	@, CodeLen
	str	r9, [r4, r6]	@ tmp243, <variable>.UserID
	mov	r1, r7	@, pCode
	mov	r0, r4	@, pCtx
	mov	r8, sl	@ len, CodeLen
	bl	Mp4_Syntax_Vos	@
	mov	r1, r5	@, StartCode
	mov	sl, r7	@ ptr, pCode
	mov	r6, r0	@ BitUsed,
	mov	r0, r4	@, pCtx
	bl	MP4_Record_HeadPacketInfo	@
	b	.L781	@
.L831:
	mov	r0, #2	@,
	movw	r1, #:lower16:.LC63	@,
	movt	r1, #:upper16:.LC63	@,
	bl	dprint_vfmw	@
	cmp	sl, #4	@ CodeLen,
	beq	.L844	@,
	mov	r1, r7	@, pCode
	mov	r0, r4	@, pCtx
	mov	r2, sl	@, CodeLen
	bl	Mp4_Syntax_Vop	@
	ldr	r1, [r4, r8]	@ <variable>.PicIntegrality, <variable>.PicIntegrality
	tst	r1, #2	@ <variable>.PicIntegrality,
	mov	r6, r0	@ BitUsed,
	bne	.L789	@,
	add	r8, r4, #15680	@, pCtx,
	movw	lr, #22960	@ tmp294,
	ldr	r0, [r4, lr]	@, <variable>.ChanID
	add	r1, r8, #24	@,,
	bl	MP4_ClearCurPacket	@
.L788:
	mov	r0, #7	@,
	movw	r1, #:lower16:.LC64	@,
	mov	r2, r6	@, BitUsed
	movt	r1, #:upper16:.LC64	@,
	mov	r8, sl	@ len, CodeLen
	bl	dprint_vfmw	@
	mov	sl, r7	@ ptr, pCode
	b	.L781	@
.L839:
	movw	r1, #22560	@ tmp396,
	ldr	r0, [r4, r1]	@ <variable>.OldPicHeight, <variable>.OldPicHeight
	cmp	r2, r0	@ D.40256, <variable>.OldPicHeight
	movne	r5, #1	@ bNeedPartition,
	bne	.L806	@,
	b	.L805	@
.L842:
	movw	r5, #21976	@ tmp509,
	movw	ip, #20080	@ tmp510,
	ldr	r8, [r4, r5]	@ <variable>.MP4Syntax.image_width, <variable>.MP4Syntax.image_width
	ldr	lr, [r4, ip]	@ <variable>.MP4Vol.video_object_layer_width, <variable>.MP4Vol.video_object_layer_width
	cmp	r8, lr	@ <variable>.MP4Syntax.image_width, <variable>.MP4Vol.video_object_layer_width
	bne	.L813	@,
	movw	r2, #22964	@ tmp513,
	ldr	r3, [r4, r2]	@ <variable>.FspPartitionOK, <variable>.FspPartitionOK
	cmp	r3, #1	@ <variable>.FspPartitionOK,
	bne	.L814	@,
.L815:
	movw	r2, #21972	@ tmp589,
	movw	r3, #21976	@ tmp592,
	movw	r5, #20084	@ tmp595,
	movw	r7, #20080	@ tmp598,
	ldr	r0, [r4, r5]	@ <variable>.MP4Vol.video_object_layer_height, <variable>.MP4Vol.video_object_layer_height
	movw	ip, #22039	@ tmp600,
	ldr	r1, [r4, r7]	@ <variable>.MP4Vol.video_object_layer_width, <variable>.MP4Vol.video_object_layer_width
	mov	r8, #0	@ tmp601,
	ldr	r7, [r4, r2]	@ <variable>.MP4Syntax.image_height, <variable>.MP4Syntax.image_height
	movw	lr, #22556	@ tmp588,
	ldr	r5, [r4, r3]	@ <variable>.MP4Syntax.image_width, <variable>.MP4Syntax.image_width
